 game

 Timestamp is 58f7ba1e (Wed Apr 19 21:27:26 2017)

 Preferred load address is 0000000180000000

 Start         Length     Name                   Class
 0001:00000000 0000c2e0H .text$mn                CODE
 0001:0000c2e0 00000020H .text$mn$00             CODE
 0001:0000c300 000002b4H .text$x                 CODE
 0002:00000000 00000290H .idata$5                DATA
 0002:00000290 00000010H .00cfg                  DATA
 0002:000002a0 00000008H .CRT$XCA                DATA
 0002:000002a8 00000008H .CRT$XCZ                DATA
 0002:000002b0 00000008H .CRT$XIA                DATA
 0002:000002b8 00000008H .CRT$XIZ                DATA
 0002:000002c0 00000008H .CRT$XPA                DATA
 0002:000002c8 00000008H .CRT$XPZ                DATA
 0002:000002d0 00000008H .CRT$XTA                DATA
 0002:000002d8 00000008H .CRT$XTZ                DATA
 0002:000002e0 00000a28H .rdata                  DATA
 0002:00000d08 000001f4H .rdata$r                DATA
 0002:00000efc 000002c4H .rdata$zzzdbg           DATA
 0002:000011c0 00000008H .rtc$IAA                DATA
 0002:000011c8 00000008H .rtc$IZZ                DATA
 0002:000011d0 00000008H .rtc$TAA                DATA
 0002:000011d8 00000008H .rtc$TZZ                DATA
 0002:000011e0 00000968H .xdata                  DATA
 0002:00001b48 000000f8H .xdata$x                DATA
 0002:00001c40 00000044H .edata                  DATA
 0002:00001c84 000000f0H .idata$2                DATA
 0002:00001d74 00000014H .idata$3                DATA
 0002:00001d88 00000290H .idata$4                DATA
 0002:00002018 0000065aH .idata$6                DATA
 0003:00000000 00000788H .data                   DATA
 0003:00000788 000000b8H .data$r                 DATA
 0003:00000840 00001638H .bss                    DATA
 0004:00000000 00000b58H .pdata                  DATA
 0005:00000000 0000002cH .gfids$y                DATA

  Address         Publics by Value              Rva+Base               Lib:Object

 0000:00000000       __dynamic_value_reloc_table 0000000000000000     <absolute>
 0000:00000000       __guard_longjmp_count      0000000000000000     <absolute>
 0000:00000000       __guard_fids_count         0000000000000000     <absolute>
 0000:00000000       __guard_longjmp_table      0000000000000000     <absolute>
 0000:00000000       ___safe_se_handler_table   0000000000000000     <absolute>
 0000:00000000       ___safe_se_handler_count   0000000000000000     <absolute>
 0000:00000000       __guard_iat_table          0000000000000000     <absolute>
 0000:00000000       __guard_iat_count          0000000000000000     <absolute>
 0000:00000000       __guard_fids_table         0000000000000000     <absolute>
 0000:00000100       __guard_flags              0000000000000100     <absolute>
 0000:00000000       __ImageBase                0000000180000000     <linker-defined>
 0001:00000130       stb_perlin_noise3          0000000180001130 f   game.obj
 0001:000007a0       stb_perlin_ridge_noise3    00000001800017a0 f   game.obj
 0001:00000940       stb_perlin_fbm_noise3      0000000180001940 f   game.obj
 0001:00000a60       stb_perlin_turbulence_noise3 0000000180001a60 f   game.obj
 0001:00000cd0       ?UpdateStub@@YAXNPEAUgame_state@@@Z 0000000180001cd0 f   game.obj
 0001:00000cf0       ?CharacterCallback@@YAXPEAUGLFWwindow@@I@Z 0000000180001cf0 f   game.obj
 0001:00000e00       ?PlaySoundEffect@@YAXPEAUgame_state@@PEAUloaded_sound@@@Z 0000000180001e00 f   game.obj
 0001:00000ed0       ?PlaySoundEffectOnce@@YAXPEAUgame_state@@PEAUloaded_sound@@@Z 0000000180001ed0 f   game.obj
 0001:00000fa0       ?StopSoundEffect@@YAXPEAUgame_state@@PEAUloaded_sound@@@Z 0000000180001fa0 f   game.obj
 0001:00001070       ?PauseSoundEffect@@YAXPEAUgame_state@@PEAUloaded_sound@@@Z 0000000180002070 f   game.obj
 0001:00001140       ?ExecuteCommand@@YAXPEAUgame_state@@@Z 0000000180002140 f   game.obj
 0001:000016c0       Update                     00000001800026c0 f   game.obj
 0001:00001d10       ??$?0AEAV?$_Tree_iterator@V?$_Tree_val@U?$_Tree_simple_types@U?$pair@$$CBHI@std@@@std@@@std@@@std@@_NX$0A@@?$pair@V?$_Tree_iterator@V?$_Tree_val@U?$_Tree_simple_types@U?$pair@$$CBHI@std@@@std@@@std@@@std@@_N@std@@QEAA@AEAV?$_Tree_iterator@V?$_Tree_val@U?$_Tree_simple_types@U?$pair@$$CBHI@std@@@std@@@std@@@1@$$QEA_N@Z 0000000180002d10 f i game.obj
 0001:00001d10       ??$?0AEAV?$_Tree_iterator@V?$_Tree_val@U?$_Tree_simple_types@U?$pair@$$CBH_N@std@@@std@@@std@@@std@@_NX$0A@@?$pair@V?$_Tree_iterator@V?$_Tree_val@U?$_Tree_simple_types@U?$pair@$$CBH_N@std@@@std@@@std@@@std@@_N@std@@QEAA@AEAV?$_Tree_iterator@V?$_Tree_val@U?$_Tree_simple_types@U?$pair@$$CBH_N@std@@@std@@@std@@@1@$$QEA_N@Z 0000000180002d10 f i game.obj
 0001:00001d10       ??$?0V?$_Tree_iterator@V?$_Tree_val@U?$_Tree_simple_types@U?$pair@$$CBH_N@std@@@std@@@std@@@std@@_NX$0A@@?$pair@V?$_Tree_iterator@V?$_Tree_val@U?$_Tree_simple_types@U?$pair@$$CBH_N@std@@@std@@@std@@@std@@_N@std@@QEAA@$$QEAV?$_Tree_iterator@V?$_Tree_val@U?$_Tree_simple_types@U?$pair@$$CBH_N@std@@@std@@@std@@@1@$$QEA_N@Z 0000000180002d10 f i game.obj
 0001:00001d10       ??$?0V?$_Tree_iterator@V?$_Tree_val@U?$_Tree_simple_types@U?$pair@$$CBHI@std@@@std@@@std@@@std@@_NX$0A@@?$pair@V?$_Tree_iterator@V?$_Tree_val@U?$_Tree_simple_types@U?$pair@$$CBHI@std@@@std@@@std@@@std@@_N@std@@QEAA@$$QEAV?$_Tree_iterator@V?$_Tree_val@U?$_Tree_simple_types@U?$pair@$$CBHI@std@@@std@@@std@@@1@$$QEA_N@Z 0000000180002d10 f i game.obj
 0001:00001d60       ??$?0AEBH$$Z$$V@?$pair@$$CBHI@std@@QEAA@Upiecewise_construct_t@1@V?$tuple@AEBH@1@V?$tuple@$$V@1@@Z 0000000180002d60 f i game.obj
 0001:00001db0       ??$?0AEBH$$Z$$V@?$pair@$$CBH_N@std@@QEAA@Upiecewise_construct_t@1@V?$tuple@AEBH@1@V?$tuple@$$V@1@@Z 0000000180002db0 f i game.obj
 0001:00001e00       ??$?0AEBH$0A@@?$tuple@AEBH@std@@QEAA@AEBH@Z 0000000180002e00 f i game.obj
 0001:00001e50       ??$?0AEBH@?$_Tuple_val@AEBH@std@@QEAA@AEBH@Z 0000000180002e50 f i game.obj
 0001:00001e80       ??$?0HHHH@?$tvec4@M$0A@@glm@@QEAA@HHHH@Z 0000000180002e80 f i game.obj
 0001:00001ee0       ??$?0HHHM@?$tvec4@M$0A@@glm@@QEAA@HHHM@Z 0000000180002ee0 f i game.obj
 0001:00001f40       ??$?0HHM@?$tvec3@M$0A@@glm@@QEAA@HHM@Z 0000000180002f40 f i game.obj
 0001:00001f90       ??$?0HHMH@?$tvec4@M$0A@@glm@@QEAA@HHMH@Z 0000000180002f90 f i game.obj
 0001:00001ff0       ??$?0HMHH@?$tvec4@M$0A@@glm@@QEAA@HMHH@Z 0000000180002ff0 f i game.obj
 0001:00002050       ??$?0M$0A@@?$tvec3@M$0A@@glm@@QEAA@AEBU?$tvec4@M$0A@@1@@Z 0000000180003050 f i game.obj
 0001:000020a0       ??$?0MHHH@?$tvec4@M$0A@@glm@@QEAA@MHHH@Z 00000001800030a0 f i game.obj
 0001:00002100       ??$?0MM$0A@@?$tvec4@M$0A@@glm@@QEAA@AEBU?$tvec3@M$0A@@1@M@Z 0000000180003100 f i game.obj
 0001:00002160       ??$?0MMH@?$tvec3@M$0A@@glm@@QEAA@MMH@Z 0000000180003160 f i game.obj
 0001:000021b0       ??$?0NNH@?$tvec3@M$0A@@glm@@QEAA@NNH@Z 00000001800031b0 f i game.obj
 0001:00002200       ??$?0U_Exact_args_t@std@@$0A@@?$tuple@$$V@std@@QEAA@U_Exact_args_t@1@@Z 0000000180003200 f i game.obj
 0001:00002210       ??$?0V?$tuple@AEBH@std@@V?$tuple@$$V@1@$0A@$$Z$S@?$pair@$$CBHI@std@@QEAA@AEAV?$tuple@AEBH@1@AEAV?$tuple@$$V@1@U?$integer_sequence@_K$0A@@1@U?$integer_sequence@_K$S@1@@Z 0000000180003210 f i game.obj
 0001:00002260       ??$?0V?$tuple@AEBH@std@@V?$tuple@$$V@1@$0A@$$Z$S@?$pair@$$CBH_N@std@@QEAA@AEAV?$tuple@AEBH@1@AEAV?$tuple@$$V@1@U?$integer_sequence@_K$0A@@1@U?$integer_sequence@_K$S@1@@Z 0000000180003260 f i game.obj
 0001:000022b0       ??$?DM$0A@@glm@@YA?AU?$tmat4x4@M$0A@@0@AEBU10@0@Z 00000001800032b0 f i game.obj
 0001:00002900       ??$?DM$0A@@glm@@YA?AU?$tmat4x4@M$0A@@0@AEBU10@AEBM@Z 0000000180003900 f i game.obj
 0001:00002a10       ??$?DM$0A@@glm@@YA?AU?$tvec2@M$0A@@0@AEBU10@0@Z 0000000180003a10 f i game.obj
 0001:00002a60       ??$?DM$0A@@glm@@YA?AU?$tvec2@M$0A@@0@AEBU10@M@Z 0000000180003a60 f i game.obj
 0001:00002ab0       ??$?DM$0A@@glm@@YA?AU?$tvec4@M$0A@@0@AEBU10@0@Z 0000000180003ab0 f i game.obj
 0001:00002b10       ??$?DM$0A@@glm@@YA?AU?$tvec4@M$0A@@0@AEBU10@M@Z 0000000180003b10 f i game.obj
 0001:00002b70       ??$?DM$0A@@glm@@YA?AU?$tvec4@M$0A@@0@AEBU?$tmat4x4@M$0A@@0@AEBU10@@Z 0000000180003b70 f i game.obj
 0001:00002d20       ??$?GM$0A@@glm@@YA?AU?$tvec2@M$0A@@0@AEBU10@0@Z 0000000180003d20 f i game.obj
 0001:00002d70       ??$?GM$0A@@glm@@YA?AU?$tvec4@M$0A@@0@AEBU10@0@Z 0000000180003d70 f i game.obj
 0001:00002dd0       ??$?GM$0A@@glm@@YA?AU?$tvec4@M$0A@@0@AEBU10@M@Z 0000000180003dd0 f i game.obj
 0001:00002e30       ??$?HM$0A@@glm@@YA?AU?$tvec4@M$0A@@0@AEBU10@0@Z 0000000180003e30 f i game.obj
 0001:00002e90       ??$?XM@?$tvec4@M$0A@@glm@@QEAAAEAU01@AEBU01@@Z 0000000180003e90 f i game.obj
 0001:00002ef0       ??$?XM@?$tvec4@M$0A@@glm@@QEAAAEAU01@M@Z 0000000180003ef0 f i game.obj
 0001:00002f40       ??$?YM@?$tvec4@M$0A@@glm@@QEAAAEAU01@AEBU01@@Z 0000000180003f40 f i game.obj
 0001:00002fa0       ??$?ZM@?$tvec4@M$0A@@glm@@QEAAAEAU01@AEBU01@@Z 0000000180003fa0 f i game.obj
 0001:00003000       ??$?ZM@?$tvec4@M$0A@@glm@@QEAAAEAU01@M@Z 0000000180004000 f i game.obj
 0001:00003050       ??$?_0M@?$tvec4@M$0A@@glm@@QEAAAEAU01@M@Z 0000000180004050 f i game.obj
 0001:000030a0       ??$_Buynode@AEBUpiecewise_construct_t@std@@V?$tuple@AEBH@2@V?$tuple@$$V@2@@?$_Tree_comp_alloc@V?$_Tmap_traits@HIU?$less@H@std@@V?$allocator@U?$pair@$$CBHI@std@@@2@$0A@@std@@@std@@QEAAPEAU?$_Tree_node@U?$pair@$$CBHI@std@@PEAX@1@AEBUpiecewise_construct_t@1@$$QEAV?$tuple@AEBH@1@$$QEAV?$tuple@$$V@1@@Z 00000001800040a0 f i game.obj
 0001:00003190       ??$_Buynode@AEBUpiecewise_construct_t@std@@V?$tuple@AEBH@2@V?$tuple@$$V@2@@?$_Tree_comp_alloc@V?$_Tmap_traits@H_NU?$less@H@std@@V?$allocator@U?$pair@$$CBH_N@std@@@2@$0A@@std@@@std@@QEAAPEAU?$_Tree_node@U?$pair@$$CBH_N@std@@PEAX@1@AEBUpiecewise_construct_t@1@$$QEAV?$tuple@AEBH@1@$$QEAV?$tuple@$$V@1@@Z 0000000180004190 f i game.obj
 0001:00003280       ??$_Buynode_if_nil@AEAU?$pair@$$CBH_N@std@@@?$_Tree@V?$_Tmap_traits@H_NU?$less@H@std@@V?$allocator@U?$pair@$$CBH_N@std@@@2@$0A@@std@@@std@@IEAAPEAU?$_Tree_node@U?$pair@$$CBH_N@std@@PEAX@1@PEAU21@AEAU?$pair@$$CBH_N@1@@Z 0000000180004280 f i game.obj
 0001:00003280       ??$_Buynode_if_nil@AEAU?$pair@$$CBHI@std@@@?$_Tree@V?$_Tmap_traits@HIU?$less@H@std@@V?$allocator@U?$pair@$$CBHI@std@@@2@$0A@@std@@@std@@IEAAPEAU?$_Tree_node@U?$pair@$$CBHI@std@@PEAX@1@PEAU21@AEAU?$pair@$$CBHI@1@@Z 0000000180004280 f i game.obj
 0001:000032a0       ??$_Insert_at@AEAU?$pair@$$CBHI@std@@PEAU?$_Tree_node@U?$pair@$$CBHI@std@@PEAX@2@@?$_Tree@V?$_Tmap_traits@HIU?$less@H@std@@V?$allocator@U?$pair@$$CBHI@std@@@2@$0A@@std@@@std@@IEAA?AV?$_Tree_iterator@V?$_Tree_val@U?$_Tree_simple_types@U?$pair@$$CBHI@std@@@std@@@std@@@1@_NPEAU?$_Tree_node@U?$pair@$$CBHI@std@@PEAX@1@AEAU?$pair@$$CBHI@1@1@Z 00000001800042a0 f i game.obj
 0001:000032a0       ??$_Insert_at@AEAU?$pair@$$CBH_N@std@@PEAU?$_Tree_node@U?$pair@$$CBH_N@std@@PEAX@2@@?$_Tree@V?$_Tmap_traits@H_NU?$less@H@std@@V?$allocator@U?$pair@$$CBH_N@std@@@2@$0A@@std@@@std@@IEAA?AV?$_Tree_iterator@V?$_Tree_val@U?$_Tree_simple_types@U?$pair@$$CBH_N@std@@@std@@@std@@@1@_NPEAU?$_Tree_node@U?$pair@$$CBH_N@std@@PEAX@1@AEAU?$pair@$$CBH_N@1@1@Z 00000001800042a0 f i game.obj
 0001:00003700       ??$_Insert_hint@AEAU?$pair@$$CBHI@std@@PEAU?$_Tree_node@U?$pair@$$CBHI@std@@PEAX@2@@?$_Tree@V?$_Tmap_traits@HIU?$less@H@std@@V?$allocator@U?$pair@$$CBHI@std@@@2@$0A@@std@@@std@@IEAA?AV?$_Tree_iterator@V?$_Tree_val@U?$_Tree_simple_types@U?$pair@$$CBHI@std@@@std@@@std@@@1@V?$_Tree_const_iterator@V?$_Tree_val@U?$_Tree_simple_types@U?$pair@$$CBHI@std@@@std@@@std@@@1@AEAU?$pair@$$CBHI@1@PEAU?$_Tree_node@U?$pair@$$CBHI@std@@PEAX@1@@Z 0000000180004700 f i game.obj
 0001:000045e0       ??$_Insert_hint@AEAU?$pair@$$CBH_N@std@@PEAU?$_Tree_node@U?$pair@$$CBH_N@std@@PEAX@2@@?$_Tree@V?$_Tmap_traits@H_NU?$less@H@std@@V?$allocator@U?$pair@$$CBH_N@std@@@2@$0A@@std@@@std@@IEAA?AV?$_Tree_iterator@V?$_Tree_val@U?$_Tree_simple_types@U?$pair@$$CBH_N@std@@@std@@@std@@@1@V?$_Tree_const_iterator@V?$_Tree_val@U?$_Tree_simple_types@U?$pair@$$CBH_N@std@@@std@@@std@@@1@AEAU?$pair@$$CBH_N@1@PEAU?$_Tree_node@U?$pair@$$CBH_N@std@@PEAX@1@@Z 00000001800055e0 f i game.obj
 0001:000054c0       ??$_Insert_nohint@AEAU?$pair@$$CBHI@std@@PEAU?$_Tree_node@U?$pair@$$CBHI@std@@PEAX@2@@?$_Tree@V?$_Tmap_traits@HIU?$less@H@std@@V?$allocator@U?$pair@$$CBHI@std@@@2@$0A@@std@@@std@@IEAA?AU?$pair@V?$_Tree_iterator@V?$_Tree_val@U?$_Tree_simple_types@U?$pair@$$CBHI@std@@@std@@@std@@@std@@_N@1@_NAEAU?$pair@$$CBHI@1@PEAU?$_Tree_node@U?$pair@$$CBHI@std@@PEAX@1@@Z 00000001800064c0 f i game.obj
 0001:00005930       ??$_Insert_nohint@AEAU?$pair@$$CBH_N@std@@PEAU?$_Tree_node@U?$pair@$$CBH_N@std@@PEAX@2@@?$_Tree@V?$_Tmap_traits@H_NU?$less@H@std@@V?$allocator@U?$pair@$$CBH_N@std@@@2@$0A@@std@@@std@@IEAA?AU?$pair@V?$_Tree_iterator@V?$_Tree_val@U?$_Tree_simple_types@U?$pair@$$CBH_N@std@@@std@@@std@@@std@@_N@1@_NAEAU?$pair@$$CBH_N@1@PEAU?$_Tree_node@U?$pair@$$CBH_N@std@@PEAX@1@@Z 0000000180006930 f i game.obj
 0001:00005da0       ??$_Lbound@H@?$_Tree@V?$_Tmap_traits@H_NU?$less@H@std@@V?$allocator@U?$pair@$$CBH_N@std@@@2@$0A@@std@@@std@@IEBAPEAU?$_Tree_node@U?$pair@$$CBH_N@std@@PEAX@1@AEBH@Z 0000000180006da0 f i game.obj
 0001:00005da0       ??$_Lbound@H@?$_Tree@V?$_Tmap_traits@HIU?$less@H@std@@V?$allocator@U?$pair@$$CBHI@std@@@2@$0A@@std@@@std@@IEBAPEAU?$_Tree_node@U?$pair@$$CBHI@std@@PEAX@1@AEBH@Z 0000000180006da0 f i game.obj
 0001:00005e50       ??$_Try_emplace@AEBH$$V@?$map@HIU?$less@H@std@@V?$allocator@U?$pair@$$CBHI@std@@@2@@std@@QEAA?AU?$pair@V?$_Tree_iterator@V?$_Tree_val@U?$_Tree_simple_types@U?$pair@$$CBHI@std@@@std@@@std@@@std@@_N@1@AEBH@Z 0000000180006e50 f i game.obj
 0001:00005fb0       ??$_Try_emplace@AEBH$$V@?$map@H_NU?$less@H@std@@V?$allocator@U?$pair@$$CBH_N@std@@@2@@std@@QEAA?AU?$pair@V?$_Tree_iterator@V?$_Tree_val@U?$_Tree_simple_types@U?$pair@$$CBH_N@std@@@std@@@std@@@std@@_N@1@AEBH@Z 0000000180006fb0 f i game.obj
 0001:00006110       ??$__vcrt_va_start_verify_argument_type@QEBD@@YAXXZ 0000000180007110 f i game.obj
 0001:00006120       ??$construct@PEAU?$_Tree_node@U?$pair@$$CBHI@std@@PEAX@std@@AEAPEAU12@@?$_Wrap_alloc@V?$allocator@U?$_Tree_node@U?$pair@$$CBHI@std@@PEAX@std@@@std@@@std@@QEAAXPEAPEAU?$_Tree_node@U?$pair@$$CBHI@std@@PEAX@1@AEAPEAU21@@Z 0000000180007120 f i game.obj
 0001:00006120       ??$construct@PEAU?$_Tree_node@U?$pair@$$CBH_N@std@@PEAX@std@@AEAPEAU12@@?$_Wrap_alloc@V?$allocator@U?$_Tree_node@U?$pair@$$CBH_N@std@@PEAX@std@@@std@@@std@@QEAAXPEAPEAU?$_Tree_node@U?$pair@$$CBH_N@std@@PEAX@1@AEAPEAU21@@Z 0000000180007120 f i game.obj
 0001:00006160       ??$construct@PEAU?$_Tree_node@U?$pair@$$CBH_N@std@@PEAX@std@@AEAPEAU12@@?$allocator@U?$_Tree_node@U?$pair@$$CBH_N@std@@PEAX@std@@@std@@QEAAXPEAPEAU?$_Tree_node@U?$pair@$$CBH_N@std@@PEAX@1@AEAPEAU21@@Z 0000000180007160 f i game.obj
 0001:00006160       ??$construct@PEAU?$_Tree_node@U?$pair@$$CBHI@std@@PEAX@std@@AEAPEAU12@@?$allocator@U?$_Tree_node@U?$pair@$$CBHI@std@@PEAX@std@@@std@@QEAAXPEAPEAU?$_Tree_node@U?$pair@$$CBHI@std@@PEAX@1@AEAPEAU21@@Z 0000000180007160 f i game.obj
 0001:000061c0       ??$construct@PEAU?$_Tree_node@U?$pair@$$CBH_N@std@@PEAX@std@@AEAPEAU12@@?$allocator_traits@V?$allocator@U?$_Tree_node@U?$pair@$$CBH_N@std@@PEAX@std@@@std@@@std@@SAXAEAV?$allocator@U?$_Tree_node@U?$pair@$$CBH_N@std@@PEAX@std@@@1@PEAPEAU?$_Tree_node@U?$pair@$$CBH_N@std@@PEAX@1@AEAPEAU31@@Z 00000001800071c0 f i game.obj
 0001:000061c0       ??$construct@PEAU?$_Tree_node@U?$pair@$$CBHI@std@@PEAX@std@@AEAPEAU12@@?$allocator_traits@V?$allocator@U?$_Tree_node@U?$pair@$$CBHI@std@@PEAX@std@@@std@@@std@@SAXAEAV?$allocator@U?$_Tree_node@U?$pair@$$CBHI@std@@PEAX@std@@@1@PEAPEAU?$_Tree_node@U?$pair@$$CBHI@std@@PEAX@1@AEAPEAU31@@Z 00000001800071c0 f i game.obj
 0001:00006200       ??$construct@U?$pair@$$CBHI@std@@AEBUpiecewise_construct_t@2@V?$tuple@AEBH@2@V?$tuple@$$V@2@@?$_Wrap_alloc@V?$allocator@U?$_Tree_node@U?$pair@$$CBHI@std@@PEAX@std@@@std@@@std@@QEAAXPEAU?$pair@$$CBHI@1@AEBUpiecewise_construct_t@1@$$QEAV?$tuple@AEBH@1@$$QEAV?$tuple@$$V@1@@Z 0000000180007200 f i game.obj
 0001:00006270       ??$construct@U?$pair@$$CBHI@std@@AEBUpiecewise_construct_t@2@V?$tuple@AEBH@2@V?$tuple@$$V@2@@?$allocator@U?$_Tree_node@U?$pair@$$CBHI@std@@PEAX@std@@@std@@QEAAXPEAU?$pair@$$CBHI@1@AEBUpiecewise_construct_t@1@$$QEAV?$tuple@AEBH@1@$$QEAV?$tuple@$$V@1@@Z 0000000180007270 f i game.obj
 0001:00006350       ??$construct@U?$pair@$$CBHI@std@@AEBUpiecewise_construct_t@2@V?$tuple@AEBH@2@V?$tuple@$$V@2@@?$allocator_traits@V?$allocator@U?$_Tree_node@U?$pair@$$CBHI@std@@PEAX@std@@@std@@@std@@SAXAEAV?$allocator@U?$_Tree_node@U?$pair@$$CBHI@std@@PEAX@std@@@1@PEAU?$pair@$$CBHI@1@AEBUpiecewise_construct_t@1@$$QEAV?$tuple@AEBH@1@$$QEAV?$tuple@$$V@1@@Z 0000000180007350 f i game.obj
 0001:000063c0       ??$construct@U?$pair@$$CBH_N@std@@AEBUpiecewise_construct_t@2@V?$tuple@AEBH@2@V?$tuple@$$V@2@@?$_Wrap_alloc@V?$allocator@U?$_Tree_node@U?$pair@$$CBH_N@std@@PEAX@std@@@std@@@std@@QEAAXPEAU?$pair@$$CBH_N@1@AEBUpiecewise_construct_t@1@$$QEAV?$tuple@AEBH@1@$$QEAV?$tuple@$$V@1@@Z 00000001800073c0 f i game.obj
 0001:00006430       ??$construct@U?$pair@$$CBH_N@std@@AEBUpiecewise_construct_t@2@V?$tuple@AEBH@2@V?$tuple@$$V@2@@?$allocator@U?$_Tree_node@U?$pair@$$CBH_N@std@@PEAX@std@@@std@@QEAAXPEAU?$pair@$$CBH_N@1@AEBUpiecewise_construct_t@1@$$QEAV?$tuple@AEBH@1@$$QEAV?$tuple@$$V@1@@Z 0000000180007430 f i game.obj
 0001:00006510       ??$construct@U?$pair@$$CBH_N@std@@AEBUpiecewise_construct_t@2@V?$tuple@AEBH@2@V?$tuple@$$V@2@@?$allocator_traits@V?$allocator@U?$_Tree_node@U?$pair@$$CBH_N@std@@PEAX@std@@@std@@@std@@SAXAEAV?$allocator@U?$_Tree_node@U?$pair@$$CBH_N@std@@PEAX@std@@@1@PEAU?$pair@$$CBH_N@1@AEBUpiecewise_construct_t@1@$$QEAV?$tuple@AEBH@1@$$QEAV?$tuple@$$V@1@@Z 0000000180007510 f i game.obj
 0001:00006580       ??$destroy@PEAU?$_Tree_node@U?$pair@$$CBHI@std@@PEAX@std@@@?$_Wrap_alloc@V?$allocator@U?$_Tree_node@U?$pair@$$CBHI@std@@PEAX@std@@@std@@@std@@QEAAXPEAPEAU?$_Tree_node@U?$pair@$$CBHI@std@@PEAX@1@@Z 0000000180007580 f i game.obj
 0001:00006580       ??$destroy@U?$pair@$$CBH_N@std@@@?$_Wrap_alloc@V?$allocator@U?$_Tree_node@U?$pair@$$CBH_N@std@@PEAX@std@@@std@@@std@@QEAAXPEAU?$pair@$$CBH_N@1@@Z 0000000180007580 f i game.obj
 0001:00006580       ??$destroy@U?$pair@$$CBHI@std@@@?$_Wrap_alloc@V?$allocator@U?$_Tree_node@U?$pair@$$CBHI@std@@PEAX@std@@@std@@@std@@QEAAXPEAU?$pair@$$CBHI@1@@Z 0000000180007580 f i game.obj
 0001:00006580       ??$destroy@PEAU?$_Tree_node@U?$pair@$$CBH_N@std@@PEAX@std@@@?$_Wrap_alloc@V?$allocator@U?$_Tree_node@U?$pair@$$CBH_N@std@@PEAX@std@@@std@@@std@@QEAAXPEAPEAU?$_Tree_node@U?$pair@$$CBH_N@std@@PEAX@1@@Z 0000000180007580 f i game.obj
 0001:000065b0       ??$destroy@U?$pair@$$CBH_N@std@@@?$allocator_traits@V?$allocator@U?$_Tree_node@U?$pair@$$CBH_N@std@@PEAX@std@@@std@@@std@@SAXAEAV?$allocator@U?$_Tree_node@U?$pair@$$CBH_N@std@@PEAX@std@@@1@PEAU?$pair@$$CBH_N@1@@Z 00000001800075b0 f i game.obj
 0001:000065b0       ??$destroy@U?$pair@$$CBHI@std@@@?$allocator_traits@V?$allocator@U?$_Tree_node@U?$pair@$$CBHI@std@@PEAX@std@@@std@@@std@@SAXAEAV?$allocator@U?$_Tree_node@U?$pair@$$CBHI@std@@PEAX@std@@@1@PEAU?$pair@$$CBHI@1@@Z 00000001800075b0 f i game.obj
 0001:000065b0       ??$destroy@PEAU?$_Tree_node@U?$pair@$$CBH_N@std@@PEAX@std@@@?$allocator_traits@V?$allocator@U?$_Tree_node@U?$pair@$$CBH_N@std@@PEAX@std@@@std@@@std@@SAXAEAV?$allocator@U?$_Tree_node@U?$pair@$$CBH_N@std@@PEAX@std@@@1@PEAPEAU?$_Tree_node@U?$pair@$$CBH_N@std@@PEAX@1@@Z 00000001800075b0 f i game.obj
 0001:000065b0       ??$destroy@PEAU?$_Tree_node@U?$pair@$$CBHI@std@@PEAX@std@@@?$allocator_traits@V?$allocator@U?$_Tree_node@U?$pair@$$CBHI@std@@PEAX@std@@@std@@@std@@SAXAEAV?$allocator@U?$_Tree_node@U?$pair@$$CBHI@std@@PEAX@std@@@1@PEAPEAU?$_Tree_node@U?$pair@$$CBHI@std@@PEAX@1@@Z 00000001800075b0 f i game.obj
 0001:000065e0       ??$destroy@PEAU?$_Tree_node@U?$pair@$$CBH_N@std@@PEAX@std@@@?$allocator@U?$_Tree_node@U?$pair@$$CBH_N@std@@PEAX@std@@@std@@QEAAXPEAPEAU?$_Tree_node@U?$pair@$$CBH_N@std@@PEAX@1@@Z 00000001800075e0 f i game.obj
 0001:000065e0       ??3@YAXPEAX0@Z             00000001800075e0 f i game.obj
 0001:000065e0       ?_Adopt@_Iterator_base0@std@@QEAAXPEBX@Z 00000001800075e0 f i game.obj
 0001:000065e0       ??$destroy@U?$pair@$$CBHI@std@@@?$allocator@U?$_Tree_node@U?$pair@$$CBHI@std@@PEAX@std@@@std@@QEAAXPEAU?$pair@$$CBHI@1@@Z 00000001800075e0 f i game.obj
 0001:000065e0       ??$destroy@U?$pair@$$CBH_N@std@@@?$allocator@U?$_Tree_node@U?$pair@$$CBH_N@std@@PEAX@std@@@std@@QEAAXPEAU?$pair@$$CBH_N@1@@Z 00000001800075e0 f i game.obj
 0001:000065e0       ??$destroy@PEAU?$_Tree_node@U?$pair@$$CBHI@std@@PEAX@std@@@?$allocator@U?$_Tree_node@U?$pair@$$CBHI@std@@PEAX@std@@@std@@QEAAXPEAPEAU?$_Tree_node@U?$pair@$$CBHI@std@@PEAX@1@@Z 00000001800075e0 f i game.obj
 0001:000065f0       ??$dot@M$0A@Utvec2@glm@@@glm@@YAMAEBU?$tvec2@M$0A@@0@0@Z 00000001800075f0 f i game.obj
 0001:00006620       ??$emplace_hint@AEBUpiecewise_construct_t@std@@V?$tuple@AEBH@2@V?$tuple@$$V@2@@?$_Tree@V?$_Tmap_traits@HIU?$less@H@std@@V?$allocator@U?$pair@$$CBHI@std@@@2@$0A@@std@@@std@@QEAA?AV?$_Tree_iterator@V?$_Tree_val@U?$_Tree_simple_types@U?$pair@$$CBHI@std@@@std@@@std@@@1@V?$_Tree_const_iterator@V?$_Tree_val@U?$_Tree_simple_types@U?$pair@$$CBHI@std@@@std@@@std@@@1@AEBUpiecewise_construct_t@1@$$QEAV?$tuple@AEBH@1@$$QEAV?$tuple@$$V@1@@Z 0000000180007620 f i game.obj
 0001:000066c0       ??$emplace_hint@AEBUpiecewise_construct_t@std@@V?$tuple@AEBH@2@V?$tuple@$$V@2@@?$_Tree@V?$_Tmap_traits@H_NU?$less@H@std@@V?$allocator@U?$pair@$$CBH_N@std@@@2@$0A@@std@@@std@@QEAA?AV?$_Tree_iterator@V?$_Tree_val@U?$_Tree_simple_types@U?$pair@$$CBH_N@std@@@std@@@std@@@1@V?$_Tree_const_iterator@V?$_Tree_val@U?$_Tree_simple_types@U?$pair@$$CBH_N@std@@@std@@@std@@@1@AEBUpiecewise_construct_t@1@$$QEAV?$tuple@AEBH@1@$$QEAV?$tuple@$$V@1@@Z 00000001800076c0 f i game.obj
 0001:00006760       ??$forward_as_tuple@$$V@std@@YA?AV?$tuple@$$V@0@XZ 0000000180007760 f i game.obj
 0001:00006780       ??$forward_as_tuple@AEBH@std@@YA?AV?$tuple@AEBH@0@AEBH@Z 0000000180007780 f i game.obj
 0001:000067c0       ??$get@$0A@AEBH@std@@YAAEBH$$QEAV?$tuple@AEBH@0@@Z 00000001800077c0 f i game.obj
 0001:000067e0       ??$inverse@M$0A@Utmat4x4@glm@@@glm@@YA?AU?$tmat4x4@M$0A@@0@AEBU10@@Z 00000001800077e0 f i game.obj
 0001:00006810       ??$inversesqrt@M@glm@@YAMM@Z 0000000180007810 f i game.obj
 0001:00006840       ??$normalize@M$0A@Utvec2@glm@@@glm@@YA?AU?$tvec2@M$0A@@0@AEBU10@@Z 0000000180007840 f i game.obj
 0001:00006870       ??$ortho@M@glm@@YA?AU?$tmat4x4@M$0A@@0@MMMMMM@Z 0000000180007870 f i game.obj
 0001:000068e0       ??$orthoRH@M@glm@@YA?AU?$tmat4x4@M$0A@@0@MMMMMM@Z 00000001800078e0 f i game.obj
 0001:00006b60       ??$translate@M$0A@@glm@@YA?AU?$tmat4x4@M$0A@@0@AEBU10@AEBU?$tvec3@M$0A@@0@@Z 0000000180007b60 f i game.obj
 0001:00006d30       ??$try_emplace@$$V@?$map@HIU?$less@H@std@@V?$allocator@U?$pair@$$CBHI@std@@@2@@std@@QEAA?AU?$pair@V?$_Tree_iterator@V?$_Tree_val@U?$_Tree_simple_types@U?$pair@$$CBHI@std@@@std@@@std@@@std@@_N@1@AEBH@Z 0000000180007d30 f i game.obj
 0001:00006d70       ??$try_emplace@$$V@?$map@H_NU?$less@H@std@@V?$allocator@U?$pair@$$CBH_N@std@@@2@@std@@QEAA?AU?$pair@V?$_Tree_iterator@V?$_Tree_val@U?$_Tree_simple_types@U?$pair@$$CBH_N@std@@@std@@@std@@@std@@_N@1@AEBH@Z 0000000180007d70 f i game.obj
 0001:00006db0       ??$unProject@MM$0A@@glm@@YA?AU?$tvec3@M$0A@@0@AEBU10@AEBU?$tmat4x4@M$0A@@0@1AEBU?$tvec4@M$0A@@0@@Z 0000000180007db0 f i game.obj
 0001:00006f40       ??0?$_Tree_const_iterator@V?$_Tree_val@U?$_Tree_simple_types@U?$pair@$$CBH_N@std@@@std@@@std@@@std@@QEAA@PEAU?$_Tree_node@U?$pair@$$CBH_N@std@@PEAX@1@PEBV?$_Tree_val@U?$_Tree_simple_types@U?$pair@$$CBH_N@std@@@std@@@1@@Z 0000000180007f40 f i game.obj
 0001:00006f40       ??0?$_Tree_const_iterator@V?$_Tree_val@U?$_Tree_simple_types@U?$pair@$$CBHI@std@@@std@@@std@@@std@@QEAA@PEAU?$_Tree_node@U?$pair@$$CBHI@std@@PEAX@1@PEBV?$_Tree_val@U?$_Tree_simple_types@U?$pair@$$CBHI@std@@@std@@@1@@Z 0000000180007f40 f i game.obj
 0001:00006f80       ??0?$_Tree_const_iterator@V?$_Tree_val@U?$_Tree_simple_types@U?$pair@$$CBH_N@std@@@std@@@std@@@std@@QEAA@XZ 0000000180007f80 f i game.obj
 0001:00006f80       ??0?$_Tree_const_iterator@V?$_Tree_val@U?$_Tree_simple_types@U?$pair@$$CBHI@std@@@std@@@std@@@std@@QEAA@XZ 0000000180007f80 f i game.obj
 0001:00006fa0       ??0?$_Tree_iterator@V?$_Tree_val@U?$_Tree_simple_types@U?$pair@$$CBH_N@std@@@std@@@std@@@std@@QEAA@PEAU?$_Tree_node@U?$pair@$$CBH_N@std@@PEAX@1@PEBV?$_Tree_val@U?$_Tree_simple_types@U?$pair@$$CBH_N@std@@@std@@@1@@Z 0000000180007fa0 f i game.obj
 0001:00006fa0       ??0?$_Tree_iterator@V?$_Tree_val@U?$_Tree_simple_types@U?$pair@$$CBHI@std@@@std@@@std@@@std@@QEAA@PEAU?$_Tree_node@U?$pair@$$CBHI@std@@PEAX@1@PEBV?$_Tree_val@U?$_Tree_simple_types@U?$pair@$$CBHI@std@@@std@@@1@@Z 0000000180007fa0 f i game.obj
 0001:00006fe0       ??0?$_Tree_unchecked_const_iterator@V?$_Tree_val@U?$_Tree_simple_types@U?$pair@$$CBHI@std@@@std@@@std@@U_Iterator_base0@2@@std@@QEAA@PEAU?$_Tree_node@U?$pair@$$CBHI@std@@PEAX@1@PEBV?$_Tree_val@U?$_Tree_simple_types@U?$pair@$$CBHI@std@@@std@@@1@@Z 0000000180007fe0 f i game.obj
 0001:00006fe0       ??0?$_Tree_unchecked_const_iterator@V?$_Tree_val@U?$_Tree_simple_types@U?$pair@$$CBH_N@std@@@std@@@std@@U_Iterator_base0@2@@std@@QEAA@PEAU?$_Tree_node@U?$pair@$$CBH_N@std@@PEAX@1@PEBV?$_Tree_val@U?$_Tree_simple_types@U?$pair@$$CBH_N@std@@@std@@@1@@Z 0000000180007fe0 f i game.obj
 0001:00007020       ??0?$_Tree_unchecked_const_iterator@V?$_Tree_val@U?$_Tree_simple_types@U?$pair@$$CBH_N@std@@@std@@@std@@U_Iterator_base0@2@@std@@QEAA@XZ 0000000180008020 f i game.obj
 0001:00007020       ??0?$_Tree_unchecked_const_iterator@V?$_Tree_val@U?$_Tree_simple_types@U?$pair@$$CBHI@std@@@std@@@std@@U_Iterator_base0@2@@std@@QEAA@XZ 0000000180008020 f i game.obj
 0001:00007040       ??0?$tmat4x4@M$0A@@glm@@QEAA@AEBM@Z 0000000180008040 f i game.obj
 0001:00007190       ??0?$tmat4x4@M$0A@@glm@@QEAA@AEBU?$tvec4@M$0A@@1@000@Z 0000000180008190 f i game.obj
 0001:00007250       ??0?$tmat4x4@M$0A@@glm@@QEAA@W4ctor@1@@Z 0000000180008250 f i game.obj
 0001:00007290       ??0?$tuple@$$V@std@@QEAA@AEBV01@@Z 0000000180008290 f i game.obj
 0001:000072a0       ??0?$tuple@AEBH@std@@QEAA@$$QEAV01@@Z 00000001800082a0 f i game.obj
 0001:000072e0       ??0?$tvec2@M$0A@@glm@@QEAA@MM@Z 00000001800082e0 f i game.obj
 0001:00007320       ??0?$tvec4@M$0A@@glm@@QEAA@M@Z 0000000180008320 f i game.obj
 0001:00007370       ??0?$tvec4@M$0A@@glm@@QEAA@MMMM@Z 0000000180008370 f i game.obj
 0001:000073d0       ??0?$tvec4@M$0A@@glm@@QEAA@XZ 00000001800083d0 f i game.obj
 0001:00007410       ??2@YAPEAX_KPEAX@Z         0000000180008410 f i game.obj
 0001:00007420       ??8?$_Tree_const_iterator@V?$_Tree_val@U?$_Tree_simple_types@U?$pair@$$CBHI@std@@@std@@@std@@@std@@QEBA_NAEBV01@@Z 0000000180008420 f i game.obj
 0001:00007420       ??8?$_Tree_const_iterator@V?$_Tree_val@U?$_Tree_simple_types@U?$pair@$$CBH_N@std@@@std@@@std@@@std@@QEBA_NAEBV01@@Z 0000000180008420 f i game.obj
 0001:00007460       ??A?$map@HIU?$less@H@std@@V?$allocator@U?$pair@$$CBHI@std@@@2@@std@@QEAAAEAIAEBH@Z 0000000180008460 f i game.obj
 0001:000074a0       ??A?$map@H_NU?$less@H@std@@V?$allocator@U?$pair@$$CBH_N@std@@@2@@std@@QEAAAEA_NAEBH@Z 00000001800084a0 f i game.obj
 0001:000074e0       ??A?$tmat4x4@M$0A@@glm@@QEAAAEAU?$tvec4@M$0A@@1@H@Z 00000001800084e0 f i game.obj
 0001:00007530       ??A?$tmat4x4@M$0A@@glm@@QEBAAEBU?$tvec4@M$0A@@1@H@Z 0000000180008530 f i game.obj
 0001:00007580       ??A?$tvec3@M$0A@@glm@@QEBAAEBMH@Z 0000000180008580 f i game.obj
 0001:000075d0       ??A?$tvec4@M$0A@@glm@@QEAAAEAMH@Z 00000001800085d0 f i game.obj
 0001:00007620       ??A?$tvec4@M$0A@@glm@@QEBAAEBMH@Z 0000000180008620 f i game.obj
 0001:00007670       ??C?$_Tree_iterator@V?$_Tree_val@U?$_Tree_simple_types@U?$pair@$$CBH_N@std@@@std@@@std@@@std@@QEBAPEAU?$pair@$$CBH_N@1@XZ 0000000180008670 f i game.obj
 0001:00007670       ??C?$_Tree_iterator@V?$_Tree_val@U?$_Tree_simple_types@U?$pair@$$CBHI@std@@@std@@@std@@@std@@QEBAPEAU?$pair@$$CBHI@1@XZ 0000000180008670 f i game.obj
 0001:00007690       ??D?$_Tree_const_iterator@V?$_Tree_val@U?$_Tree_simple_types@U?$pair@$$CBHI@std@@@std@@@std@@@std@@QEBAAEBU?$pair@$$CBHI@1@XZ 0000000180008690 f i game.obj
 0001:00007690       ??D?$_Tree_const_iterator@V?$_Tree_val@U?$_Tree_simple_types@U?$pair@$$CBH_N@std@@@std@@@std@@@std@@QEBAAEBU?$pair@$$CBH_N@1@XZ 0000000180008690 f i game.obj
 0001:000076b0       ??D?$_Tree_iterator@V?$_Tree_val@U?$_Tree_simple_types@U?$pair@$$CBH_N@std@@@std@@@std@@@std@@QEBAAEAU?$pair@$$CBH_N@1@XZ 00000001800086b0 f i game.obj
 0001:000076b0       ??D?$_Tree_iterator@V?$_Tree_val@U?$_Tree_simple_types@U?$pair@$$CBHI@std@@@std@@@std@@@std@@QEBAAEAU?$pair@$$CBHI@1@XZ 00000001800086b0 f i game.obj
 0001:000076d0       ??E?$_Tree_const_iterator@V?$_Tree_val@U?$_Tree_simple_types@U?$pair@$$CBH_N@std@@@std@@@std@@@std@@QEAAAEAV01@XZ 00000001800086d0 f i game.obj
 0001:000076d0       ??E?$_Tree_const_iterator@V?$_Tree_val@U?$_Tree_simple_types@U?$pair@$$CBHI@std@@@std@@@std@@@std@@QEAAAEAV01@XZ 00000001800086d0 f i game.obj
 0001:000076f0       ??E?$_Tree_unchecked_const_iterator@V?$_Tree_val@U?$_Tree_simple_types@U?$pair@$$CBH_N@std@@@std@@@std@@U_Iterator_base0@2@@std@@QEAAAEAV01@XZ 00000001800086f0 f i game.obj
 0001:000076f0       ??E?$_Tree_unchecked_const_iterator@V?$_Tree_val@U?$_Tree_simple_types@U?$pair@$$CBHI@std@@@std@@@std@@U_Iterator_base0@2@@std@@QEAAAEAV01@XZ 00000001800086f0 f i game.obj
 0001:000077b0       ??F?$_Tree_const_iterator@V?$_Tree_val@U?$_Tree_simple_types@U?$pair@$$CBHI@std@@@std@@@std@@@std@@QEAAAEAV01@XZ 00000001800087b0 f i game.obj
 0001:000077b0       ??F?$_Tree_const_iterator@V?$_Tree_val@U?$_Tree_simple_types@U?$pair@$$CBH_N@std@@@std@@@std@@@std@@QEAAAEAV01@XZ 00000001800087b0 f i game.obj
 0001:000077d0       ??F?$_Tree_iterator@V?$_Tree_val@U?$_Tree_simple_types@U?$pair@$$CBHI@std@@@std@@@std@@@std@@QEAAAEAV01@XZ 00000001800087d0 f i game.obj
 0001:000077d0       ??F?$_Tree_iterator@V?$_Tree_val@U?$_Tree_simple_types@U?$pair@$$CBH_N@std@@@std@@@std@@@std@@QEAAAEAV01@XZ 00000001800087d0 f i game.obj
 0001:000077f0       ??F?$_Tree_unchecked_const_iterator@V?$_Tree_val@U?$_Tree_simple_types@U?$pair@$$CBH_N@std@@@std@@@std@@U_Iterator_base0@2@@std@@QEAAAEAV01@XZ 00000001800087f0 f i game.obj
 0001:000077f0       ??F?$_Tree_unchecked_const_iterator@V?$_Tree_val@U?$_Tree_simple_types@U?$pair@$$CBHI@std@@@std@@@std@@U_Iterator_base0@2@@std@@QEAAAEAV01@XZ 00000001800087f0 f i game.obj
 0001:000078e0       ??R?$less@H@std@@QEBA_NAEBH0@Z 00000001800088e0 f i game.obj
 0001:00007920       ??_H@YAXPEAX_K1P6APEAX0@Z@Z 0000000180008920 f i game.obj
 0001:00007980       ?_Allocate@std@@YAPEAX_K0_N@Z 0000000180008980 f i game.obj
 0001:00007a80       ?_Buynode0@?$_Tree_comp_alloc@V?$_Tmap_traits@HIU?$less@H@std@@V?$allocator@U?$pair@$$CBHI@std@@@2@$0A@@std@@@std@@QEAAPEAU?$_Tree_node@U?$pair@$$CBHI@std@@PEAX@2@XZ 0000000180008a80 f i game.obj
 0001:00007bd0       ?_Buynode0@?$_Tree_comp_alloc@V?$_Tmap_traits@H_NU?$less@H@std@@V?$allocator@U?$pair@$$CBH_N@std@@@2@$0A@@std@@@std@@QEAAPEAU?$_Tree_node@U?$pair@$$CBH_N@std@@PEAX@2@XZ 0000000180008bd0 f i game.obj
 0001:00007d20       ?_Color@?$_Tree_comp_alloc@V?$_Tmap_traits@H_NU?$less@H@std@@V?$allocator@U?$pair@$$CBH_N@std@@@2@$0A@@std@@@std@@SAAEADPEAU?$_Tree_node@U?$pair@$$CBH_N@std@@PEAX@2@@Z 0000000180008d20 f i game.obj
 0001:00007d20       ?_Color@?$_Tree_comp_alloc@V?$_Tmap_traits@HIU?$less@H@std@@V?$allocator@U?$pair@$$CBHI@std@@@2@$0A@@std@@@std@@SAAEADPEAU?$_Tree_node@U?$pair@$$CBHI@std@@PEAX@2@@Z 0000000180008d20 f i game.obj
 0001:00007d40       ?_Color@?$_Tree_val@U?$_Tree_simple_types@U?$pair@$$CBHI@std@@@std@@@std@@SAAEADPEAU?$_Tree_node@U?$pair@$$CBHI@std@@PEAX@2@@Z 0000000180008d40 f i game.obj
 0001:00007d40       ?_Color@?$_Tree_val@U?$_Tree_simple_types@U?$pair@$$CBH_N@std@@@std@@@std@@SAAEADPEAU?$_Tree_node@U?$pair@$$CBH_N@std@@PEAX@2@@Z 0000000180008d40 f i game.obj
 0001:00007d50       ?_Compare@?$_Tree@V?$_Tmap_traits@HIU?$less@H@std@@V?$allocator@U?$pair@$$CBHI@std@@@2@$0A@@std@@@std@@IEBA_NAEBH0@Z 0000000180008d50 f i game.obj
 0001:00007d50       ?_Compare@?$_Tree@V?$_Tmap_traits@H_NU?$less@H@std@@V?$allocator@U?$pair@$$CBH_N@std@@@2@$0A@@std@@@std@@IEBA_NAEBH0@Z 0000000180008d50 f i game.obj
 0001:00007d90       ?_Deallocate@std@@YAXPEAX_K1@Z 0000000180008d90 f i game.obj
 0001:00007e80       ?_Destroy_if_not_nil@?$_Tree@V?$_Tmap_traits@H_NU?$less@H@std@@V?$allocator@U?$pair@$$CBH_N@std@@@2@$0A@@std@@@std@@IEAAXPEAU?$_Tree_node@U?$pair@$$CBH_N@std@@PEAX@2@@Z 0000000180008e80 f i game.obj
 0001:00007e80       ?_Destroy_if_not_nil@?$_Tree@V?$_Tmap_traits@HIU?$less@H@std@@V?$allocator@U?$pair@$$CBHI@std@@@2@$0A@@std@@@std@@IEAAXPEAU?$_Tree_node@U?$pair@$$CBHI@std@@PEAX@2@@Z 0000000180008e80 f i game.obj
 0001:00007ef0       ?_Freenode0@?$_Tree_comp_alloc@V?$_Tmap_traits@H_NU?$less@H@std@@V?$allocator@U?$pair@$$CBH_N@std@@@2@$0A@@std@@@std@@QEAAXPEAU?$_Tree_node@U?$pair@$$CBH_N@std@@PEAX@2@@Z 0000000180008ef0 f i game.obj
 0001:00007ef0       ?_Freenode0@?$_Tree_comp_alloc@V?$_Tmap_traits@HIU?$less@H@std@@V?$allocator@U?$pair@$$CBHI@std@@@2@$0A@@std@@@std@@QEAAXPEAU?$_Tree_node@U?$pair@$$CBHI@std@@PEAX@2@@Z 0000000180008ef0 f i game.obj
 0001:00007fc0       ?_Get_first@?$_Compressed_pair@U?$less@H@std@@V?$_Compressed_pair@U?$_Wrap_alloc@V?$allocator@U?$_Tree_node@U?$pair@$$CBH_N@std@@PEAX@std@@@std@@@std@@V?$_Tree_val@U?$_Tree_simple_types@U?$pair@$$CBH_N@std@@@std@@@2@$00@2@$00@std@@QEBAAEBU?$less@H@2@XZ 0000000180008fc0 f i game.obj
 0001:00007fc0       ??0?$tuple@$$V@std@@QEAA@XZ 0000000180008fc0 f i game.obj
 0001:00007fc0       ??$forward@V?$_Tree_iterator@V?$_Tree_val@U?$_Tree_simple_types@U?$pair@$$CBHI@std@@@std@@@std@@@std@@@std@@YA$$QEAV?$_Tree_iterator@V?$_Tree_val@U?$_Tree_simple_types@U?$pair@$$CBHI@std@@@std@@@std@@@0@AEAV10@@Z 0000000180008fc0 f i game.obj
 0001:00007fc0       ??$forward@_N@std@@YA$$QEA_NAEA_N@Z 0000000180008fc0 f i game.obj
 0001:00007fc0       ??$forward@V?$tuple@$$V@std@@@std@@YA$$QEAV?$tuple@$$V@0@AEAV10@@Z 0000000180008fc0 f i game.obj
 0001:00007fc0       ??$forward@AEAPEAU?$_Tree_node@U?$pair@$$CBHI@std@@PEAX@std@@@std@@YAAEAPEAU?$_Tree_node@U?$pair@$$CBHI@std@@PEAX@0@AEAPEAU10@@Z 0000000180008fc0 f i game.obj
 0001:00007fc0       ?_Get_second@?$_Compressed_pair@U?$less@H@std@@V?$_Compressed_pair@U?$_Wrap_alloc@V?$allocator@U?$_Tree_node@U?$pair@$$CBH_N@std@@PEAX@std@@@std@@@std@@V?$_Tree_val@U?$_Tree_simple_types@U?$pair@$$CBH_N@std@@@std@@@2@$00@2@$00@std@@QEBAAEBV?$_Compressed_pair@U?$_Wrap_alloc@V?$allocator@U?$_Tree_node@U?$pair@$$CBH_N@std@@PEAX@std@@@std@@@std@@V?$_Tree_val@U?$_Tree_simple_types@U?$pair@$$CBH_N@std@@@std@@@2@$00@2@XZ 0000000180008fc0 f i game.obj
 0001:00007fc0       ??$forward@AEAV?$_Tree_iterator@V?$_Tree_val@U?$_Tree_simple_types@U?$pair@$$CBH_N@std@@@std@@@std@@@std@@@std@@YAAEAV?$_Tree_iterator@V?$_Tree_val@U?$_Tree_simple_types@U?$pair@$$CBH_N@std@@@std@@@std@@@0@AEAV10@@Z 0000000180008fc0 f i game.obj
 0001:00007fc0       ?_Get_first@?$_Compressed_pair@U?$less@H@std@@V?$_Compressed_pair@U?$_Wrap_alloc@V?$allocator@U?$_Tree_node@U?$pair@$$CBHI@std@@PEAX@std@@@std@@@std@@V?$_Tree_val@U?$_Tree_simple_types@U?$pair@$$CBHI@std@@@std@@@2@$00@2@$00@std@@QEBAAEBU?$less@H@2@XZ 0000000180008fc0 f i game.obj
 0001:00007fc0       ?_Get_first@?$_Compressed_pair@U?$less@H@std@@V?$_Compressed_pair@U?$_Wrap_alloc@V?$allocator@U?$_Tree_node@U?$pair@$$CBH_N@std@@PEAX@std@@@std@@@std@@V?$_Tree_val@U?$_Tree_simple_types@U?$pair@$$CBH_N@std@@@std@@@2@$00@2@$00@std@@QEAAAEAU?$less@H@2@XZ 0000000180008fc0 f i game.obj
 0001:00007fc0       ?_Get_first@?$_Compressed_pair@U?$_Wrap_alloc@V?$allocator@U?$_Tree_node@U?$pair@$$CBH_N@std@@PEAX@std@@@std@@@std@@V?$_Tree_val@U?$_Tree_simple_types@U?$pair@$$CBH_N@std@@@std@@@2@$00@std@@QEBAAEBU?$_Wrap_alloc@V?$allocator@U?$_Tree_node@U?$pair@$$CBH_N@std@@PEAX@std@@@std@@@2@XZ 0000000180008fc0 f i game.obj
 0001:00007fc0       ?_Get_first@?$_Compressed_pair@U?$_Wrap_alloc@V?$allocator@U?$_Tree_node@U?$pair@$$CBHI@std@@PEAX@std@@@std@@@std@@V?$_Tree_val@U?$_Tree_simple_types@U?$pair@$$CBHI@std@@@std@@@2@$00@std@@QEBAAEBU?$_Wrap_alloc@V?$allocator@U?$_Tree_node@U?$pair@$$CBHI@std@@PEAX@std@@@std@@@2@XZ 0000000180008fc0 f i game.obj
 0001:00007fc0       ?_Get_first@?$_Compressed_pair@U?$_Wrap_alloc@V?$allocator@U?$_Tree_node@U?$pair@$$CBH_N@std@@PEAX@std@@@std@@@std@@V?$_Tree_val@U?$_Tree_simple_types@U?$pair@$$CBH_N@std@@@std@@@2@$00@std@@QEAAAEAU?$_Wrap_alloc@V?$allocator@U?$_Tree_node@U?$pair@$$CBH_N@std@@PEAX@std@@@std@@@2@XZ 0000000180008fc0 f i game.obj
 0001:00007fc0       ?_Get_second@?$_Compressed_pair@U?$_Wrap_alloc@V?$allocator@U?$_Tree_node@U?$pair@$$CBHI@std@@PEAX@std@@@std@@@std@@V?$_Tree_val@U?$_Tree_simple_types@U?$pair@$$CBHI@std@@@std@@@2@$00@std@@QEAAAEAV?$_Tree_val@U?$_Tree_simple_types@U?$pair@$$CBHI@std@@@std@@@2@XZ 0000000180008fc0 f i game.obj
 0001:00007fc0       ?_Get_first@?$_Compressed_pair@U?$_Wrap_alloc@V?$allocator@U?$_Tree_node@U?$pair@$$CBHI@std@@PEAX@std@@@std@@@std@@V?$_Tree_val@U?$_Tree_simple_types@U?$pair@$$CBHI@std@@@std@@@2@$00@std@@QEAAAEAU?$_Wrap_alloc@V?$allocator@U?$_Tree_node@U?$pair@$$CBHI@std@@PEAX@std@@@std@@@2@XZ 0000000180008fc0 f i game.obj
 0001:00007fc0       ?_Get_second@?$_Compressed_pair@U?$_Wrap_alloc@V?$allocator@U?$_Tree_node@U?$pair@$$CBH_N@std@@PEAX@std@@@std@@@std@@V?$_Tree_val@U?$_Tree_simple_types@U?$pair@$$CBH_N@std@@@std@@@2@$00@std@@QEBAAEBV?$_Tree_val@U?$_Tree_simple_types@U?$pair@$$CBH_N@std@@@std@@@2@XZ 0000000180008fc0 f i game.obj
 0001:00007fc0       ??$addressof@U?$pair@$$CBHI@std@@@std@@YAPEAU?$pair@$$CBHI@0@AEAU10@@Z 0000000180008fc0 f i game.obj
 0001:00007fc0       ??$addressof@PEAU?$_Tree_node@U?$pair@$$CBHI@std@@PEAX@std@@@std@@YAPEAPEAU?$_Tree_node@U?$pair@$$CBHI@std@@PEAX@0@AEAPEAU10@@Z 0000000180008fc0 f i game.obj
 0001:00007fc0       ??$forward@AEAV?$_Tree_iterator@V?$_Tree_val@U?$_Tree_simple_types@U?$pair@$$CBHI@std@@@std@@@std@@@std@@@std@@YAAEAV?$_Tree_iterator@V?$_Tree_val@U?$_Tree_simple_types@U?$pair@$$CBHI@std@@@std@@@std@@@0@AEAV10@@Z 0000000180008fc0 f i game.obj
 0001:00007fc0       ?_Left@?$_Tree_val@U?$_Tree_simple_types@U?$pair@$$CBH_N@std@@@std@@@std@@SAAEAPEAU?$_Tree_node@U?$pair@$$CBH_N@std@@PEAX@2@PEAU32@@Z 0000000180008fc0 f i game.obj
 0001:00007fc0       ?_Left@?$_Tree_val@U?$_Tree_simple_types@U?$pair@$$CBHI@std@@@std@@@std@@SAAEAPEAU?$_Tree_node@U?$pair@$$CBHI@std@@PEAX@2@PEAU32@@Z 0000000180008fc0 f i game.obj
 0001:00007fc0       ??$forward@V?$tuple@AEBH@std@@@std@@YA$$QEAV?$tuple@AEBH@0@AEAV10@@Z 0000000180008fc0 f i game.obj
 0001:00007fc0       ??$forward@AEBUpiecewise_construct_t@std@@@std@@YAAEBUpiecewise_construct_t@0@AEBU10@@Z 0000000180008fc0 f i game.obj
 0001:00007fc0       ??$forward@AEBH@std@@YAAEBHAEBH@Z 0000000180008fc0 f i game.obj
 0001:00007fc0       ??$forward@AEAPEAU?$_Tree_node@U?$pair@$$CBH_N@std@@PEAX@std@@@std@@YAAEAPEAU?$_Tree_node@U?$pair@$$CBH_N@std@@PEAX@0@AEAPEAU10@@Z 0000000180008fc0 f i game.obj
 0001:00007fc0       ??$_Kfn@$$CBHI@?$_Tmap_traits@HIU?$less@H@std@@V?$allocator@U?$pair@$$CBHI@std@@@2@$0A@@std@@SAAEBHAEBU?$pair@$$CBHI@1@@Z 0000000180008fc0 f i game.obj
 0001:00007fc0       ?_Get_second@?$_Compressed_pair@U?$less@H@std@@V?$_Compressed_pair@U?$_Wrap_alloc@V?$allocator@U?$_Tree_node@U?$pair@$$CBHI@std@@PEAX@std@@@std@@@std@@V?$_Tree_val@U?$_Tree_simple_types@U?$pair@$$CBHI@std@@@std@@@2@$00@2@$00@std@@QEAAAEAV?$_Compressed_pair@U?$_Wrap_alloc@V?$allocator@U?$_Tree_node@U?$pair@$$CBHI@std@@PEAX@std@@@std@@@std@@V?$_Tree_val@U?$_Tree_simple_types@U?$pair@$$CBHI@std@@@std@@@2@$00@2@XZ 0000000180008fc0 f i game.obj
 0001:00007fc0       ?_Get_second@?$_Compressed_pair@U?$less@H@std@@V?$_Compressed_pair@U?$_Wrap_alloc@V?$allocator@U?$_Tree_node@U?$pair@$$CBH_N@std@@PEAX@std@@@std@@@std@@V?$_Tree_val@U?$_Tree_simple_types@U?$pair@$$CBH_N@std@@@std@@@2@$00@2@$00@std@@QEAAAEAV?$_Compressed_pair@U?$_Wrap_alloc@V?$allocator@U?$_Tree_node@U?$pair@$$CBH_N@std@@PEAX@std@@@std@@@std@@V?$_Tree_val@U?$_Tree_simple_types@U?$pair@$$CBH_N@std@@@std@@@2@$00@2@XZ 0000000180008fc0 f i game.obj
 0001:00007fc0       ?_Get_first@?$_Compressed_pair@U?$less@H@std@@V?$_Compressed_pair@U?$_Wrap_alloc@V?$allocator@U?$_Tree_node@U?$pair@$$CBHI@std@@PEAX@std@@@std@@@std@@V?$_Tree_val@U?$_Tree_simple_types@U?$pair@$$CBHI@std@@@std@@@2@$00@2@$00@std@@QEAAAEAU?$less@H@2@XZ 0000000180008fc0 f i game.obj
 0001:00007fc0       ??$move@AEAV?$tuple@AEBH@std@@@std@@YA$$QEAV?$tuple@AEBH@0@AEAV10@@Z 0000000180008fc0 f i game.obj
 0001:00007fc0       ??$forward@AEAU?$pair@$$CBHI@std@@@std@@YAAEAU?$pair@$$CBHI@0@AEAU10@@Z 0000000180008fc0 f i game.obj
 0001:00007fc0       ??$_Kfn@$$CBH_N@?$_Tmap_traits@H_NU?$less@H@std@@V?$allocator@U?$pair@$$CBH_N@std@@@2@$0A@@std@@SAAEBHAEBU?$pair@$$CBH_N@1@@Z 0000000180008fc0 f i game.obj
 0001:00007fc0       ??$forward@V?$_Tree_iterator@V?$_Tree_val@U?$_Tree_simple_types@U?$pair@$$CBH_N@std@@@std@@@std@@@std@@@std@@YA$$QEAV?$_Tree_iterator@V?$_Tree_val@U?$_Tree_simple_types@U?$pair@$$CBH_N@std@@@std@@@std@@@0@AEAV10@@Z 0000000180008fc0 f i game.obj
 0001:00007fc0       ??$forward@AEAU?$pair@$$CBH_N@std@@@std@@YAAEAU?$pair@$$CBH_N@0@AEAU10@@Z 0000000180008fc0 f i game.obj
 0001:00007fc0       ?_Get_second@?$_Compressed_pair@U?$less@H@std@@V?$_Compressed_pair@U?$_Wrap_alloc@V?$allocator@U?$_Tree_node@U?$pair@$$CBHI@std@@PEAX@std@@@std@@@std@@V?$_Tree_val@U?$_Tree_simple_types@U?$pair@$$CBHI@std@@@std@@@2@$00@2@$00@std@@QEBAAEBV?$_Compressed_pair@U?$_Wrap_alloc@V?$allocator@U?$_Tree_node@U?$pair@$$CBHI@std@@PEAX@std@@@std@@@std@@V?$_Tree_val@U?$_Tree_simple_types@U?$pair@$$CBHI@std@@@std@@@2@$00@2@XZ 0000000180008fc0 f i game.obj
 0001:00007fc0       ??$addressof@U?$pair@$$CBH_N@std@@@std@@YAPEAU?$pair@$$CBH_N@0@AEAU10@@Z 0000000180008fc0 f i game.obj
 0001:00007fc0       ?_Get_second@?$_Compressed_pair@U?$_Wrap_alloc@V?$allocator@U?$_Tree_node@U?$pair@$$CBHI@std@@PEAX@std@@@std@@@std@@V?$_Tree_val@U?$_Tree_simple_types@U?$pair@$$CBHI@std@@@std@@@2@$00@std@@QEBAAEBV?$_Tree_val@U?$_Tree_simple_types@U?$pair@$$CBHI@std@@@std@@@2@XZ 0000000180008fc0 f i game.obj
 0001:00007fc0       ?_Get_second@?$_Compressed_pair@U?$_Wrap_alloc@V?$allocator@U?$_Tree_node@U?$pair@$$CBH_N@std@@PEAX@std@@@std@@@std@@V?$_Tree_val@U?$_Tree_simple_types@U?$pair@$$CBH_N@std@@@std@@@2@$00@std@@QEAAAEAV?$_Tree_val@U?$_Tree_simple_types@U?$pair@$$CBH_N@std@@@std@@@2@XZ 0000000180008fc0 f i game.obj
 0001:00007fc0       ??$addressof@PEAU?$_Tree_node@U?$pair@$$CBH_N@std@@PEAX@std@@@std@@YAPEAPEAU?$_Tree_node@U?$pair@$$CBH_N@std@@PEAX@0@AEAPEAU10@@Z 0000000180008fc0 f i game.obj
 0001:00007fd0       ?_Get_data@?$_Tree_comp_alloc@V?$_Tmap_traits@H_NU?$less@H@std@@V?$allocator@U?$pair@$$CBH_N@std@@@2@$0A@@std@@@std@@QEBAAEBV?$_Tree_val@U?$_Tree_simple_types@U?$pair@$$CBH_N@std@@@std@@@2@XZ 0000000180008fd0 f i game.obj
 0001:00007fd0       ?_Get_data@?$_Tree_comp_alloc@V?$_Tmap_traits@HIU?$less@H@std@@V?$allocator@U?$pair@$$CBHI@std@@@2@$0A@@std@@@std@@QEAAAEAV?$_Tree_val@U?$_Tree_simple_types@U?$pair@$$CBHI@std@@@std@@@2@XZ 0000000180008fd0 f i game.obj
 0001:00007fd0       ?_Getal@?$_Tree_comp_alloc@V?$_Tmap_traits@HIU?$less@H@std@@V?$allocator@U?$pair@$$CBHI@std@@@2@$0A@@std@@@std@@QEAAAEAU?$_Wrap_alloc@V?$allocator@U?$_Tree_node@U?$pair@$$CBHI@std@@PEAX@std@@@std@@@2@XZ 0000000180008fd0 f i game.obj
 0001:00007fd0       ?_Getal@?$_Tree_comp_alloc@V?$_Tmap_traits@H_NU?$less@H@std@@V?$allocator@U?$pair@$$CBH_N@std@@@2@$0A@@std@@@std@@QEAAAEAU?$_Wrap_alloc@V?$allocator@U?$_Tree_node@U?$pair@$$CBH_N@std@@PEAX@std@@@std@@@2@XZ 0000000180008fd0 f i game.obj
 0001:00007fd0       ?_Getal@?$_Tree_comp_alloc@V?$_Tmap_traits@H_NU?$less@H@std@@V?$allocator@U?$pair@$$CBH_N@std@@@2@$0A@@std@@@std@@QEBAAEBU?$_Wrap_alloc@V?$allocator@U?$_Tree_node@U?$pair@$$CBH_N@std@@PEAX@std@@@std@@@2@XZ 0000000180008fd0 f i game.obj
 0001:00007fd0       ?_Get_data@?$_Tree_comp_alloc@V?$_Tmap_traits@H_NU?$less@H@std@@V?$allocator@U?$pair@$$CBH_N@std@@@2@$0A@@std@@@std@@QEAAAEAV?$_Tree_val@U?$_Tree_simple_types@U?$pair@$$CBH_N@std@@@std@@@2@XZ 0000000180008fd0 f i game.obj
 0001:00007fd0       ?_Getal@?$_Tree_comp_alloc@V?$_Tmap_traits@HIU?$less@H@std@@V?$allocator@U?$pair@$$CBHI@std@@@2@$0A@@std@@@std@@QEBAAEBU?$_Wrap_alloc@V?$allocator@U?$_Tree_node@U?$pair@$$CBHI@std@@PEAX@std@@@std@@@2@XZ 0000000180008fd0 f i game.obj
 0001:00007fd0       ?_Get_data@?$_Tree_comp_alloc@V?$_Tmap_traits@HIU?$less@H@std@@V?$allocator@U?$pair@$$CBHI@std@@@2@$0A@@std@@@std@@QEBAAEBV?$_Tree_val@U?$_Tree_simple_types@U?$pair@$$CBHI@std@@@std@@@2@XZ 0000000180008fd0 f i game.obj
 0001:00008000       ?_Getcomp@?$_Tree_comp_alloc@V?$_Tmap_traits@H_NU?$less@H@std@@V?$allocator@U?$pair@$$CBH_N@std@@@2@$0A@@std@@@std@@QEAAAEAU?$less@H@2@XZ 0000000180009000 f i game.obj
 0001:00008000       ?_Getcomp@?$_Tree_comp_alloc@V?$_Tmap_traits@HIU?$less@H@std@@V?$allocator@U?$pair@$$CBHI@std@@@2@$0A@@std@@@std@@QEAAAEAU?$less@H@2@XZ 0000000180009000 f i game.obj
 0001:00008000       ?_Getcomp@?$_Tree_comp_alloc@V?$_Tmap_traits@H_NU?$less@H@std@@V?$allocator@U?$pair@$$CBH_N@std@@@2@$0A@@std@@@std@@QEBAAEBU?$less@H@2@XZ 0000000180009000 f i game.obj
 0001:00008000       ?_Getcomp@?$_Tree_comp_alloc@V?$_Tmap_traits@HIU?$less@H@std@@V?$allocator@U?$pair@$$CBHI@std@@@2@$0A@@std@@@std@@QEBAAEBU?$less@H@2@XZ 0000000180009000 f i game.obj
 0001:00008020       ?_Isnil@?$_Tree_comp_alloc@V?$_Tmap_traits@HIU?$less@H@std@@V?$allocator@U?$pair@$$CBHI@std@@@2@$0A@@std@@@std@@SAAEADPEAU?$_Tree_node@U?$pair@$$CBHI@std@@PEAX@2@@Z 0000000180009020 f i game.obj
 0001:00008020       ?_Isnil@?$_Tree_comp_alloc@V?$_Tmap_traits@H_NU?$less@H@std@@V?$allocator@U?$pair@$$CBH_N@std@@@2@$0A@@std@@@std@@SAAEADPEAU?$_Tree_node@U?$pair@$$CBH_N@std@@PEAX@2@@Z 0000000180009020 f i game.obj
 0001:00008040       ?_Isnil@?$_Tree_val@U?$_Tree_simple_types@U?$pair@$$CBH_N@std@@@std@@@std@@SAAEADPEAU?$_Tree_node@U?$pair@$$CBH_N@std@@PEAX@2@@Z 0000000180009040 f i game.obj
 0001:00008040       ?_Isnil@?$_Tree_val@U?$_Tree_simple_types@U?$pair@$$CBHI@std@@@std@@@std@@SAAEADPEAU?$_Tree_node@U?$pair@$$CBHI@std@@PEAX@2@@Z 0000000180009040 f i game.obj
 0001:00008050       ?_Key@?$_Tree@V?$_Tmap_traits@HIU?$less@H@std@@V?$allocator@U?$pair@$$CBHI@std@@@2@$0A@@std@@@std@@IEBAAEBHPEAU?$_Tree_node@U?$pair@$$CBHI@std@@PEAX@2@@Z 0000000180009050 f i game.obj
 0001:00008050       ?_Key@?$_Tree@V?$_Tmap_traits@H_NU?$less@H@std@@V?$allocator@U?$pair@$$CBH_N@std@@@2@$0A@@std@@@std@@IEBAAEBHPEAU?$_Tree_node@U?$pair@$$CBH_N@std@@PEAX@2@@Z 0000000180009050 f i game.obj
 0001:00008080       ?_Kfn@?$_Tree@V?$_Tmap_traits@HIU?$less@H@std@@V?$allocator@U?$pair@$$CBHI@std@@@2@$0A@@std@@@std@@IEBAAEBHAEBU?$pair@$$CBHI@2@@Z 0000000180009080 f i game.obj
 0001:00008080       ?_Kfn@?$_Tree@V?$_Tmap_traits@H_NU?$less@H@std@@V?$allocator@U?$pair@$$CBH_N@std@@@2@$0A@@std@@@std@@IEBAAEBHAEBU?$pair@$$CBH_N@2@@Z 0000000180009080 f i game.obj
 0001:000080a0       ?pointer_to@?$pointer_traits@PEAU?$pair@$$CBH_N@std@@@std@@SAPEAU?$pair@$$CBH_N@2@AEAU32@@Z 00000001800090a0 f i game.obj
 0001:000080a0       ?_Left@?$_Tree_comp_alloc@V?$_Tmap_traits@H_NU?$less@H@std@@V?$allocator@U?$pair@$$CBH_N@std@@@2@$0A@@std@@@std@@SAAEAPEAU?$_Tree_node@U?$pair@$$CBH_N@std@@PEAX@2@PEAU32@@Z 00000001800090a0 f i game.obj
 0001:000080a0       ?pointer_to@?$pointer_traits@PEAU?$pair@$$CBHI@std@@@std@@SAPEAU?$pair@$$CBHI@2@AEAU32@@Z 00000001800090a0 f i game.obj
 0001:000080a0       ?_Left@?$_Tree_comp_alloc@V?$_Tmap_traits@HIU?$less@H@std@@V?$allocator@U?$pair@$$CBHI@std@@@2@$0A@@std@@@std@@SAAEAPEAU?$_Tree_node@U?$pair@$$CBHI@std@@PEAX@2@PEAU32@@Z 00000001800090a0 f i game.obj
 0001:000080c0       ?_Lmost@?$_Tree@V?$_Tmap_traits@HIU?$less@H@std@@V?$allocator@U?$pair@$$CBHI@std@@@2@$0A@@std@@@std@@IEBAAEAPEAU?$_Tree_node@U?$pair@$$CBHI@std@@PEAX@2@XZ 00000001800090c0 f i game.obj
 0001:000080c0       ?_Lmost@?$_Tree@V?$_Tmap_traits@H_NU?$less@H@std@@V?$allocator@U?$pair@$$CBH_N@std@@@2@$0A@@std@@@std@@IEBAAEAPEAU?$_Tree_node@U?$pair@$$CBH_N@std@@PEAX@2@XZ 00000001800090c0 f i game.obj
 0001:000080e0       ?_Lrotate@?$_Tree@V?$_Tmap_traits@H_NU?$less@H@std@@V?$allocator@U?$pair@$$CBH_N@std@@@2@$0A@@std@@@std@@IEAAXPEAU?$_Tree_node@U?$pair@$$CBH_N@std@@PEAX@2@@Z 00000001800090e0 f i game.obj
 0001:000080e0       ?_Lrotate@?$_Tree@V?$_Tmap_traits@HIU?$less@H@std@@V?$allocator@U?$pair@$$CBHI@std@@@2@$0A@@std@@@std@@IEAAXPEAU?$_Tree_node@U?$pair@$$CBHI@std@@PEAX@2@@Z 00000001800090e0 f i game.obj
 0001:00008220       ?_Max@?$_Tree_val@U?$_Tree_simple_types@U?$pair@$$CBH_N@std@@@std@@@std@@SAPEAU?$_Tree_node@U?$pair@$$CBH_N@std@@PEAX@2@PEAU32@@Z 0000000180009220 f i game.obj
 0001:00008220       ?_Max@?$_Tree_val@U?$_Tree_simple_types@U?$pair@$$CBHI@std@@@std@@@std@@SAPEAU?$_Tree_node@U?$pair@$$CBHI@std@@PEAX@2@PEAU32@@Z 0000000180009220 f i game.obj
 0001:00008260       ?_Min@?$_Tree_val@U?$_Tree_simple_types@U?$pair@$$CBH_N@std@@@std@@@std@@SAPEAU?$_Tree_node@U?$pair@$$CBH_N@std@@PEAX@2@PEAU32@@Z 0000000180009260 f i game.obj
 0001:00008260       ?_Min@?$_Tree_val@U?$_Tree_simple_types@U?$pair@$$CBHI@std@@@std@@@std@@SAPEAU?$_Tree_node@U?$pair@$$CBHI@std@@PEAX@2@PEAU32@@Z 0000000180009260 f i game.obj
 0001:000082a0       ?_Myhead@?$_Tree_comp_alloc@V?$_Tmap_traits@H_NU?$less@H@std@@V?$allocator@U?$pair@$$CBH_N@std@@@2@$0A@@std@@@std@@QEBAAEBQEAU?$_Tree_node@U?$pair@$$CBH_N@std@@PEAX@2@XZ 00000001800092a0 f i game.obj
 0001:000082a0       ?_Myhead@?$_Tree_comp_alloc@V?$_Tmap_traits@HIU?$less@H@std@@V?$allocator@U?$pair@$$CBHI@std@@@2@$0A@@std@@@std@@QEBAAEBQEAU?$_Tree_node@U?$pair@$$CBHI@std@@PEAX@2@XZ 00000001800092a0 f i game.obj
 0001:000082a0       ?_Myhead@?$_Tree_comp_alloc@V?$_Tmap_traits@HIU?$less@H@std@@V?$allocator@U?$pair@$$CBHI@std@@@2@$0A@@std@@@std@@QEAAAEAPEAU?$_Tree_node@U?$pair@$$CBHI@std@@PEAX@2@XZ 00000001800092a0 f i game.obj
 0001:000082a0       ?_Myhead@?$_Tree_comp_alloc@V?$_Tmap_traits@H_NU?$less@H@std@@V?$allocator@U?$pair@$$CBH_N@std@@@2@$0A@@std@@@std@@QEAAAEAPEAU?$_Tree_node@U?$pair@$$CBH_N@std@@PEAX@2@XZ 00000001800092a0 f i game.obj
 0001:000082c0       ?_Mynode@?$_Tree_unchecked_const_iterator@V?$_Tree_val@U?$_Tree_simple_types@U?$pair@$$CBHI@std@@@std@@@std@@U_Iterator_base0@2@@std@@QEBAPEAU?$_Tree_node@U?$pair@$$CBHI@std@@PEAX@2@XZ 00000001800092c0 f i game.obj
 0001:000082c0       ?_Mynode@?$_Tree_unchecked_const_iterator@V?$_Tree_val@U?$_Tree_simple_types@U?$pair@$$CBH_N@std@@@std@@@std@@U_Iterator_base0@2@@std@@QEBAPEAU?$_Tree_node@U?$pair@$$CBH_N@std@@PEAX@2@XZ 00000001800092c0 f i game.obj
 0001:000082d0       ?_Mysize@?$_Tree_comp_alloc@V?$_Tmap_traits@H_NU?$less@H@std@@V?$allocator@U?$pair@$$CBH_N@std@@@2@$0A@@std@@@std@@QEAAAEA_KXZ 00000001800092d0 f i game.obj
 0001:000082d0       ?_Mysize@?$_Tree_comp_alloc@V?$_Tmap_traits@H_NU?$less@H@std@@V?$allocator@U?$pair@$$CBH_N@std@@@2@$0A@@std@@@std@@QEBAAEB_KXZ 00000001800092d0 f i game.obj
 0001:000082d0       ?_Mysize@?$_Tree_comp_alloc@V?$_Tmap_traits@HIU?$less@H@std@@V?$allocator@U?$pair@$$CBHI@std@@@2@$0A@@std@@@std@@QEBAAEB_KXZ 00000001800092d0 f i game.obj
 0001:000082d0       ?_Mysize@?$_Tree_comp_alloc@V?$_Tmap_traits@HIU?$less@H@std@@V?$allocator@U?$pair@$$CBHI@std@@@2@$0A@@std@@@std@@QEAAAEA_KXZ 00000001800092d0 f i game.obj
 0001:000082f0       ?_Myval@?$_Tree_comp_alloc@V?$_Tmap_traits@H_NU?$less@H@std@@V?$allocator@U?$pair@$$CBH_N@std@@@2@$0A@@std@@@std@@SAAEAU?$pair@$$CBH_N@2@PEAU?$_Tree_node@U?$pair@$$CBH_N@std@@PEAX@2@@Z 00000001800092f0 f i game.obj
 0001:000082f0       ?_Myval@?$_Tree_comp_alloc@V?$_Tmap_traits@HIU?$less@H@std@@V?$allocator@U?$pair@$$CBHI@std@@@2@$0A@@std@@@std@@SAAEAU?$pair@$$CBHI@2@PEAU?$_Tree_node@U?$pair@$$CBHI@std@@PEAX@2@@Z 00000001800092f0 f i game.obj
 0001:00008310       ?_Myval@?$_Tree_val@U?$_Tree_simple_types@U?$pair@$$CBH_N@std@@@std@@@std@@SAAEAU?$pair@$$CBH_N@2@PEAU?$_Tree_node@U?$pair@$$CBH_N@std@@PEAX@2@@Z 0000000180009310 f i game.obj
 0001:00008310       ?_Myval@?$_Tree_val@U?$_Tree_simple_types@U?$pair@$$CBHI@std@@@std@@@std@@SAAEAU?$pair@$$CBHI@2@PEAU?$_Tree_node@U?$pair@$$CBHI@std@@PEAX@2@@Z 0000000180009310 f i game.obj
 0001:00008320       ?_Parent@?$_Tree_comp_alloc@V?$_Tmap_traits@HIU?$less@H@std@@V?$allocator@U?$pair@$$CBHI@std@@@2@$0A@@std@@@std@@SAAEAPEAU?$_Tree_node@U?$pair@$$CBHI@std@@PEAX@2@PEAU32@@Z 0000000180009320 f i game.obj
 0001:00008320       ?_Parent@?$_Tree_comp_alloc@V?$_Tmap_traits@H_NU?$less@H@std@@V?$allocator@U?$pair@$$CBH_N@std@@@2@$0A@@std@@@std@@SAAEAPEAU?$_Tree_node@U?$pair@$$CBH_N@std@@PEAX@2@PEAU32@@Z 0000000180009320 f i game.obj
 0001:00008340       ?_Parent@?$_Tree_val@U?$_Tree_simple_types@U?$pair@$$CBHI@std@@@std@@@std@@SAAEAPEAU?$_Tree_node@U?$pair@$$CBHI@std@@PEAX@2@PEAU32@@Z 0000000180009340 f i game.obj
 0001:00008340       ?_Parent@?$_Tree_val@U?$_Tree_simple_types@U?$pair@$$CBH_N@std@@@std@@@std@@SAAEAPEAU?$_Tree_node@U?$pair@$$CBH_N@std@@PEAX@2@PEAU32@@Z 0000000180009340 f i game.obj
 0001:00008350       ?_Right@?$_Tree_comp_alloc@V?$_Tmap_traits@HIU?$less@H@std@@V?$allocator@U?$pair@$$CBHI@std@@@2@$0A@@std@@@std@@SAAEAPEAU?$_Tree_node@U?$pair@$$CBHI@std@@PEAX@2@PEAU32@@Z 0000000180009350 f i game.obj
 0001:00008350       ?_Right@?$_Tree_comp_alloc@V?$_Tmap_traits@H_NU?$less@H@std@@V?$allocator@U?$pair@$$CBH_N@std@@@2@$0A@@std@@@std@@SAAEAPEAU?$_Tree_node@U?$pair@$$CBH_N@std@@PEAX@2@PEAU32@@Z 0000000180009350 f i game.obj
 0001:00008370       ?_Right@?$_Tree_val@U?$_Tree_simple_types@U?$pair@$$CBHI@std@@@std@@@std@@SAAEAPEAU?$_Tree_node@U?$pair@$$CBHI@std@@PEAX@2@PEAU32@@Z 0000000180009370 f i game.obj
 0001:00008370       ?_Right@?$_Tree_val@U?$_Tree_simple_types@U?$pair@$$CBH_N@std@@@std@@@std@@SAAEAPEAU?$_Tree_node@U?$pair@$$CBH_N@std@@PEAX@2@PEAU32@@Z 0000000180009370 f i game.obj
 0001:00008380       ?_Rmost@?$_Tree@V?$_Tmap_traits@HIU?$less@H@std@@V?$allocator@U?$pair@$$CBHI@std@@@2@$0A@@std@@@std@@IEBAAEAPEAU?$_Tree_node@U?$pair@$$CBHI@std@@PEAX@2@XZ 0000000180009380 f i game.obj
 0001:00008380       ?_Rmost@?$_Tree@V?$_Tmap_traits@H_NU?$less@H@std@@V?$allocator@U?$pair@$$CBH_N@std@@@2@$0A@@std@@@std@@IEBAAEAPEAU?$_Tree_node@U?$pair@$$CBH_N@std@@PEAX@2@XZ 0000000180009380 f i game.obj
 0001:000083a0       ?_Root@?$_Tree@V?$_Tmap_traits@HIU?$less@H@std@@V?$allocator@U?$pair@$$CBHI@std@@@2@$0A@@std@@@std@@IEBAAEAPEAU?$_Tree_node@U?$pair@$$CBHI@std@@PEAX@2@XZ 00000001800093a0 f i game.obj
 0001:000083a0       ?_Root@?$_Tree@V?$_Tmap_traits@H_NU?$less@H@std@@V?$allocator@U?$pair@$$CBH_N@std@@@2@$0A@@std@@@std@@IEBAAEAPEAU?$_Tree_node@U?$pair@$$CBH_N@std@@PEAX@2@XZ 00000001800093a0 f i game.obj
 0001:000083c0       ?_Rrotate@?$_Tree@V?$_Tmap_traits@HIU?$less@H@std@@V?$allocator@U?$pair@$$CBHI@std@@@2@$0A@@std@@@std@@IEAAXPEAU?$_Tree_node@U?$pair@$$CBHI@std@@PEAX@2@@Z 00000001800093c0 f i game.obj
 0001:000083c0       ?_Rrotate@?$_Tree@V?$_Tmap_traits@H_NU?$less@H@std@@V?$allocator@U?$pair@$$CBH_N@std@@@2@$0A@@std@@@std@@IEAAXPEAU?$_Tree_node@U?$pair@$$CBH_N@std@@PEAX@2@@Z 00000001800093c0 f i game.obj
 0001:00008500       ?allocate@?$_Wrap_alloc@V?$allocator@U?$_Tree_node@U?$pair@$$CBH_N@std@@PEAX@std@@@std@@@std@@QEAAPEAU?$_Tree_node@U?$pair@$$CBH_N@std@@PEAX@2@_K@Z 0000000180009500 f i game.obj
 0001:00008500       ?allocate@?$_Wrap_alloc@V?$allocator@U?$_Tree_node@U?$pair@$$CBHI@std@@PEAX@std@@@std@@@std@@QEAAPEAU?$_Tree_node@U?$pair@$$CBHI@std@@PEAX@2@_K@Z 0000000180009500 f i game.obj
 0001:00008530       ?allocate@?$allocator@U?$_Tree_node@U?$pair@$$CBHI@std@@PEAX@std@@@std@@QEAAPEAU?$_Tree_node@U?$pair@$$CBHI@std@@PEAX@2@_K@Z 0000000180009530 f i game.obj
 0001:00008530       ?allocate@?$allocator@U?$_Tree_node@U?$pair@$$CBH_N@std@@PEAX@std@@@std@@QEAAPEAU?$_Tree_node@U?$pair@$$CBH_N@std@@PEAX@2@_K@Z 0000000180009530 f i game.obj
 0001:00008560       ?atan2@@YAMMM@Z            0000000180009560 f i game.obj
 0001:00008590       ?begin@?$_Tree@V?$_Tmap_traits@HIU?$less@H@std@@V?$allocator@U?$pair@$$CBHI@std@@@2@$0A@@std@@@std@@QEAA?AV?$_Tree_iterator@V?$_Tree_val@U?$_Tree_simple_types@U?$pair@$$CBHI@std@@@std@@@std@@@2@XZ 0000000180009590 f i game.obj
 0001:000085f0       ?begin@?$_Tree@V?$_Tmap_traits@H_NU?$less@H@std@@V?$allocator@U?$pair@$$CBH_N@std@@@2@$0A@@std@@@std@@QEAA?AV?$_Tree_iterator@V?$_Tree_val@U?$_Tree_simple_types@U?$pair@$$CBH_N@std@@@std@@@std@@@2@XZ 00000001800095f0 f i game.obj
 0001:00008650       ?call@?$compute_dot@Utvec2@glm@@M$0A@$0A@@detail@glm@@SAMAEBU?$tvec2@M$0A@@3@0@Z 0000000180009650 f i game.obj
 0001:00008690       ?call@?$compute_inverse@Utmat4x4@glm@@M$0A@$0A@@detail@glm@@SA?AU?$tmat4x4@M$0A@@3@AEBU43@@Z 0000000180009690 f i game.obj
 0001:00009dc0       ?call@?$compute_normalize@M$0A@Utvec2@glm@@$0A@@detail@glm@@SA?AU?$tvec2@M$0A@@3@AEBU43@@Z 000000018000adc0 f i game.obj
 0001:00009e00       ?call@?$compute_vec4_add@M$0A@$0A@@detail@glm@@SA?AU?$tvec4@M$0A@@3@AEBU43@0@Z 000000018000ae00 f i game.obj
 0001:00009e90       ?call@?$compute_vec4_div@M$0A@$0A@@detail@glm@@SA?AU?$tvec4@M$0A@@3@AEBU43@0@Z 000000018000ae90 f i game.obj
 0001:00009f20       ?call@?$compute_vec4_mul@M$0A@$0A@@detail@glm@@SA?AU?$tvec4@M$0A@@3@AEBU43@0@Z 000000018000af20 f i game.obj
 0001:00009fb0       ?call@?$compute_vec4_sub@M$0A@$0A@@detail@glm@@SA?AU?$tvec4@M$0A@@3@AEBU43@0@Z 000000018000afb0 f i game.obj
 0001:0000a040       ?deallocate@?$_Wrap_alloc@V?$allocator@U?$_Tree_node@U?$pair@$$CBHI@std@@PEAX@std@@@std@@@std@@QEAAXPEAU?$_Tree_node@U?$pair@$$CBHI@std@@PEAX@2@_K@Z 000000018000b040 f i game.obj
 0001:0000a040       ?deallocate@?$_Wrap_alloc@V?$allocator@U?$_Tree_node@U?$pair@$$CBH_N@std@@PEAX@std@@@std@@@std@@QEAAXPEAU?$_Tree_node@U?$pair@$$CBH_N@std@@PEAX@2@_K@Z 000000018000b040 f i game.obj
 0001:0000a070       ?deallocate@?$allocator@U?$_Tree_node@U?$pair@$$CBHI@std@@PEAX@std@@@std@@QEAAXPEAU?$_Tree_node@U?$pair@$$CBHI@std@@PEAX@2@_K@Z 000000018000b070 f i game.obj
 0001:0000a070       ?deallocate@?$allocator@U?$_Tree_node@U?$pair@$$CBH_N@std@@PEAX@std@@@std@@QEAAXPEAU?$_Tree_node@U?$pair@$$CBH_N@std@@PEAX@2@_K@Z 000000018000b070 f i game.obj
 0001:0000a0a0       ?end@?$_Tree@V?$_Tmap_traits@HIU?$less@H@std@@V?$allocator@U?$pair@$$CBHI@std@@@2@$0A@@std@@@std@@QEAA?AV?$_Tree_iterator@V?$_Tree_val@U?$_Tree_simple_types@U?$pair@$$CBHI@std@@@std@@@std@@@2@XZ 000000018000b0a0 f i game.obj
 0001:0000a100       ?end@?$_Tree@V?$_Tmap_traits@H_NU?$less@H@std@@V?$allocator@U?$pair@$$CBH_N@std@@@2@$0A@@std@@@std@@QEAA?AV?$_Tree_iterator@V?$_Tree_val@U?$_Tree_simple_types@U?$pair@$$CBH_N@std@@@std@@@std@@@2@XZ 000000018000b100 f i game.obj
 0001:0000a160       ?length@?$tvec3@M$0A@@glm@@SAHXZ 000000018000b160 f i game.obj
 0001:0000a170       ?length@?$tvec4@M$0A@@glm@@SAHXZ 000000018000b170 f i game.obj
 0001:0000a170       ?length@?$tmat4x4@M$0A@@glm@@SAHXZ 000000018000b170 f i game.obj
 0001:0000a180       ?lower_bound@?$_Tree@V?$_Tmap_traits@H_NU?$less@H@std@@V?$allocator@U?$pair@$$CBH_N@std@@@2@$0A@@std@@@std@@QEAA?AV?$_Tree_iterator@V?$_Tree_val@U?$_Tree_simple_types@U?$pair@$$CBH_N@std@@@std@@@std@@@2@AEBH@Z 000000018000b180 f i game.obj
 0001:0000a180       ?lower_bound@?$_Tree@V?$_Tmap_traits@HIU?$less@H@std@@V?$allocator@U?$pair@$$CBHI@std@@@2@$0A@@std@@@std@@QEAA?AV?$_Tree_iterator@V?$_Tree_val@U?$_Tree_simple_types@U?$pair@$$CBHI@std@@@std@@@std@@@2@AEBH@Z 000000018000b180 f i game.obj
 0001:0000a1d0       ?max_size@?$_Tree@V?$_Tmap_traits@H_NU?$less@H@std@@V?$allocator@U?$pair@$$CBH_N@std@@@2@$0A@@std@@@std@@QEBA_KXZ 000000018000b1d0 f i game.obj
 0001:0000a1d0       ?max_size@?$_Tree@V?$_Tmap_traits@HIU?$less@H@std@@V?$allocator@U?$pair@$$CBHI@std@@@2@$0A@@std@@@std@@QEBA_KXZ 000000018000b1d0 f i game.obj
 0001:0000a200       ?max_size@?$_Wrap_alloc@V?$allocator@U?$_Tree_node@U?$pair@$$CBHI@std@@PEAX@std@@@std@@@std@@QEBA_KU_Nil@2@@Z 000000018000b200 f i game.obj
 0001:0000a200       ?max_size@?$_Wrap_alloc@V?$allocator@U?$_Tree_node@U?$pair@$$CBH_N@std@@PEAX@std@@@std@@@std@@QEBA_KU_Nil@2@@Z 000000018000b200 f i game.obj
 0001:0000a220       ?max_size@?$allocator@U?$_Tree_node@U?$pair@$$CBH_N@std@@PEAX@std@@@std@@QEBA_KXZ 000000018000b220 f i game.obj
 0001:0000a220       ?max_size@?$allocator@U?$_Tree_node@U?$pair@$$CBHI@std@@PEAX@std@@@std@@QEBA_KXZ 000000018000b220 f i game.obj
 0001:0000a230       ?max_size@?$allocator_traits@V?$allocator@U?$_Tree_node@U?$pair@$$CBHI@std@@PEAX@std@@@std@@@std@@SA_KAEBV?$allocator@U?$_Tree_node@U?$pair@$$CBHI@std@@PEAX@std@@@2@@Z 000000018000b230 f i game.obj
 0001:0000a230       ?max_size@?$allocator_traits@V?$allocator@U?$_Tree_node@U?$pair@$$CBH_N@std@@PEAX@std@@@std@@@std@@SA_KAEBV?$allocator@U?$_Tree_node@U?$pair@$$CBH_N@std@@PEAX@std@@@2@@Z 000000018000b230 f i game.obj
 0001:0000a250       ?size@?$_Tree@V?$_Tmap_traits@H_NU?$less@H@std@@V?$allocator@U?$pair@$$CBH_N@std@@@2@$0A@@std@@@std@@QEBA_KXZ 000000018000b250 f i game.obj
 0001:0000a250       ?size@?$_Tree@V?$_Tmap_traits@HIU?$less@H@std@@V?$allocator@U?$pair@$$CBHI@std@@@2@$0A@@std@@@std@@QEBA_KXZ 000000018000b250 f i game.obj
 0001:0000a270       ?sqrt@@YAMM@Z              000000018000b270 f i game.obj
 0001:0000a290       ?strstr@@YAPEADQEADQEBD@Z  000000018000b290 f i game.obj
 0001:0000a2c0       __local_stdio_printf_options 000000018000b2c0 f i game.obj
 0001:0000a2d0       _vsnprintf_l               000000018000b2d0 f i game.obj
 0001:0000a350       _vsprintf_l                000000018000b350 f i game.obj
 0001:0000a3a0       sprintf                    000000018000b3a0 f i game.obj
 0001:0000a400       _glfwInputError            000000018000b400 f   glfw3:init.c.obj
 0001:0000a590       glfwTerminate              000000018000b590 f   glfw3:init.c.obj
 0001:0000a6a0       glfwDestroyWindow          000000018000b6a0 f   glfw3:window.c.obj
 0001:0000a730       glfwGetFramebufferSize     000000018000b730 f   glfw3:window.c.obj
 0001:0000a760       glfwGetWindowUserPointer   000000018000b760 f   glfw3:window.c.obj
 0001:0000a790       _glfwInputJoystickChange   000000018000b790 f   glfw3:input.c.obj
 0001:0000a7a0       glfwDestroyCursor          000000018000b7a0 f   glfw3:input.c.obj
 0001:0000a860       _glfwPlatformTerminate     000000018000b860 f   glfw3:win32_init.c.obj
 0001:0000a940       _glfwPlatformSetGammaRamp  000000018000b940 f   glfw3:win32_monitor.c.obj
 0001:0000ab20       _glfwRestoreVideoModeWin32 000000018000bb20 f   glfw3:win32_monitor.c.obj
 0001:0000ab60       _glfwFreeMonitors          000000018000bb60 f   glfw3:monitor.c.obj
 0001:0000ac40       _glfwInputMonitorWindowChange 000000018000bc40 f   glfw3:monitor.c.obj
 0001:0000ac50       _glfwTerminateVulkan       000000018000bc50 f   glfw3:vulkan.c.obj
 0001:0000acb0       __local_stdio_scanf_options 000000018000bcb0 f i glfw3:context.c.obj
 0001:0000acc0       glfwMakeContextCurrent     000000018000bcc0 f   glfw3:context.c.obj
 0001:0000ad50       _glfwPlatformDestroyCursor 000000018000bd50 f   glfw3:win32_window.c.obj
 0001:0000ad70       _glfwPlatformDestroyWindow 000000018000bd70 f   glfw3:win32_window.c.obj
 0001:0000ae20       _glfwPlatformGetFramebufferSize 000000018000be20 f   glfw3:win32_window.c.obj
 0001:0000ae80       _glfwPlatformSetCursor     000000018000be80 f   glfw3:win32_window.c.obj
 0001:0000aef0       _glfwUnregisterWindowClassWin32 000000018000bef0 f   glfw3:win32_window.c.obj
 0001:0000afe0       _glfwPlatformGetCurrentContext 000000018000bfe0 f   glfw3:win32_tls.c.obj
 0001:0000aff0       _glfwTerminateThreadLocalStorageWin32 000000018000bff0 f   glfw3:win32_tls.c.obj
 0001:0000b010       _glfwTerminateJoysticksWin32 000000018000c010 f   glfw3:win32_joystick.c.obj
 0001:0000b0e0       _glfwTerminateWGL          000000018000c0e0 f   glfw3:wgl_context.c.obj
 0001:0000b100       _glfwTerminateEGL          000000018000c100 f   glfw3:egl_context.c.obj
 0001:0000b144       ??2@YAPEAX_K@Z             000000018000c144 f   MSVCRT:new_scalar.obj
 0001:0000b180       ??3@YAXPEAX@Z              000000018000c180 f   MSVCRT:delete_scalar.obj
 0001:0000b188       __GSHandlerCheck           000000018000c188 f   MSVCRT:_gshandler_.obj
 0001:0000b1a8       __GSHandlerCheckCommon     000000018000c1a8 f   MSVCRT:_gshandler_.obj
 0001:0000b220       __security_check_cookie    000000018000c220 f   MSVCRT:_amdsecgs_.obj
 0001:0000b590       _DllMainCRTStartup         000000018000c590 f   MSVCRT:dll_dllmain.obj
 0001:0000b5e0       _alloca_probe              000000018000c5e0 f   MSVCRT:_chkstk_.obj
 0001:0000b5e0       __chkstk                   000000018000c5e0 f   MSVCRT:_chkstk_.obj
 0001:0000b634       ??0bad_alloc@std@@QEAA@AEBV01@@Z 000000018000c634 f i MSVCRT:throw_bad_alloc.obj
 0001:0000b674       ??0bad_alloc@std@@QEAA@XZ  000000018000c674 f i MSVCRT:throw_bad_alloc.obj
 0001:0000b694       ??0bad_array_new_length@std@@QEAA@AEBV01@@Z 000000018000c694 f i MSVCRT:throw_bad_alloc.obj
 0001:0000b6d4       ??0bad_array_new_length@std@@QEAA@XZ 000000018000c6d4 f i MSVCRT:throw_bad_alloc.obj
 0001:0000b6f4       ??0exception@std@@QEAA@AEBV01@@Z 000000018000c6f4 f i MSVCRT:throw_bad_alloc.obj
 0001:0000b72c       ??1bad_alloc@std@@UEAA@XZ  000000018000c72c f i MSVCRT:throw_bad_alloc.obj
 0001:0000b72c       ??1bad_array_new_length@std@@UEAA@XZ 000000018000c72c f i MSVCRT:throw_bad_alloc.obj
 0001:0000b740       ??_Ebad_array_new_length@std@@UEAAPEAXI@Z 000000018000c740 f i MSVCRT:throw_bad_alloc.obj
 0001:0000b740       ??_Eexception@std@@UEAAPEAXI@Z 000000018000c740 f i MSVCRT:throw_bad_alloc.obj
 0001:0000b740       ??_Gexception@std@@UEAAPEAXI@Z 000000018000c740 f i MSVCRT:throw_bad_alloc.obj
 0001:0000b740       ??_Ebad_alloc@std@@UEAAPEAXI@Z 000000018000c740 f i MSVCRT:throw_bad_alloc.obj
 0001:0000b740       ??_Gbad_array_new_length@std@@UEAAPEAXI@Z 000000018000c740 f i MSVCRT:throw_bad_alloc.obj
 0001:0000b740       ??_Gbad_alloc@std@@UEAAPEAXI@Z 000000018000c740 f i MSVCRT:throw_bad_alloc.obj
 0001:0000b784       ?__scrt_throw_std_bad_alloc@@YAXXZ 000000018000c784 f   MSVCRT:throw_bad_alloc.obj
 0001:0000b7a4       ?__scrt_throw_std_bad_array_new_length@@YAXXZ 000000018000c7a4 f   MSVCRT:throw_bad_alloc.obj
 0001:0000b7c4       ?what@exception@std@@UEBAPEBDXZ 000000018000c7c4 f i MSVCRT:throw_bad_alloc.obj
 0001:0000b7d8       __raise_securityfailure    000000018000c7d8 f   MSVCRT:gs_report.obj
 0001:0000b80c       __report_gsfailure         000000018000c80c f   MSVCRT:gs_report.obj
 0001:0000b954       __scrt_acquire_startup_lock 000000018000c954 f   MSVCRT:utility.obj
 0001:0000b990       __scrt_dllmain_after_initialize_c 000000018000c990 f   MSVCRT:utility.obj
 0001:0000b9c4       __scrt_dllmain_before_initialize_c 000000018000c9c4 f   MSVCRT:utility.obj
 0001:0000b9dc       __scrt_dllmain_crt_thread_attach 000000018000c9dc f   MSVCRT:utility.obj
 0001:0000ba04       __scrt_dllmain_crt_thread_detach 000000018000ca04 f   MSVCRT:utility.obj
 0001:0000ba1c       __scrt_dllmain_exception_filter 000000018000ca1c f   MSVCRT:utility.obj
 0001:0000ba80       __scrt_dllmain_uninitialize_c 000000018000ca80 f   MSVCRT:utility.obj
 0001:0000bab0       __scrt_dllmain_uninitialize_critical 000000018000cab0 f   MSVCRT:utility.obj
 0001:0000bac4       __scrt_initialize_crt      000000018000cac4 f   MSVCRT:utility.obj
 0001:0000bb10       __scrt_initialize_onexit_tables 000000018000cb10 f   MSVCRT:utility.obj
 0001:0000bbdc       __scrt_is_nonwritable_in_current_image 000000018000cbdc f   MSVCRT:utility.obj
 0001:0000bc78       __scrt_release_startup_lock 000000018000cc78 f   MSVCRT:utility.obj
 0001:0000bc9c       __scrt_uninitialize_crt    000000018000cc9c f   MSVCRT:utility.obj
 0001:0000bcc8       _onexit                    000000018000ccc8 f   MSVCRT:utility.obj
 0001:0000bd18       atexit                     000000018000cd18 f   MSVCRT:utility.obj
 0001:0000bd30       __security_init_cookie     000000018000cd30 f   MSVCRT:gs_support.obj
 0001:0000bddc       DllMain                    000000018000cddc f   MSVCRT:dll_dllmain_stub.obj
 0001:0000be00       ?__scrt_initialize_type_info@@YAXXZ 000000018000ce00 f   MSVCRT:tncleanup.obj
 0001:0000be10       ?__scrt_uninitialize_type_info@@YAXXZ 000000018000ce10 f   MSVCRT:tncleanup.obj
 0001:0000be1c       __scrt_initialize_default_local_stdio_options 000000018000ce1c f   MSVCRT:default_local_stdio_options.obj
 0001:0000be38       __scrt_get_dyn_tls_init_callback 000000018000ce38 f   MSVCRT:dyn_tls_init.obj
 0001:0000be40       __scrt_fastfail            000000018000ce40 f   MSVCRT:utility_desktop.obj
 0001:0000bf88       _RTC_Initialize            000000018000cf88 f   MSVCRT:_initsect_.obj
 0001:0000bfd4       _RTC_Terminate             000000018000cfd4 f   MSVCRT:_initsect_.obj
 0001:0000c020       _guard_check_icall         000000018000d020 f i MSVCRT:checkcfg.obj
 0001:0000c028       ??3@YAXPEAX_K@Z            000000018000d028 f   MSVCRT:delete_scalar_size.obj
 0001:0000c030       ??_Gtype_info@@UEAAPEAXI@Z 000000018000d030 f i MSVCRT:std_type_info_static.obj
 0001:0000c030       ??_Etype_info@@UEAAPEAXI@Z 000000018000d030 f i MSVCRT:std_type_info_static.obj
 0001:0000c05c       __isa_available_init       000000018000d05c f   MSVCRT:_cpu_disp_.obj
 0001:0000c224       _get_startup_argv_mode     000000018000d224 f   MSVCRT:argv_mode.obj
 0001:0000c22c       __scrt_is_ucrt_dll_in_use  000000018000d22c f   MSVCRT:ucrt_detection.obj
 0001:0000c238       _guard_check_icall_nop     000000018000d238 f i MSVCRT:guard_support.obj
 0001:0000c240       _CxxThrowException         000000018000d240 f   vcruntime:VCRUNTIME140.dll
 0001:0000c246       __CxxFrameHandler3         000000018000d246 f   vcruntime:VCRUNTIME140.dll
 0001:0000c24c       memset                     000000018000d24c f   vcruntime:VCRUNTIME140.dll
 0001:0000c252       __C_specific_handler       000000018000d252 f   vcruntime:VCRUNTIME140.dll
 0001:0000c258       __std_exception_copy       000000018000d258 f   vcruntime:VCRUNTIME140.dll
 0001:0000c25e       __std_exception_destroy    000000018000d25e f   vcruntime:VCRUNTIME140.dll
 0001:0000c264       __std_type_info_destroy_list 000000018000d264 f   vcruntime:VCRUNTIME140.dll
 0001:0000c26a       malloc                     000000018000d26a f   ucrt:api-ms-win-crt-heap-l1-1-0.dll
 0001:0000c270       atan2f                     000000018000d270 f   ucrt:api-ms-win-crt-math-l1-1-0.dll
 0001:0000c276       sqrtf                      000000018000d276 f   ucrt:api-ms-win-crt-math-l1-1-0.dll
 0001:0000c27c       free                       000000018000d27c f   ucrt:api-ms-win-crt-heap-l1-1-0.dll
 0001:0000c282       _callnewh                  000000018000d282 f   ucrt:api-ms-win-crt-heap-l1-1-0.dll
 0001:0000c288       _initterm                  000000018000d288 f   ucrt:api-ms-win-crt-runtime-l1-1-0.dll
 0001:0000c28e       _initterm_e                000000018000d28e f   ucrt:api-ms-win-crt-runtime-l1-1-0.dll
 0001:0000c294       _seh_filter_dll            000000018000d294 f   ucrt:api-ms-win-crt-runtime-l1-1-0.dll
 0001:0000c29a       _configure_narrow_argv     000000018000d29a f   ucrt:api-ms-win-crt-runtime-l1-1-0.dll
 0001:0000c2a0       _initialize_narrow_environment 000000018000d2a0 f   ucrt:api-ms-win-crt-runtime-l1-1-0.dll
 0001:0000c2a6       _initialize_onexit_table   000000018000d2a6 f   ucrt:api-ms-win-crt-runtime-l1-1-0.dll
 0001:0000c2ac       _register_onexit_function  000000018000d2ac f   ucrt:api-ms-win-crt-runtime-l1-1-0.dll
 0001:0000c2b2       _execute_onexit_table      000000018000d2b2 f   ucrt:api-ms-win-crt-runtime-l1-1-0.dll
 0001:0000c2b8       _crt_atexit                000000018000d2b8 f   ucrt:api-ms-win-crt-runtime-l1-1-0.dll
 0001:0000c2be       _cexit                     000000018000d2be f   ucrt:api-ms-win-crt-runtime-l1-1-0.dll
 0001:0000c2c4       IsProcessorFeaturePresent  000000018000d2c4 f   kernel32:KERNEL32.dll
 0001:0000c2cc       __vcrt_uninitialize_critical 000000018000d2cc f   MSVCRT:ucrt_stubs.obj
 0001:0000c2cc       __acrt_uninitialize_critical 000000018000d2cc f   MSVCRT:ucrt_stubs.obj
 0001:0000c2cc       __scrt_stub_for_acrt_uninitialize 000000018000d2cc f   MSVCRT:ucrt_stubs.obj
 0001:0000c2cc       __acrt_initialize          000000018000d2cc f   MSVCRT:ucrt_stubs.obj
 0001:0000c2cc       __acrt_thread_detach       000000018000d2cc f   MSVCRT:ucrt_stubs.obj
 0001:0000c2cc       __vcrt_uninitialize        000000018000d2cc f   MSVCRT:ucrt_stubs.obj
 0001:0000c2cc       __scrt_stub_for_acrt_thread_detach 000000018000d2cc f   MSVCRT:ucrt_stubs.obj
 0001:0000c2cc       __scrt_stub_for_acrt_thread_attach 000000018000d2cc f   MSVCRT:ucrt_stubs.obj
 0001:0000c2cc       __vcrt_initialize          000000018000d2cc f   MSVCRT:ucrt_stubs.obj
 0001:0000c2cc       __acrt_uninitialize        000000018000d2cc f   MSVCRT:ucrt_stubs.obj
 0001:0000c2cc       __vcrt_thread_detach       000000018000d2cc f   MSVCRT:ucrt_stubs.obj
 0001:0000c2cc       __vcrt_thread_attach       000000018000d2cc f   MSVCRT:ucrt_stubs.obj
 0001:0000c2cc       __scrt_stub_for_acrt_uninitialize_critical 000000018000d2cc f   MSVCRT:ucrt_stubs.obj
 0001:0000c2cc       __acrt_thread_attach       000000018000d2cc f   MSVCRT:ucrt_stubs.obj
 0001:0000c2cc       __scrt_stub_for_acrt_initialize 000000018000d2cc f   MSVCRT:ucrt_stubs.obj
 0001:0000c2d0       __scrt_stub_for_is_c_termination_complete 000000018000d2d0 f   MSVCRT:ucrt_stubs.obj
 0001:0000c2d0       _is_c_termination_complete 000000018000d2d0 f   MSVCRT:ucrt_stubs.obj
 0001:0000c2f0       _guard_dispatch_icall_nop  000000018000d2f0 f   MSVCRT:_guard_dispatch_.obj
 0002:00000000       __imp_DeleteDC             000000018000e000     gdi32:GDI32.dll
 0002:00000008       __imp_SetDeviceGammaRamp   000000018000e008     gdi32:GDI32.dll
 0002:00000010       __imp_CreateDCW            000000018000e010     gdi32:GDI32.dll
 0002:00000018       \177GDI32_NULL_THUNK_DATA  000000018000e018     gdi32:GDI32.dll
 0002:00000020       __imp_GetModuleHandleW     000000018000e020     kernel32:KERNEL32.dll
 0002:00000028       __imp_QueryPerformanceCounter 000000018000e028     kernel32:KERNEL32.dll
 0002:00000030       __imp_IsDebuggerPresent    000000018000e030     kernel32:KERNEL32.dll
 0002:00000038       __imp_InitializeSListHead  000000018000e038     kernel32:KERNEL32.dll
 0002:00000040       __imp_DisableThreadLibraryCalls 000000018000e040     kernel32:KERNEL32.dll
 0002:00000048       __imp_GetSystemTimeAsFileTime 000000018000e048     kernel32:KERNEL32.dll
 0002:00000050       __imp_GetCurrentThreadId   000000018000e050     kernel32:KERNEL32.dll
 0002:00000058       __imp_GetCurrentProcessId  000000018000e058     kernel32:KERNEL32.dll
 0002:00000060       __imp_IsProcessorFeaturePresent 000000018000e060     kernel32:KERNEL32.dll
 0002:00000068       __imp_TerminateProcess     000000018000e068     kernel32:KERNEL32.dll
 0002:00000070       __imp_GetCurrentProcess    000000018000e070     kernel32:KERNEL32.dll
 0002:00000078       __imp_SetUnhandledExceptionFilter 000000018000e078     kernel32:KERNEL32.dll
 0002:00000080       __imp_UnhandledExceptionFilter 000000018000e080     kernel32:KERNEL32.dll
 0002:00000088       __imp_RtlVirtualUnwind     000000018000e088     kernel32:KERNEL32.dll
 0002:00000090       __imp_RtlLookupFunctionEntry 000000018000e090     kernel32:KERNEL32.dll
 0002:00000098       __imp_RtlCaptureContext    000000018000e098     kernel32:KERNEL32.dll
 0002:000000a0       __imp_TlsFree              000000018000e0a0     kernel32:KERNEL32.dll
 0002:000000a8       __imp_TlsGetValue          000000018000e0a8     kernel32:KERNEL32.dll
 0002:000000b0       __imp_FreeLibrary          000000018000e0b0     kernel32:KERNEL32.dll
 0002:000000b8       \177KERNEL32_NULL_THUNK_DATA 000000018000e0b8     kernel32:KERNEL32.dll
 0002:000000c0       __imp_?_Xlength_error@std@@YAXPEBD@Z 000000018000e0c0     msvcprt:MSVCP140.dll
 0002:000000c8       __imp_?_Xbad_alloc@std@@YAXXZ 000000018000e0c8     msvcprt:MSVCP140.dll
 0002:000000d0       \177MSVCP140_NULL_THUNK_DATA 000000018000e0d0     msvcprt:MSVCP140.dll
 0002:000000d8       __imp_alcCloseDevice       000000018000e0d8     OpenAL32:OpenAL32.dll
 0002:000000e0       __imp_alcDestroyContext    000000018000e0e0     OpenAL32:OpenAL32.dll
 0002:000000e8       __imp_alcMakeContextCurrent 000000018000e0e8     OpenAL32:OpenAL32.dll
 0002:000000f0       \177OpenAL32_NULL_THUNK_DATA 000000018000e0f0     OpenAL32:OpenAL32.dll
 0002:000000f8       __imp_DestroyIcon          000000018000e0f8     user32:USER32.dll
 0002:00000100       __imp_LoadCursorW          000000018000e100     user32:USER32.dll
 0002:00000108       __imp_PtInRect             000000018000e108     user32:USER32.dll
 0002:00000110       __imp_WindowFromPoint      000000018000e110     user32:USER32.dll
 0002:00000118       __imp_ClientToScreen       000000018000e118     user32:USER32.dll
 0002:00000120       __imp_GetCursorPos         000000018000e120     user32:USER32.dll
 0002:00000128       __imp_SetCursor            000000018000e128     user32:USER32.dll
 0002:00000130       __imp_GetClientRect        000000018000e130     user32:USER32.dll
 0002:00000138       __imp_RemovePropW          000000018000e138     user32:USER32.dll
 0002:00000140       __imp_DestroyWindow        000000018000e140     user32:USER32.dll
 0002:00000148       __imp_SystemParametersInfoW 000000018000e148     user32:USER32.dll
 0002:00000150       __imp_ChangeDisplaySettingsExW 000000018000e150     user32:USER32.dll
 0002:00000158       __imp_UnregisterClassW     000000018000e158     user32:USER32.dll
 0002:00000160       \177USER32_NULL_THUNK_DATA 000000018000e160     user32:USER32.dll
 0002:00000168       __imp___std_exception_copy 000000018000e168     vcruntime:VCRUNTIME140.dll
 0002:00000170       __imp___std_exception_destroy 000000018000e170     vcruntime:VCRUNTIME140.dll
 0002:00000178       __imp___std_type_info_destroy_list 000000018000e178     vcruntime:VCRUNTIME140.dll
 0002:00000180       __imp_strstr               000000018000e180     vcruntime:VCRUNTIME140.dll
 0002:00000188       __imp__CxxThrowException   000000018000e188     vcruntime:VCRUNTIME140.dll
 0002:00000190       __imp___C_specific_handler 000000018000e190     vcruntime:VCRUNTIME140.dll
 0002:00000198       __imp_memset               000000018000e198     vcruntime:VCRUNTIME140.dll
 0002:000001a0       __imp___CxxFrameHandler3   000000018000e1a0     vcruntime:VCRUNTIME140.dll
 0002:000001a8       \177VCRUNTIME140_NULL_THUNK_DATA 000000018000e1a8     vcruntime:VCRUNTIME140.dll
 0002:000001b0       __imp_strtod               000000018000e1b0     ucrt:api-ms-win-crt-convert-l1-1-0.dll
 0002:000001b8       \177api-ms-win-crt-convert-l1-1-0_NULL_THUNK_DATA 000000018000e1b8     ucrt:api-ms-win-crt-convert-l1-1-0.dll
 0002:000001c0       __imp__callnewh            000000018000e1c0     ucrt:api-ms-win-crt-heap-l1-1-0.dll
 0002:000001c8       __imp_free                 000000018000e1c8     ucrt:api-ms-win-crt-heap-l1-1-0.dll
 0002:000001d0       __imp_malloc               000000018000e1d0     ucrt:api-ms-win-crt-heap-l1-1-0.dll
 0002:000001d8       \177api-ms-win-crt-heap-l1-1-0_NULL_THUNK_DATA 000000018000e1d8     ucrt:api-ms-win-crt-heap-l1-1-0.dll
 0002:000001e0       __imp_sqrtf                000000018000e1e0     ucrt:api-ms-win-crt-math-l1-1-0.dll
 0002:000001e8       __imp_atan2f               000000018000e1e8     ucrt:api-ms-win-crt-math-l1-1-0.dll
 0002:000001f0       \177api-ms-win-crt-math-l1-1-0_NULL_THUNK_DATA 000000018000e1f0     ucrt:api-ms-win-crt-math-l1-1-0.dll
 0002:000001f8       __imp__initialize_onexit_table 000000018000e1f8     ucrt:api-ms-win-crt-runtime-l1-1-0.dll
 0002:00000200       __imp__register_onexit_function 000000018000e200     ucrt:api-ms-win-crt-runtime-l1-1-0.dll
 0002:00000208       __imp__initialize_narrow_environment 000000018000e208     ucrt:api-ms-win-crt-runtime-l1-1-0.dll
 0002:00000210       __imp__crt_atexit          000000018000e210     ucrt:api-ms-win-crt-runtime-l1-1-0.dll
 0002:00000218       __imp__cexit               000000018000e218     ucrt:api-ms-win-crt-runtime-l1-1-0.dll
 0002:00000220       __imp__configure_narrow_argv 000000018000e220     ucrt:api-ms-win-crt-runtime-l1-1-0.dll
 0002:00000228       __imp_exit                 000000018000e228     ucrt:api-ms-win-crt-runtime-l1-1-0.dll
 0002:00000230       __imp__initterm_e          000000018000e230     ucrt:api-ms-win-crt-runtime-l1-1-0.dll
 0002:00000238       __imp__wassert             000000018000e238     ucrt:api-ms-win-crt-runtime-l1-1-0.dll
 0002:00000240       __imp__invalid_parameter_noinfo_noreturn 000000018000e240     ucrt:api-ms-win-crt-runtime-l1-1-0.dll
 0002:00000248       __imp__initterm            000000018000e248     ucrt:api-ms-win-crt-runtime-l1-1-0.dll
 0002:00000250       __imp__execute_onexit_table 000000018000e250     ucrt:api-ms-win-crt-runtime-l1-1-0.dll
 0002:00000258       __imp_system               000000018000e258     ucrt:api-ms-win-crt-runtime-l1-1-0.dll
 0002:00000260       __imp__seh_filter_dll      000000018000e260     ucrt:api-ms-win-crt-runtime-l1-1-0.dll
 0002:00000268       \177api-ms-win-crt-runtime-l1-1-0_NULL_THUNK_DATA 000000018000e268     ucrt:api-ms-win-crt-runtime-l1-1-0.dll
 0002:00000270       __imp___stdio_common_vsprintf 000000018000e270     ucrt:api-ms-win-crt-stdio-l1-1-0.dll
 0002:00000278       \177api-ms-win-crt-stdio-l1-1-0_NULL_THUNK_DATA 000000018000e278     ucrt:api-ms-win-crt-stdio-l1-1-0.dll
 0002:00000280       __imp_strtok               000000018000e280     ucrt:api-ms-win-crt-string-l1-1-0.dll
 0002:00000288       \177api-ms-win-crt-string-l1-1-0_NULL_THUNK_DATA 000000018000e288     ucrt:api-ms-win-crt-string-l1-1-0.dll
 0002:00000290       __guard_check_icall_fptr   000000018000e290     MSVCRT:guard_support.obj
 0002:00000298       __guard_dispatch_icall_fptr 000000018000e298     MSVCRT:guard_support.obj
 0002:000002a0       __xc_a                     000000018000e2a0     MSVCRT:initializers.obj
 0002:000002a8       __xc_z                     000000018000e2a8     MSVCRT:initializers.obj
 0002:000002b0       __xi_a                     000000018000e2b0     MSVCRT:initializers.obj
 0002:000002b8       __xi_z                     000000018000e2b8     MSVCRT:initializers.obj
 0002:000002c0       __xp_a                     000000018000e2c0     MSVCRT:initializers.obj
 0002:000002c8       __xp_z                     000000018000e2c8     MSVCRT:initializers.obj
 0002:000002d0       __xt_a                     000000018000e2d0     MSVCRT:initializers.obj
 0002:000002d8       __xt_z                     000000018000e2d8     MSVCRT:initializers.obj
 0002:00000690       ??_C@_1IA@KFGIOFOM@?$AAb?$AA?3?$AA?2?$AAv?$AAs?$AAc?$AAo?$AAd?$AAe?$AA_?$AAp?$AAr?$AAo?$AAj?$AAe?$AAc?$AAt?$AAs?$AA?2?$AAp?$AAo?$AAw?$AAd?$AAe?$AAr?$AAe?$AAn?$AAg?$AAi?$AAn?$AAe?$AA?2@ 000000018000e690     game.obj
 0002:00000710       ??_C@_1CG@KOFHLCJL@?$AAi?$AA?5?$AA?$DM?$AA?5?$AAt?$AAh?$AAi?$AAs?$AA?9?$AA?$DO?$AAl?$AAe?$AAn?$AAg?$AAt?$AAh?$AA?$CI?$AA?$CJ?$AA?$AA@ 000000018000e710     game.obj
 0002:00000740       ??_C@_1HM@OOFEDEBN@?$AAb?$AA?3?$AA?2?$AAv?$AAs?$AAc?$AAo?$AAd?$AAe?$AA_?$AAp?$AAr?$AAo?$AAj?$AAe?$AAc?$AAt?$AAs?$AA?2?$AAp?$AAo?$AAw?$AAd?$AAe?$AAr?$AAe?$AAn?$AAg?$AAi?$AAn?$AAe?$AA?2@ 000000018000e740     game.obj
 0002:000007c0       ??_C@_1DK@BGNCJAPL@?$AAi?$AA?5?$AA?$DO?$AA?$DN?$AA?5?$AA0?$AA?5?$AA?$CG?$AA?$CG?$AA?5?$AAi?$AA?5?$AA?$DM?$AA?5?$AAt?$AAh?$AAi?$AAs?$AA?9?$AA?$DO?$AAl?$AAe?$AAn?$AAg?$AAt?$AAh?$AA?$CI?$AA?$CJ?$AA?$AA@ 000000018000e7c0     game.obj
 0002:00000800       ??_C@_1HM@JKMMNNJC@?$AAb?$AA?3?$AA?2?$AAv?$AAs?$AAc?$AAo?$AAd?$AAe?$AA_?$AAp?$AAr?$AAo?$AAj?$AAe?$AAc?$AAt?$AAs?$AA?2?$AAp?$AAo?$AAw?$AAd?$AAe?$AAr?$AAe?$AAn?$AAg?$AAi?$AAn?$AAe?$AA?2@ 000000018000e800     game.obj
 0002:00000880       ??_C@_0BE@JONHPENG@map?1set?$DMT?$DO?5too?5long?$AA@ 000000018000e880     game.obj
 0002:00000894       __real@3f000000            000000018000e894     game.obj
 0002:00000898       __real@3f800000            000000018000e898     game.obj
 0002:0000089c       __real@40000000            000000018000e89c     game.obj
 0002:000008a0       __real@40c00000            000000018000e8a0     game.obj
 0002:000008a4       __real@41200000            000000018000e8a4     game.obj
 0002:000008a8       __real@41700000            000000018000e8a8     game.obj
 0002:000008ac       __real@bf800000            000000018000e8ac     game.obj
 0002:000008b0       __real@c0000000            000000018000e8b0     game.obj
 0002:000008c0       __xmm@80000000800000008000000080000000 000000018000e8c0     game.obj
 0002:000008d0       ??_C@_0CE@BEELAIPG@The?5GLFW?5library?5is?5not?5initiali@ 000000018000e8d0     glfw3:init.c.obj
 0002:000008f8       ??_C@_0BM@PKHPFLOM@There?5is?5no?5current?5context?$AA@ 000000018000e8f8     glfw3:init.c.obj
 0002:00000918       ??_C@_0CE@KDBKFLEE@Invalid?5argument?5for?5enum?5parame@ 000000018000e918     glfw3:init.c.obj
 0002:00000940       ??_C@_0BM@BADCNPOM@Invalid?5value?5for?5parameter?$AA@ 000000018000e940     glfw3:init.c.obj
 0002:00000960       ??_C@_0O@NALGGDJF@Out?5of?5memory?$AA@ 000000018000e960     glfw3:init.c.obj
 0002:00000970       ??_C@_0CB@HAFFDHLH@The?5requested?5API?5is?5unavailable@ 000000018000e970     glfw3:init.c.obj
 0002:00000998       ??_C@_0CJ@KOFEFGNB@The?5requested?5API?5version?5is?5una@ 000000018000e998     glfw3:init.c.obj
 0002:000009c8       ??_C@_0CD@HJEBEGLD@A?5platform?9specific?5error?5occurr@ 000000018000e9c8     glfw3:init.c.obj
 0002:000009f0       ??_C@_0CE@PCLEMLLO@The?5requested?5format?5is?5unavaila@ 000000018000e9f0     glfw3:init.c.obj
 0002:00000a18       ??_C@_0CE@OJFJMLEI@The?5specified?5window?5has?5no?5cont@ 000000018000ea18     glfw3:init.c.obj
 0002:00000a40       ??_C@_0BK@PMMAHJAK@ERROR?3?5UNKNOWN?5GLFW?5ERROR?$AA@ 000000018000ea40     glfw3:init.c.obj
 0002:00000a60       ??_C@_1O@IBNLCBOC@?$AAG?$AAL?$AAF?$AAW?$AA3?$AA0?$AA?$AA@ 000000018000ea60     glfw3:win32_init.c.obj
 0002:00000a70       ??_C@_1BA@PICGEGJB@?$AAD?$AAI?$AAS?$AAP?$AAL?$AAA?$AAY?$AA?$AA@ 000000018000ea70     glfw3:win32_monitor.c.obj
 0002:00000a80       ??_C@_0CD@EGEEPFHF@Win32?3?5Gamma?5ramp?5size?5must?5be?52@ 000000018000ea80     glfw3:win32_monitor.c.obj
 0002:00000aa8       ??_C@_19JBPKICJI@?$AAG?$AAL?$AAF?$AAW?$AA?$AA@ 000000018000eaa8     glfw3:win32_window.c.obj
 0002:00000ab8       GUID_XAxis                 000000018000eab8     glfw3:win32_joystick.c.obj
 0002:00000ac8       GUID_YAxis                 000000018000eac8     glfw3:win32_joystick.c.obj
 0002:00000ad8       GUID_ZAxis                 000000018000ead8     glfw3:win32_joystick.c.obj
 0002:00000ae8       GUID_RxAxis                000000018000eae8     glfw3:win32_joystick.c.obj
 0002:00000af8       GUID_RyAxis                000000018000eaf8     glfw3:win32_joystick.c.obj
 0002:00000b08       GUID_RzAxis                000000018000eb08     glfw3:win32_joystick.c.obj
 0002:00000b18       GUID_Slider                000000018000eb18     glfw3:win32_joystick.c.obj
 0002:00000b28       GUID_POV                   000000018000eb28     glfw3:win32_joystick.c.obj
 0002:00000b58       _pRawDllMain               000000018000eb58     MSVCRT:dll_dllmain.obj
 0002:00000b58       _pDefaultRawDllMain        000000018000eb58     MSVCRT:dll_dllmain.obj
 0002:00000b68       ??_7exception@std@@6B@     000000018000eb68     MSVCRT:throw_bad_alloc.obj
 0002:00000b78       ??_C@_0BC@EOODALEL@Unknown?5exception?$AA@ 000000018000eb78     MSVCRT:throw_bad_alloc.obj
 0002:00000b98       ??_7bad_alloc@std@@6B@     000000018000eb98     MSVCRT:throw_bad_alloc.obj
 0002:00000ba8       ??_C@_0P@GHFPNOJB@bad?5allocation?$AA@ 000000018000eba8     MSVCRT:throw_bad_alloc.obj
 0002:00000bc0       ??_7bad_array_new_length@std@@6B@ 000000018000ebc0     MSVCRT:throw_bad_alloc.obj
 0002:00000bd0       ??_C@_0BF@KINCDENJ@bad?5array?5new?5length?$AA@ 000000018000ebd0     MSVCRT:throw_bad_alloc.obj
 0002:00000c00       ??_7type_info@@6B@         000000018000ec00     MSVCRT:std_type_info_static.obj
 0002:00000c70       _load_config_used          000000018000ec70     MSVCRT:loadcfg.obj
 0002:00000d08       ??_R4exception@std@@6B@    000000018000ed08     MSVCRT:throw_bad_alloc.obj
 0002:00000d30       ??_R3exception@std@@8      000000018000ed30     MSVCRT:throw_bad_alloc.obj
 0002:00000d48       ??_R2exception@std@@8      000000018000ed48     MSVCRT:throw_bad_alloc.obj
 0002:00000d58       ??_R1A@?0A@EA@exception@std@@8 000000018000ed58     MSVCRT:throw_bad_alloc.obj
 0002:00000d80       ??_R4bad_alloc@std@@6B@    000000018000ed80     MSVCRT:throw_bad_alloc.obj
 0002:00000da8       ??_R3bad_alloc@std@@8      000000018000eda8     MSVCRT:throw_bad_alloc.obj
 0002:00000dc0       ??_R2bad_alloc@std@@8      000000018000edc0     MSVCRT:throw_bad_alloc.obj
 0002:00000dd8       ??_R1A@?0A@EA@bad_alloc@std@@8 000000018000edd8     MSVCRT:throw_bad_alloc.obj
 0002:00000e00       ??_R4bad_array_new_length@std@@6B@ 000000018000ee00     MSVCRT:throw_bad_alloc.obj
 0002:00000e28       ??_R3bad_array_new_length@std@@8 000000018000ee28     MSVCRT:throw_bad_alloc.obj
 0002:00000e40       ??_R2bad_array_new_length@std@@8 000000018000ee40     MSVCRT:throw_bad_alloc.obj
 0002:00000e60       ??_R1A@?0A@EA@bad_array_new_length@std@@8 000000018000ee60     MSVCRT:throw_bad_alloc.obj
 0002:00000e88       ??_R4type_info@@6B@        000000018000ee88     MSVCRT:std_type_info_static.obj
 0002:00000eb0       ??_R3type_info@@8          000000018000eeb0     MSVCRT:std_type_info_static.obj
 0002:00000ec8       ??_R2type_info@@8          000000018000eec8     MSVCRT:std_type_info_static.obj
 0002:00000ed8       ??_R1A@?0A@EA@type_info@@8 000000018000eed8     MSVCRT:std_type_info_static.obj
 0002:000011c0       __rtc_iaa                  000000018000f1c0     MSVCRT:_initsect_.obj
 0002:000011c8       __rtc_izz                  000000018000f1c8     MSVCRT:_initsect_.obj
 0002:000011d0       __rtc_taa                  000000018000f1d0     MSVCRT:_initsect_.obj
 0002:000011d8       __rtc_tzz                  000000018000f1d8     MSVCRT:_initsect_.obj
 0002:00001b48       _TI2?AVbad_alloc@std@@     000000018000fb48     MSVCRT:throw_bad_alloc.obj
 0002:00001b68       _CTA2?AVbad_alloc@std@@    000000018000fb68     MSVCRT:throw_bad_alloc.obj
 0002:00001b80       _CT??_R0?AVbad_alloc@std@@@8??0bad_alloc@std@@QEAA@AEBV01@@Z24 000000018000fb80     MSVCRT:throw_bad_alloc.obj
 0002:00001ba8       _CT??_R0?AVexception@std@@@8??0exception@std@@QEAA@AEBV01@@Z24 000000018000fba8     MSVCRT:throw_bad_alloc.obj
 0002:00001bd0       _TI3?AVbad_array_new_length@std@@ 000000018000fbd0     MSVCRT:throw_bad_alloc.obj
 0002:00001bf0       _CTA3?AVbad_array_new_length@std@@ 000000018000fbf0     MSVCRT:throw_bad_alloc.obj
 0002:00001c10       _CT??_R0?AVbad_array_new_length@std@@@8??0bad_array_new_length@std@@QEAA@AEBV01@@Z24 000000018000fc10     MSVCRT:throw_bad_alloc.obj
 0002:00001c84       __IMPORT_DESCRIPTOR_OpenAL32 000000018000fc84     OpenAL32:OpenAL32.dll
 0002:00001c98       __IMPORT_DESCRIPTOR_MSVCP140 000000018000fc98     msvcprt:MSVCP140.dll
 0002:00001cac       __IMPORT_DESCRIPTOR_VCRUNTIME140 000000018000fcac     vcruntime:VCRUNTIME140.dll
 0002:00001cc0       __IMPORT_DESCRIPTOR_api-ms-win-crt-runtime-l1-1-0 000000018000fcc0     ucrt:api-ms-win-crt-runtime-l1-1-0.dll
 0002:00001cd4       __IMPORT_DESCRIPTOR_api-ms-win-crt-heap-l1-1-0 000000018000fcd4     ucrt:api-ms-win-crt-heap-l1-1-0.dll
 0002:00001ce8       __IMPORT_DESCRIPTOR_api-ms-win-crt-convert-l1-1-0 000000018000fce8     ucrt:api-ms-win-crt-convert-l1-1-0.dll
 0002:00001cfc       __IMPORT_DESCRIPTOR_api-ms-win-crt-stdio-l1-1-0 000000018000fcfc     ucrt:api-ms-win-crt-stdio-l1-1-0.dll
 0002:00001d10       __IMPORT_DESCRIPTOR_api-ms-win-crt-string-l1-1-0 000000018000fd10     ucrt:api-ms-win-crt-string-l1-1-0.dll
 0002:00001d24       __IMPORT_DESCRIPTOR_api-ms-win-crt-math-l1-1-0 000000018000fd24     ucrt:api-ms-win-crt-math-l1-1-0.dll
 0002:00001d38       __IMPORT_DESCRIPTOR_KERNEL32 000000018000fd38     kernel32:KERNEL32.dll
 0002:00001d4c       __IMPORT_DESCRIPTOR_USER32 000000018000fd4c     user32:USER32.dll
 0002:00001d60       __IMPORT_DESCRIPTOR_GDI32  000000018000fd60     gdi32:GDI32.dll
 0002:00001d74       __NULL_IMPORT_DESCRIPTOR   000000018000fd74     OpenAL32:OpenAL32.dll
 0003:00000000       ?ShaderPaths@@3PAPEBDA     0000000180011000     game.obj
 0003:00000740       __security_cookie          0000000180011740     MSVCRT:gs_cookie.obj
 0003:00000748       __security_cookie_complement 0000000180011748     MSVCRT:gs_cookie.obj
 0003:00000750       _fltused                   0000000180011750     MSVCRT:dllsupp.obj
 0003:00000760       __scrt_native_dllmain_reason 0000000180011760     MSVCRT:utility.obj
 0003:00000768       __isa_available            0000000180011768     MSVCRT:_cpu_disp_.obj
 0003:0000076c       __isa_enabled              000000018001176c     MSVCRT:_cpu_disp_.obj
 0003:00000770       __memcpy_nt_iters          0000000180011770     MSVCRT:_cpu_disp_.obj
 0003:00000780       __scrt_ucrt_dll_is_in_use  0000000180011780     MSVCRT:ucrt_stubs.obj
 0003:00000788       ??_R0?AVbad_alloc@std@@@8  0000000180011788     MSVCRT:throw_bad_alloc.obj
 0003:000007b0       ??_R0?AVexception@std@@@8  00000001800117b0     MSVCRT:throw_bad_alloc.obj
 0003:000007d8       ??_R0?AVbad_array_new_length@std@@@8 00000001800117d8     MSVCRT:throw_bad_alloc.obj
 0003:00000808       ??_R0?AVtype_info@@@8      0000000180011808     MSVCRT:std_type_info_static.obj
 0003:00000840       ?_OptionsStorage@?1??__local_stdio_printf_options@@9@4_KA 0000000180011840     game.obj
 0003:00000848       _glfwInitialized           0000000180011848     glfw3:init.c.obj
 0003:00000dd0       __scrt_current_native_startup_state 0000000180011dd0     MSVCRT:utility.obj
 0003:00000dd8       __scrt_native_startup_lock 0000000180011dd8     MSVCRT:utility.obj
 0003:00000e20       ?__type_info_root_node@@3U__type_info_node@@A 0000000180011e20     MSVCRT:tncleanup.obj
 0003:00000e30       __scrt_debugger_hook_flag  0000000180011e30     MSVCRT:utility_desktop.obj
 0003:00000e34       __favor                    0000000180011e34     MSVCRT:_cpu_disp_.obj
 0003:00000e38       ?_OptionsStorage@?1??__local_stdio_scanf_options@@9@9 0000000180011e38     <common>
 0003:00000e40       _glfw                      0000000180011e40     <common>
 0003:00001e70       __dyn_tls_init_callback    0000000180012e70     <common>

 entry point at        0001:0000b590

 Static symbols

 0000:fffea000       .debug$S                   0000000180000000     kernel32:KERNEL32.dll
 0000:fffea000       .debug$S                   0000000180000000     game.exp
 0000:fffea000       .debug$S                   0000000180000000     ucrt:api-ms-win-crt-convert-l1-1-0.dll
 0000:fffea000       .debug$S                   0000000180000000     ucrt:api-ms-win-crt-heap-l1-1-0.dll
 0000:fffea000       .debug$S                   0000000180000000     ucrt:api-ms-win-crt-heap-l1-1-0.dll
 0000:fffea000       .debug$S                   0000000180000000     ucrt:api-ms-win-crt-heap-l1-1-0.dll
 0000:fffea000       .debug$S                   0000000180000000     ucrt:api-ms-win-crt-heap-l1-1-0.dll
 0000:fffea000       .debug$S                   0000000180000000     shell32:SHELL32.dll
 0000:fffea000       .debug$S                   0000000180000000     user32:USER32.dll
 0002:ffff2000       .idata$6                   0000000180000000     shell32:SHELL32.dll
 0000:fffea000       .debug$S                   0000000180000000     OpenAL32:OpenAL32.dll
 0000:fffea000       .debug$S                   0000000180000000     OpenAL32:OpenAL32.dll
 0000:fffea000       .debug$S                   0000000180000000     OpenAL32:OpenAL32.dll
 0000:fffea000       .debug$S                   0000000180000000     shell32:SHELL32.dll
 0000:fffea000       .debug$S                   0000000180000000     shell32:SHELL32.dll
 0000:fffea000       .debug$S                   0000000180000000     gdi32:GDI32.dll
 0000:fffea000       .debug$S                   0000000180000000     gdi32:GDI32.dll
 0000:fffea000       .debug$S                   0000000180000000     user32:USER32.dll
 0000:fffea000       .debug$S                   0000000180000000     gdi32:GDI32.dll
 0000:fffea000       .debug$S                   0000000180000000     user32:USER32.dll
 0000:fffea000       .debug$S                   0000000180000000     gdi32:GDI32.dll
 0000:fffea000       .debug$S                   0000000180000000     user32:USER32.dll
 0000:fffea000       .debug$S                   0000000180000000     gdi32:GDI32.dll
 0000:fffea000       .debug$S                   0000000180000000     user32:USER32.dll
 0000:fffea000       .debug$S                   0000000180000000     user32:USER32.dll
 0000:fffea000       .debug$S                   0000000180000000     user32:USER32.dll
 0000:fffea000       .debug$S                   0000000180000000     user32:USER32.dll
 0000:fffea000       .debug$S                   0000000180000000     user32:USER32.dll
 0000:fffea000       .debug$S                   0000000180000000     gdi32:GDI32.dll
 0000:fffea000       .debug$S                   0000000180000000     user32:USER32.dll
 0000:fffea000       .debug$S                   0000000180000000     user32:USER32.dll
 0000:fffea000       .debug$S                   0000000180000000     gdi32:GDI32.dll
 0000:fffea000       .debug$S                   0000000180000000     ucrt:api-ms-win-crt-heap-l1-1-0.dll
 0000:fffea000       .debug$S                   0000000180000000     user32:USER32.dll
 0000:fffea000       .debug$S                   0000000180000000     user32:USER32.dll
 0000:fffea000       .debug$S                   0000000180000000     gdi32:GDI32.dll
 0000:fffea000       .debug$S                   0000000180000000     user32:USER32.dll
 0000:fffea000       .debug$S                   0000000180000000     user32:USER32.dll
 0000:fffea000       .debug$S                   0000000180000000     user32:USER32.dll
 0000:fffea000       .debug$S                   0000000180000000     gdi32:GDI32.dll
 0000:fffea000       .debug$S                   0000000180000000     user32:USER32.dll
 0000:fffea000       .debug$S                   0000000180000000     gdi32:GDI32.dll
 0000:fffea000       .debug$S                   0000000180000000     user32:USER32.dll
 0000:fffea000       .debug$S                   0000000180000000     gdi32:GDI32.dll
 0000:fffea000       .debug$S                   0000000180000000     gdi32:GDI32.dll
 0000:fffea000       .debug$S                   0000000180000000     user32:USER32.dll
 0000:fffea000       .debug$S                   0000000180000000     user32:USER32.dll
 0000:fffea000       .debug$S                   0000000180000000     user32:USER32.dll
 0000:fffea000       .debug$S                   0000000180000000     msvcprt:MSVCP140.dll
 0000:fffea000       .debug$S                   0000000180000000     msvcprt:MSVCP140.dll
 0000:fffea000       .debug$S                   0000000180000000     user32:USER32.dll
 0000:fffea000       .debug$S                   0000000180000000     user32:USER32.dll
 0000:fffea000       .debug$S                   0000000180000000     user32:USER32.dll
 0000:fffea000       .debug$S                   0000000180000000     user32:USER32.dll
 0000:fffea000       .debug$S                   0000000180000000     user32:USER32.dll
 0000:fffea000       .debug$S                   0000000180000000     user32:USER32.dll
 0000:fffea000       .debug$S                   0000000180000000     user32:USER32.dll
 0000:fffea000       .debug$S                   0000000180000000     user32:USER32.dll
 0000:fffea000       .debug$S                   0000000180000000     ucrt:api-ms-win-crt-math-l1-1-0.dll
 0000:fffea000       .debug$S                   0000000180000000     user32:USER32.dll
 0000:fffea000       .debug$S                   0000000180000000     ucrt:api-ms-win-crt-math-l1-1-0.dll
 0000:fffea000       .debug$S                   0000000180000000     user32:USER32.dll
 0000:fffea000       .debug$S                   0000000180000000     ucrt:api-ms-win-crt-math-l1-1-0.dll
 0000:fffea000       .debug$S                   0000000180000000     kernel32:KERNEL32.dll
 0000:fffea000       .debug$S                   0000000180000000     ucrt:api-ms-win-crt-math-l1-1-0.dll
 0000:fffea000       .debug$S                   0000000180000000     user32:USER32.dll
 0000:fffea000       .debug$S                   0000000180000000     ucrt:api-ms-win-crt-runtime-l1-1-0.dll
 0000:fffea000       .debug$S                   0000000180000000     user32:USER32.dll
 0000:fffea000       .debug$S                   0000000180000000     ucrt:api-ms-win-crt-runtime-l1-1-0.dll
 0000:fffea000       .debug$S                   0000000180000000     user32:USER32.dll
 0000:fffea000       .debug$S                   0000000180000000     ucrt:api-ms-win-crt-runtime-l1-1-0.dll
 0000:fffea000       .debug$S                   0000000180000000     user32:USER32.dll
 0000:fffea000       .debug$S                   0000000180000000     ucrt:api-ms-win-crt-runtime-l1-1-0.dll
 0000:fffea000       .debug$S                   0000000180000000     user32:USER32.dll
 0000:fffea000       .debug$S                   0000000180000000     ucrt:api-ms-win-crt-runtime-l1-1-0.dll
 0000:fffea000       .debug$S                   0000000180000000     user32:USER32.dll
 0000:fffea000       .debug$S                   0000000180000000     ucrt:api-ms-win-crt-runtime-l1-1-0.dll
 0000:fffea000       .debug$S                   0000000180000000     user32:USER32.dll
 0000:fffea000       .debug$S                   0000000180000000     ucrt:api-ms-win-crt-runtime-l1-1-0.dll
 0000:fffea000       .debug$S                   0000000180000000     kernel32:KERNEL32.dll
 0000:fffea000       .debug$S                   0000000180000000     ucrt:api-ms-win-crt-runtime-l1-1-0.dll
 0000:fffea000       .debug$S                   0000000180000000     user32:USER32.dll
 0000:fffea000       .debug$S                   0000000180000000     ucrt:api-ms-win-crt-runtime-l1-1-0.dll
 0000:fffea000       .debug$S                   0000000180000000     user32:USER32.dll
 0000:fffea000       .debug$S                   0000000180000000     ucrt:api-ms-win-crt-runtime-l1-1-0.dll
 0000:fffea000       .debug$S                   0000000180000000     user32:USER32.dll
 0000:fffea000       .debug$S                   0000000180000000     ucrt:api-ms-win-crt-runtime-l1-1-0.dll
 0000:fffea000       .debug$S                   0000000180000000     kernel32:KERNEL32.dll
 0000:fffea000       .debug$S                   0000000180000000     ucrt:api-ms-win-crt-runtime-l1-1-0.dll
 0000:fffea000       .debug$S                   0000000180000000     user32:USER32.dll
 0000:fffea000       .debug$S                   0000000180000000     ucrt:api-ms-win-crt-runtime-l1-1-0.dll
 0000:fffea000       .debug$S                   0000000180000000     user32:USER32.dll
 0000:fffea000       .debug$S                   0000000180000000     ucrt:api-ms-win-crt-runtime-l1-1-0.dll
 0000:fffea000       .debug$S                   0000000180000000     user32:USER32.dll
 0000:fffea000       .debug$S                   0000000180000000     ucrt:api-ms-win-crt-runtime-l1-1-0.dll
 0000:fffea000       .debug$S                   0000000180000000     user32:USER32.dll
 0000:fffea000       .debug$S                   0000000180000000     ucrt:api-ms-win-crt-runtime-l1-1-0.dll
 0000:fffea000       .debug$S                   0000000180000000     user32:USER32.dll
 0000:fffea000       .debug$S                   0000000180000000     ucrt:api-ms-win-crt-stdio-l1-1-0.dll
 0000:fffea000       .debug$S                   0000000180000000     user32:USER32.dll
 0000:fffea000       .debug$S                   0000000180000000     ucrt:api-ms-win-crt-stdio-l1-1-0.dll
 0000:fffea000       .debug$S                   0000000180000000     user32:USER32.dll
 0000:fffea000       .debug$S                   0000000180000000     ucrt:api-ms-win-crt-string-l1-1-0.dll
 0000:fffea000       .debug$S                   0000000180000000     user32:USER32.dll
 0000:fffea000       .debug$S                   0000000180000000     ucrt:api-ms-win-crt-string-l1-1-0.dll
 0000:fffea000       .debug$S                   0000000180000000     user32:USER32.dll
 0000:fffea000       .debug$S                   0000000180000000     user32:USER32.dll
 0000:fffea000       .debug$S                   0000000180000000     user32:USER32.dll
 0000:fffea000       .debug$S                   0000000180000000     user32:USER32.dll
 0000:fffea000       .debug$S                   0000000180000000     user32:USER32.dll
 0000:fffea000       .debug$S                   0000000180000000     user32:USER32.dll
 0000:fffea000       .debug$S                   0000000180000000     ucrt:api-ms-win-crt-string-l1-1-0.dll
 0000:fffea000       .debug$S                   0000000180000000     user32:USER32.dll
 0000:fffea000       .debug$S                   0000000180000000     ucrt:api-ms-win-crt-string-l1-1-0.dll
 0000:fffea000       .debug$S                   0000000180000000     user32:USER32.dll
 0002:ffff2000       .idata$6                   0000000180000000     ucrt:api-ms-win-crt-utility-l1-1-0.dll
 0000:fffea000       .debug$S                   0000000180000000     user32:USER32.dll
 0000:fffea000       .debug$S                   0000000180000000     ucrt:api-ms-win-crt-utility-l1-1-0.dll
 0000:fffea000       .debug$S                   0000000180000000     user32:USER32.dll
 0000:fffea000       .debug$S                   0000000180000000     vcruntime:VCRUNTIME140.dll
 0000:fffea000       .debug$S                   0000000180000000     user32:USER32.dll
 0000:fffea000       .debug$S                   0000000180000000     vcruntime:VCRUNTIME140.dll
 0000:fffea000       .debug$S                   0000000180000000     kernel32:KERNEL32.dll
 0000:fffea000       .debug$S                   0000000180000000     vcruntime:VCRUNTIME140.dll
 0000:fffea000       .debug$S                   0000000180000000     kernel32:KERNEL32.dll
 0000:fffea000       .debug$S                   0000000180000000     vcruntime:VCRUNTIME140.dll
 0000:fffea000       .debug$S                   0000000180000000     user32:USER32.dll
 0000:fffea000       .debug$S                   0000000180000000     vcruntime:VCRUNTIME140.dll
 0000:fffea000       .debug$S                   0000000180000000     kernel32:KERNEL32.dll
 0000:fffea000       .debug$S                   0000000180000000     vcruntime:VCRUNTIME140.dll
 0000:fffea000       .debug$S                   0000000180000000     user32:USER32.dll
 0000:fffea000       .debug$S                   0000000180000000     vcruntime:VCRUNTIME140.dll
 0000:fffea000       .debug$S                   0000000180000000     kernel32:KERNEL32.dll
 0000:fffea000       .debug$S                   0000000180000000     vcruntime:VCRUNTIME140.dll
 0000:fffea000       .debug$S                   0000000180000000     kernel32:KERNEL32.dll
 0000:fffea000       .debug$S                   0000000180000000     kernel32:KERNEL32.dll
 0000:fffea000       .debug$S                   0000000180000000     kernel32:KERNEL32.dll
 0000:fffea000       .debug$S                   0000000180000000     kernel32:KERNEL32.dll
 0000:fffea000       .debug$S                   0000000180000000     user32:USER32.dll
 0000:fffea000       .debug$S                   0000000180000000     kernel32:KERNEL32.dll
 0000:fffea000       .debug$S                   0000000180000000     kernel32:KERNEL32.dll
 0000:fffea000       .debug$S                   0000000180000000     kernel32:KERNEL32.dll
 0000:fffea000       .debug$S                   0000000180000000     kernel32:KERNEL32.dll
 0000:fffea000       .debug$S                   0000000180000000     user32:USER32.dll
 0000:fffea000       .debug$S                   0000000180000000     kernel32:KERNEL32.dll
 0000:fffea000       .debug$S                   0000000180000000     kernel32:KERNEL32.dll
 0000:fffea000       .debug$S                   0000000180000000     user32:USER32.dll
 0000:fffea000       .debug$S                   0000000180000000     kernel32:KERNEL32.dll
 0000:fffea000       .debug$S                   0000000180000000     user32:USER32.dll
 0000:fffea000       .debug$S                   0000000180000000     kernel32:KERNEL32.dll
 0000:fffea000       .debug$S                   0000000180000000     kernel32:KERNEL32.dll
 0000:fffea000       .debug$S                   0000000180000000     kernel32:KERNEL32.dll
 0000:fffea000       .debug$S                   0000000180000000     user32:USER32.dll
 0000:fffea000       .debug$S                   0000000180000000     kernel32:KERNEL32.dll
 0000:fffea000       .debug$S                   0000000180000000     user32:USER32.dll
 0000:fffea000       .debug$S                   0000000180000000     kernel32:KERNEL32.dll
 0000:fffea000       .debug$S                   0000000180000000     kernel32:KERNEL32.dll
 0000:fffea000       .debug$S                   0000000180000000     kernel32:KERNEL32.dll
 0000:fffea000       .debug$S                   0000000180000000     kernel32:KERNEL32.dll
 0000:fffea000       .debug$S                   0000000180000000     kernel32:KERNEL32.dll
 0000:fffea000       .debug$S                   0000000180000000     user32:USER32.dll
 0000:fffea000       .debug$S                   0000000180000000     kernel32:KERNEL32.dll
 0000:fffea000       .debug$S                   0000000180000000     kernel32:KERNEL32.dll
 0000:fffea000       .debug$S                   0000000180000000     kernel32:KERNEL32.dll
 0000:fffea000       .debug$S                   0000000180000000     kernel32:KERNEL32.dll
 0000:fffea000       .debug$S                   0000000180000000     shell32:SHELL32.dll
 0001:00000000       ?CombineStrings@@YAPEADPEBD0@Z 0000000180001000 f   game.obj
 0001:00000bb0       ?stb__perlin_lerp@@YAMMMM@Z 0000000180001bb0 f   game.obj
 0001:00000bf0       ?stb__perlin_fastfloor@@YAHM@Z 0000000180001bf0 f   game.obj
 0001:00000c30       ?stb__perlin_grad@@YAMHMMM@Z 0000000180001c30 f   game.obj
 0001:00000d70       ?GetKey@@YA_NHPEAUgame_state@@@Z 0000000180001d70 f   game.obj
 0001:00000db0       ?GetKeyDown@@YA_NHPEAUgame_state@@@Z 0000000180001db0 f   game.obj
 0001:0000a4e0       getErrorString             000000018000b4e0 f   glfw3:init.c.obj
 0001:0000a55c       $LN16                      000000018000b55c     glfw3:init.c.obj
 0001:0000a8c0       freeLibraries              000000018000b8c0 f   glfw3:win32_init.c.obj
 0001:0000af20       cursorInClientArea         000000018000bf20 f   glfw3:win32_window.c.obj
 0001:0000b210       $$000000                   000000018000c210     MSVCRT:_amdsecgs_.obj
 0001:0000b244       ?dllmain_crt_dispatch@@YAHQEAUHINSTANCE__@@KQEAX@Z 000000018000c244 f   MSVCRT:dll_dllmain.obj
 0001:0000b294       ?dllmain_crt_process_attach@@YAHQEAUHINSTANCE__@@QEAX@Z 000000018000c294 f   MSVCRT:dll_dllmain.obj
 0001:0000b3c0       ?dllmain_crt_process_detach@@YAH_N@Z 000000018000c3c0 f   MSVCRT:dll_dllmain.obj
 0001:0000b444       ?dllmain_dispatch@@YAHQEAUHINSTANCE__@@KQEAX@Z 000000018000c444 f   MSVCRT:dll_dllmain.obj
 0001:0000b53c       ?dllmain_raw@@YAHQEAUHINSTANCE__@@KQEAX@Z 000000018000c53c f   MSVCRT:dll_dllmain.obj
 0001:0000b5d0       $$000000                   000000018000c5d0     MSVCRT:_chkstk_.obj
 0001:0000b8e0       capture_previous_context   000000018000c8e0 f   MSVCRT:gs_report.obj
 0001:0000c2e0       $$000000                   000000018000d2e0     MSVCRT:_guard_dispatch_.obj
 0001:0000c300       ?catch$0@?0???$_Buynode@AEBUpiecewise_construct_t@std@@V?$tuple@AEBH@2@V?$tuple@$$V@2@@?$_Tree_comp_alloc@V?$_Tmap_traits@HIU?$less@H@std@@V?$allocator@U?$pair@$$CBHI@std@@@2@$0A@@std@@@std@@QEAAPEAU?$_Tree_node@U?$pair@$$CBHI@std@@PEAX@1@AEBUpiecewise_construct_t@1@$$QEAV?$tuple@AEBH@1@$$QEAV?$tuple@$$V@1@@Z@4HA 000000018000d300 f   game.obj
 0001:0000c30d       __catch$??$_Buynode@AEBUpiecewise_construct_t@std@@V?$tuple@AEBH@2@V?$tuple@$$V@2@@?$_Tree_comp_alloc@V?$_Tmap_traits@HIU?$less@H@std@@V?$allocator@U?$pair@$$CBHI@std@@@2@$0A@@std@@@std@@QEAAPEAU?$_Tree_node@U?$pair@$$CBHI@std@@PEAX@1@AEBUpiecewise_construct_t@1@$$QEAV?$tuple@AEBH@1@$$QEAV?$tuple@$$V@1@@Z$0 000000018000d30d f   game.obj
 0001:0000c340       ?catch$0@?0???$_Buynode@AEBUpiecewise_construct_t@std@@V?$tuple@AEBH@2@V?$tuple@$$V@2@@?$_Tree_comp_alloc@V?$_Tmap_traits@H_NU?$less@H@std@@V?$allocator@U?$pair@$$CBH_N@std@@@2@$0A@@std@@@std@@QEAAPEAU?$_Tree_node@U?$pair@$$CBH_N@std@@PEAX@1@AEBUpiecewise_construct_t@1@$$QEAV?$tuple@AEBH@1@$$QEAV?$tuple@$$V@1@@Z@4HA 000000018000d340 f   game.obj
 0001:0000c34d       __catch$??$_Buynode@AEBUpiecewise_construct_t@std@@V?$tuple@AEBH@2@V?$tuple@$$V@2@@?$_Tree_comp_alloc@V?$_Tmap_traits@H_NU?$less@H@std@@V?$allocator@U?$pair@$$CBH_N@std@@@2@$0A@@std@@@std@@QEAAPEAU?$_Tree_node@U?$pair@$$CBH_N@std@@PEAX@1@AEBUpiecewise_construct_t@1@$$QEAV?$tuple@AEBH@1@$$QEAV?$tuple@$$V@1@@Z$0 000000018000d34d f   game.obj
 0001:0000c380       ?catch$0@?0???$_Insert_hint@AEAU?$pair@$$CBHI@std@@PEAU?$_Tree_node@U?$pair@$$CBHI@std@@PEAX@2@@?$_Tree@V?$_Tmap_traits@HIU?$less@H@std@@V?$allocator@U?$pair@$$CBHI@std@@@2@$0A@@std@@@std@@IEAA?AV?$_Tree_iterator@V?$_Tree_val@U?$_Tree_simple_types@U?$pair@$$CBHI@std@@@std@@@std@@@1@V?$_Tree_const_iterator@V?$_Tree_val@U?$_Tree_simple_types@U?$pair@$$CBHI@std@@@std@@@std@@@1@AEAU?$pair@$$CBHI@1@PEAU?$_Tree_node@U?$pair@$$CBHI@std@@PEAX@1@@Z@4HA 000000018000d380 f   game.obj
 0001:0000c38d       __catch$??$_Insert_hint@AEAU?$pair@$$CBHI@std@@PEAU?$_Tree_node@U?$pair@$$CBHI@std@@PEAX@2@@?$_Tree@V?$_Tmap_traits@HIU?$less@H@std@@V?$allocator@U?$pair@$$CBHI@std@@@2@$0A@@std@@@std@@IEAA?AV?$_Tree_iterator@V?$_Tree_val@U?$_Tree_simple_types@U?$pair@$$CBHI@std@@@std@@@std@@@1@V?$_Tree_const_iterator@V?$_Tree_val@U?$_Tree_simple_types@U?$pair@$$CBHI@std@@@std@@@std@@@1@AEAU?$pair@$$CBHI@1@PEAU?$_Tree_node@U?$pair@$$CBHI@std@@PEAX@1@@Z$0 000000018000d38d f   game.obj
 0001:0000c3c0       ?catch$0@?0???$_Insert_hint@AEAU?$pair@$$CBH_N@std@@PEAU?$_Tree_node@U?$pair@$$CBH_N@std@@PEAX@2@@?$_Tree@V?$_Tmap_traits@H_NU?$less@H@std@@V?$allocator@U?$pair@$$CBH_N@std@@@2@$0A@@std@@@std@@IEAA?AV?$_Tree_iterator@V?$_Tree_val@U?$_Tree_simple_types@U?$pair@$$CBH_N@std@@@std@@@std@@@1@V?$_Tree_const_iterator@V?$_Tree_val@U?$_Tree_simple_types@U?$pair@$$CBH_N@std@@@std@@@std@@@1@AEAU?$pair@$$CBH_N@1@PEAU?$_Tree_node@U?$pair@$$CBH_N@std@@PEAX@1@@Z@4HA 000000018000d3c0 f   game.obj
 0001:0000c3cd       __catch$??$_Insert_hint@AEAU?$pair@$$CBH_N@std@@PEAU?$_Tree_node@U?$pair@$$CBH_N@std@@PEAX@2@@?$_Tree@V?$_Tmap_traits@H_NU?$less@H@std@@V?$allocator@U?$pair@$$CBH_N@std@@@2@$0A@@std@@@std@@IEAA?AV?$_Tree_iterator@V?$_Tree_val@U?$_Tree_simple_types@U?$pair@$$CBH_N@std@@@std@@@std@@@1@V?$_Tree_const_iterator@V?$_Tree_val@U?$_Tree_simple_types@U?$pair@$$CBH_N@std@@@std@@@std@@@1@AEAU?$pair@$$CBH_N@1@PEAU?$_Tree_node@U?$pair@$$CBH_N@std@@PEAX@1@@Z$0 000000018000d3cd f   game.obj
 0001:0000c400       ?catch$0@?0???$_Insert_nohint@AEAU?$pair@$$CBHI@std@@PEAU?$_Tree_node@U?$pair@$$CBHI@std@@PEAX@2@@?$_Tree@V?$_Tmap_traits@HIU?$less@H@std@@V?$allocator@U?$pair@$$CBHI@std@@@2@$0A@@std@@@std@@IEAA?AU?$pair@V?$_Tree_iterator@V?$_Tree_val@U?$_Tree_simple_types@U?$pair@$$CBHI@std@@@std@@@std@@@std@@_N@1@_NAEAU?$pair@$$CBHI@1@PEAU?$_Tree_node@U?$pair@$$CBHI@std@@PEAX@1@@Z@4HA 000000018000d400 f   game.obj
 0001:0000c40d       __catch$??$_Insert_nohint@AEAU?$pair@$$CBHI@std@@PEAU?$_Tree_node@U?$pair@$$CBHI@std@@PEAX@2@@?$_Tree@V?$_Tmap_traits@HIU?$less@H@std@@V?$allocator@U?$pair@$$CBHI@std@@@2@$0A@@std@@@std@@IEAA?AU?$pair@V?$_Tree_iterator@V?$_Tree_val@U?$_Tree_simple_types@U?$pair@$$CBHI@std@@@std@@@std@@@std@@_N@1@_NAEAU?$pair@$$CBHI@1@PEAU?$_Tree_node@U?$pair@$$CBHI@std@@PEAX@1@@Z$0 000000018000d40d f   game.obj
 0001:0000c440       ?catch$0@?0???$_Insert_nohint@AEAU?$pair@$$CBH_N@std@@PEAU?$_Tree_node@U?$pair@$$CBH_N@std@@PEAX@2@@?$_Tree@V?$_Tmap_traits@H_NU?$less@H@std@@V?$allocator@U?$pair@$$CBH_N@std@@@2@$0A@@std@@@std@@IEAA?AU?$pair@V?$_Tree_iterator@V?$_Tree_val@U?$_Tree_simple_types@U?$pair@$$CBH_N@std@@@std@@@std@@@std@@_N@1@_NAEAU?$pair@$$CBH_N@1@PEAU?$_Tree_node@U?$pair@$$CBH_N@std@@PEAX@1@@Z@4HA 000000018000d440 f   game.obj
 0001:0000c44d       __catch$??$_Insert_nohint@AEAU?$pair@$$CBH_N@std@@PEAU?$_Tree_node@U?$pair@$$CBH_N@std@@PEAX@2@@?$_Tree@V?$_Tmap_traits@H_NU?$less@H@std@@V?$allocator@U?$pair@$$CBH_N@std@@@2@$0A@@std@@@std@@IEAA?AU?$pair@V?$_Tree_iterator@V?$_Tree_val@U?$_Tree_simple_types@U?$pair@$$CBH_N@std@@@std@@@std@@@std@@_N@1@_NAEAU?$pair@$$CBH_N@1@PEAU?$_Tree_node@U?$pair@$$CBH_N@std@@PEAX@1@@Z$0 000000018000d44d f   game.obj
 0001:0000c480       ?dtor$0@?0???$construct@U?$pair@$$CBHI@std@@AEBUpiecewise_construct_t@2@V?$tuple@AEBH@2@V?$tuple@$$V@2@@?$allocator@U?$_Tree_node@U?$pair@$$CBHI@std@@PEAX@std@@@std@@QEAAXPEAU?$pair@$$CBHI@1@AEBUpiecewise_construct_t@1@$$QEAV?$tuple@AEBH@1@$$QEAV?$tuple@$$V@1@@Z@4HA 000000018000d480 f   game.obj
 0001:0000c480       ?dtor$0@?0???$construct@U?$pair@$$CBH_N@std@@AEBUpiecewise_construct_t@2@V?$tuple@AEBH@2@V?$tuple@$$V@2@@?$allocator@U?$_Tree_node@U?$pair@$$CBH_N@std@@PEAX@std@@@std@@QEAAXPEAU?$pair@$$CBH_N@1@AEBUpiecewise_construct_t@1@$$QEAV?$tuple@AEBH@1@$$QEAV?$tuple@$$V@1@@Z@4HA 000000018000d480 f   game.obj
 0001:0000c4a0       ?catch$0@?0??_Buynode0@?$_Tree_comp_alloc@V?$_Tmap_traits@HIU?$less@H@std@@V?$allocator@U?$pair@$$CBHI@std@@@2@$0A@@std@@@std@@QEAAPEAU?$_Tree_node@U?$pair@$$CBHI@std@@PEAX@2@XZ@4HA 000000018000d4a0 f   game.obj
 0001:0000c4ad       __catch$?_Buynode0@?$_Tree_comp_alloc@V?$_Tmap_traits@HIU?$less@H@std@@V?$allocator@U?$pair@$$CBHI@std@@@2@$0A@@std@@@std@@QEAAPEAU?$_Tree_node@U?$pair@$$CBHI@std@@PEAX@2@XZ$0 000000018000d4ad f   game.obj
 0001:0000c4f0       ?catch$0@?0??_Buynode0@?$_Tree_comp_alloc@V?$_Tmap_traits@H_NU?$less@H@std@@V?$allocator@U?$pair@$$CBH_N@std@@@2@$0A@@std@@@std@@QEAAPEAU?$_Tree_node@U?$pair@$$CBH_N@std@@PEAX@2@XZ@4HA 000000018000d4f0 f   game.obj
 0001:0000c4fd       __catch$?_Buynode0@?$_Tree_comp_alloc@V?$_Tmap_traits@H_NU?$less@H@std@@V?$allocator@U?$pair@$$CBH_N@std@@@2@$0A@@std@@@std@@QEAAPEAU?$_Tree_node@U?$pair@$$CBH_N@std@@PEAX@2@XZ$0 000000018000d4fd f   game.obj
 0001:0000c533       ?fin$0@?0??dllmain_crt_process_attach@@YAHQEAUHINSTANCE__@@QEAX@Z@4HA 000000018000d533 f   MSVCRT:dll_dllmain.obj
 0001:0000c54a       ?fin$0@?0??dllmain_crt_process_detach@@YAH_N@Z@4HA 000000018000d54a f   MSVCRT:dll_dllmain.obj
 0001:0000c566       ?filt$0@?0??dllmain_dispatch@@YAHQEAUHINSTANCE__@@KQEAX@Z@4HA 000000018000d566 f   MSVCRT:dll_dllmain.obj
 0001:0000c59c       __scrt_is_nonwritable_in_current_image$filt$0 000000018000d59c f   MSVCRT:utility.obj
 0002:000002e0       $SG116780                  000000018000e2e0     game.obj
 0002:00000300       $SG116781                  000000018000e300     game.obj
 0002:00000304       $SG133496                  000000018000e304     game.obj
 0002:00000306       $SG133497                  000000018000e306     game.obj
 0002:00000307       ?piecewise_construct@std@@3Upiecewise_construct_t@1@B 000000018000e307     game.obj
 0002:00000308       $SG132284                  000000018000e308     game.obj
 0002:00000328       $SG132285                  000000018000e328     game.obj
 0002:00000348       $SG132286                  000000018000e348     game.obj
 0002:00000368       $SG132287                  000000018000e368     game.obj
 0002:00000390       $SG133500                  000000018000e390     game.obj
 0002:00000398       $SG133503                  000000018000e398     game.obj
 0002:000003a0       $SG133504                  000000018000e3a0     game.obj
 0002:000003ac       $SG133509                  000000018000e3ac     game.obj
 0002:000003b0       $SG133505                  000000018000e3b0     game.obj
 0002:000003c0       $SG133508                  000000018000e3c0     game.obj
 0002:000003c8       $SG133512                  000000018000e3c8     game.obj
 0002:000003cc       $SG133513                  000000018000e3cc     game.obj
 0002:000003d0       $SG133514                  000000018000e3d0     game.obj
 0002:000003e0       $SG133517                  000000018000e3e0     game.obj
 0002:000003e8       $SG133518                  000000018000e3e8     game.obj
 0002:000003ec       $SG133521                  000000018000e3ec     game.obj
 0002:000003f0       $SG133524                  000000018000e3f0     game.obj
 0002:000003f4       $SG133525                  000000018000e3f4     game.obj
 0002:000003f8       $SG133526                  000000018000e3f8     game.obj
 0002:00000418       $SG133527                  000000018000e418     game.obj
 0002:00000430       $cppxdata$?_Buynode0@?$_Tree_comp_alloc@V?$_Tmap_traits@H_NU?$less@H@std@@V?$allocator@U?$pair@$$CBH_N@std@@@2@$0A@@std@@@std@@QEAAPEAU?$_Tree_node@U?$pair@$$CBH_N@std@@PEAX@2@XZ 000000018000e430     game.obj
 0002:00000458       $cppxdata$?begin@?$_Tree@V?$_Tmap_traits@H_NU?$less@H@std@@V?$allocator@U?$pair@$$CBH_N@std@@@2@$0A@@std@@@std@@QEAA?AV?$_Tree_iterator@V?$_Tree_val@U?$_Tree_simple_types@U?$pair@$$CBH_N@std@@@std@@@std@@@2@XZ 000000018000e458     game.obj
 0002:00000480       $cppxdata$?end@?$_Tree@V?$_Tmap_traits@H_NU?$less@H@std@@V?$allocator@U?$pair@$$CBH_N@std@@@2@$0A@@std@@@std@@QEAA?AV?$_Tree_iterator@V?$_Tree_val@U?$_Tree_simple_types@U?$pair@$$CBH_N@std@@@std@@@std@@@2@XZ 000000018000e480     game.obj
 0002:000004a8       $cppxdata$?_Buynode0@?$_Tree_comp_alloc@V?$_Tmap_traits@HIU?$less@H@std@@V?$allocator@U?$pair@$$CBHI@std@@@2@$0A@@std@@@std@@QEAAPEAU?$_Tree_node@U?$pair@$$CBHI@std@@PEAX@2@XZ 000000018000e4a8     game.obj
 0002:000004d0       $cppxdata$?begin@?$_Tree@V?$_Tmap_traits@HIU?$less@H@std@@V?$allocator@U?$pair@$$CBHI@std@@@2@$0A@@std@@@std@@QEAA?AV?$_Tree_iterator@V?$_Tree_val@U?$_Tree_simple_types@U?$pair@$$CBHI@std@@@std@@@std@@@2@XZ 000000018000e4d0     game.obj
 0002:000004f8       $cppxdata$?end@?$_Tree@V?$_Tmap_traits@HIU?$less@H@std@@V?$allocator@U?$pair@$$CBHI@std@@@2@$0A@@std@@@std@@QEAA?AV?$_Tree_iterator@V?$_Tree_val@U?$_Tree_simple_types@U?$pair@$$CBHI@std@@@std@@@std@@@2@XZ 000000018000e4f8     game.obj
 0002:00000520       $cppxdata$??$forward_as_tuple@AEBH@std@@YA?AV?$tuple@AEBH@0@AEBH@Z 000000018000e520     game.obj
 0002:00000548       $cppxdata$??$_Insert_hint@AEAU?$pair@$$CBHI@std@@PEAU?$_Tree_node@U?$pair@$$CBHI@std@@PEAX@2@@?$_Tree@V?$_Tmap_traits@HIU?$less@H@std@@V?$allocator@U?$pair@$$CBHI@std@@@2@$0A@@std@@@std@@IEAA?AV?$_Tree_iterator@V?$_Tree_val@U?$_Tree_simple_types@U?$pair@$$CBHI@std@@@std@@@std@@@1@V?$_Tree_const_iterator@V?$_Tree_val@U?$_Tree_simple_types@U?$pair@$$CBHI@std@@@std@@@std@@@1@AEAU?$pair@$$CBHI@1@PEAU?$_Tree_node@U?$pair@$$CBHI@std@@PEAX@1@@Z 000000018000e548     game.obj
 0002:00000570       $cppxdata$??$_Buynode@AEBUpiecewise_construct_t@std@@V?$tuple@AEBH@2@V?$tuple@$$V@2@@?$_Tree_comp_alloc@V?$_Tmap_traits@HIU?$less@H@std@@V?$allocator@U?$pair@$$CBHI@std@@@2@$0A@@std@@@std@@QEAAPEAU?$_Tree_node@U?$pair@$$CBHI@std@@PEAX@1@AEBUpiecewise_construct_t@1@$$QEAV?$tuple@AEBH@1@$$QEAV?$tuple@$$V@1@@Z 000000018000e570     game.obj
 0002:00000598       $cppxdata$??$_Buynode@AEBUpiecewise_construct_t@std@@V?$tuple@AEBH@2@V?$tuple@$$V@2@@?$_Tree_comp_alloc@V?$_Tmap_traits@H_NU?$less@H@std@@V?$allocator@U?$pair@$$CBH_N@std@@@2@$0A@@std@@@std@@QEAAPEAU?$_Tree_node@U?$pair@$$CBH_N@std@@PEAX@1@AEBUpiecewise_construct_t@1@$$QEAV?$tuple@AEBH@1@$$QEAV?$tuple@$$V@1@@Z 000000018000e598     game.obj
 0002:000005c0       $cppxdata$??$_Insert_hint@AEAU?$pair@$$CBH_N@std@@PEAU?$_Tree_node@U?$pair@$$CBH_N@std@@PEAX@2@@?$_Tree@V?$_Tmap_traits@H_NU?$less@H@std@@V?$allocator@U?$pair@$$CBH_N@std@@@2@$0A@@std@@@std@@IEAA?AV?$_Tree_iterator@V?$_Tree_val@U?$_Tree_simple_types@U?$pair@$$CBH_N@std@@@std@@@std@@@1@V?$_Tree_const_iterator@V?$_Tree_val@U?$_Tree_simple_types@U?$pair@$$CBH_N@std@@@std@@@std@@@1@AEAU?$pair@$$CBH_N@1@PEAU?$_Tree_node@U?$pair@$$CBH_N@std@@PEAX@1@@Z 000000018000e5c0     game.obj
 0002:000005e8       $cppxdata$??$_Insert_nohint@AEAU?$pair@$$CBHI@std@@PEAU?$_Tree_node@U?$pair@$$CBHI@std@@PEAX@2@@?$_Tree@V?$_Tmap_traits@HIU?$less@H@std@@V?$allocator@U?$pair@$$CBHI@std@@@2@$0A@@std@@@std@@IEAA?AU?$pair@V?$_Tree_iterator@V?$_Tree_val@U?$_Tree_simple_types@U?$pair@$$CBHI@std@@@std@@@std@@@std@@_N@1@_NAEAU?$pair@$$CBHI@1@PEAU?$_Tree_node@U?$pair@$$CBHI@std@@PEAX@1@@Z 000000018000e5e8     game.obj
 0002:00000610       $cppxdata$??$_Insert_nohint@AEAU?$pair@$$CBH_N@std@@PEAU?$_Tree_node@U?$pair@$$CBH_N@std@@PEAX@2@@?$_Tree@V?$_Tmap_traits@H_NU?$less@H@std@@V?$allocator@U?$pair@$$CBH_N@std@@@2@$0A@@std@@@std@@IEAA?AU?$pair@V?$_Tree_iterator@V?$_Tree_val@U?$_Tree_simple_types@U?$pair@$$CBH_N@std@@@std@@@std@@@std@@_N@1@_NAEAU?$pair@$$CBH_N@1@PEAU?$_Tree_node@U?$pair@$$CBH_N@std@@PEAX@1@@Z 000000018000e610     game.obj
 0002:00000638       $cppxdata$??$construct@U?$pair@$$CBHI@std@@AEBUpiecewise_construct_t@2@V?$tuple@AEBH@2@V?$tuple@$$V@2@@?$allocator@U?$_Tree_node@U?$pair@$$CBHI@std@@PEAX@std@@@std@@QEAAXPEAU?$pair@$$CBHI@1@AEBUpiecewise_construct_t@1@$$QEAV?$tuple@AEBH@1@$$QEAV?$tuple@$$V@1@@Z 000000018000e638     game.obj
 0002:00000660       $cppxdata$??$construct@U?$pair@$$CBH_N@std@@AEBUpiecewise_construct_t@2@V?$tuple@AEBH@2@V?$tuple@$$V@2@@?$allocator@U?$_Tree_node@U?$pair@$$CBH_N@std@@PEAX@std@@@std@@QEAAXPEAU?$pair@$$CBH_N@1@AEBUpiecewise_construct_t@1@$$QEAV?$tuple@AEBH@1@$$QEAV?$tuple@$$V@1@@Z 000000018000e660     game.obj
 0002:00000b38       _glfwDataFormat            000000018000eb38     glfw3:win32_joystick.c.obj
 0002:00000be8       GS_ExceptionPointers       000000018000ebe8     MSVCRT:gs_report.obj
 0002:000011e0       $unwind$?atan2@@YAMMM@Z    000000018000f1e0     game.obj
 0002:000011e8       $unwind$??$inversesqrt@M@glm@@YAMM@Z 000000018000f1e8     game.obj
 0002:000011e8       $unwind$?sqrt@@YAMM@Z      000000018000f1e8     game.obj
 0002:000011f0       $unwind$??_H@YAXPEAX_K1P6APEAX0@Z@Z 000000018000f1f0     game.obj
 0002:000011f0       $unwind$_vsprintf_l        000000018000f1f0     game.obj
 0002:000011f0       $unwind$sprintf            000000018000f1f0     game.obj
 0002:000011f8       $unwind$?CombineStrings@@YAPEADPEBD0@Z 000000018000f1f8     game.obj
 0002:00001200       $unwind$stb_perlin_noise3  000000018000f200     game.obj
 0002:00001208       $unwind$stb_perlin_ridge_noise3 000000018000f208     game.obj
 0002:00001210       $unwind$stb_perlin_fbm_noise3 000000018000f210     game.obj
 0002:00001218       $unwind$stb_perlin_turbulence_noise3 000000018000f218     game.obj
 0002:00001220       $unwind$?stb__perlin_fastfloor@@YAHM@Z 000000018000f220     game.obj
 0002:00001228       $unwind$?stb__perlin_grad@@YAMHMMM@Z 000000018000f228     game.obj
 0002:00001230       $unwind$?CharacterCallback@@YAXPEAUGLFWwindow@@I@Z 000000018000f230     game.obj
 0002:00001238       $unwind$?GetKey@@YA_NHPEAUgame_state@@@Z 000000018000f238     game.obj
 0002:00001240       $unwind$?GetKeyDown@@YA_NHPEAUgame_state@@@Z 000000018000f240     game.obj
 0002:00001248       $unwind$?PlaySoundEffect@@YAXPEAUgame_state@@PEAUloaded_sound@@@Z 000000018000f248     game.obj
 0002:0000125c       $unwind$?PlaySoundEffectOnce@@YAXPEAUgame_state@@PEAUloaded_sound@@@Z 000000018000f25c     game.obj
 0002:00001270       $unwind$?StopSoundEffect@@YAXPEAUgame_state@@PEAUloaded_sound@@@Z 000000018000f270     game.obj
 0002:00001284       $unwind$?PauseSoundEffect@@YAXPEAUgame_state@@PEAUloaded_sound@@@Z 000000018000f284     game.obj
 0002:00001298       $unwind$?ExecuteCommand@@YAXPEAUgame_state@@@Z 000000018000f298     game.obj
 0002:000012a8       $unwind$Update             000000018000f2a8     game.obj
 0002:000012bc       $unwind$?_Buynode0@?$_Tree_comp_alloc@V?$_Tmap_traits@H_NU?$less@H@std@@V?$allocator@U?$pair@$$CBH_N@std@@@2@$0A@@std@@@std@@QEAAPEAU?$_Tree_node@U?$pair@$$CBH_N@std@@PEAX@2@XZ 000000018000f2bc     game.obj
 0002:000012cc       $stateUnwindMap$??$_Insert_hint@AEAU?$pair@$$CBH_N@std@@PEAU?$_Tree_node@U?$pair@$$CBH_N@std@@PEAX@2@@?$_Tree@V?$_Tmap_traits@H_NU?$less@H@std@@V?$allocator@U?$pair@$$CBH_N@std@@@2@$0A@@std@@@std@@IEAA?AV?$_Tree_iterator@V?$_Tree_val@U?$_Tree_simple_types@U?$pair@$$CBH_N@std@@@std@@@std@@@1@V?$_Tree_const_iterator@V?$_Tree_val@U?$_Tree_simple_types@U?$pair@$$CBH_N@std@@@std@@@std@@@1@AEAU?$pair@$$CBH_N@1@PEAU?$_Tree_node@U?$pair@$$CBH_N@std@@PEAX@1@@Z 000000018000f2cc     game.obj
 0002:000012cc       $stateUnwindMap$??$_Buynode@AEBUpiecewise_construct_t@std@@V?$tuple@AEBH@2@V?$tuple@$$V@2@@?$_Tree_comp_alloc@V?$_Tmap_traits@H_NU?$less@H@std@@V?$allocator@U?$pair@$$CBH_N@std@@@2@$0A@@std@@@std@@QEAAPEAU?$_Tree_node@U?$pair@$$CBH_N@std@@PEAX@1@AEBUpiecewise_construct_t@1@$$QEAV?$tuple@AEBH@1@$$QEAV?$tuple@$$V@1@@Z 000000018000f2cc     game.obj
 0002:000012cc       $stateUnwindMap$?_Buynode0@?$_Tree_comp_alloc@V?$_Tmap_traits@HIU?$less@H@std@@V?$allocator@U?$pair@$$CBHI@std@@@2@$0A@@std@@@std@@QEAAPEAU?$_Tree_node@U?$pair@$$CBHI@std@@PEAX@2@XZ 000000018000f2cc     game.obj
 0002:000012cc       $stateUnwindMap$??$_Insert_nohint@AEAU?$pair@$$CBH_N@std@@PEAU?$_Tree_node@U?$pair@$$CBH_N@std@@PEAX@2@@?$_Tree@V?$_Tmap_traits@H_NU?$less@H@std@@V?$allocator@U?$pair@$$CBH_N@std@@@2@$0A@@std@@@std@@IEAA?AU?$pair@V?$_Tree_iterator@V?$_Tree_val@U?$_Tree_simple_types@U?$pair@$$CBH_N@std@@@std@@@std@@@std@@_N@1@_NAEAU?$pair@$$CBH_N@1@PEAU?$_Tree_node@U?$pair@$$CBH_N@std@@PEAX@1@@Z 000000018000f2cc     game.obj
 0002:000012cc       $stateUnwindMap$?_Buynode0@?$_Tree_comp_alloc@V?$_Tmap_traits@H_NU?$less@H@std@@V?$allocator@U?$pair@$$CBH_N@std@@@2@$0A@@std@@@std@@QEAAPEAU?$_Tree_node@U?$pair@$$CBH_N@std@@PEAX@2@XZ 000000018000f2cc     game.obj
 0002:000012cc       $stateUnwindMap$??$_Insert_nohint@AEAU?$pair@$$CBHI@std@@PEAU?$_Tree_node@U?$pair@$$CBHI@std@@PEAX@2@@?$_Tree@V?$_Tmap_traits@HIU?$less@H@std@@V?$allocator@U?$pair@$$CBHI@std@@@2@$0A@@std@@@std@@IEAA?AU?$pair@V?$_Tree_iterator@V?$_Tree_val@U?$_Tree_simple_types@U?$pair@$$CBHI@std@@@std@@@std@@@std@@_N@1@_NAEAU?$pair@$$CBHI@1@PEAU?$_Tree_node@U?$pair@$$CBHI@std@@PEAX@1@@Z 000000018000f2cc     game.obj
 0002:000012cc       $stateUnwindMap$??$_Insert_hint@AEAU?$pair@$$CBHI@std@@PEAU?$_Tree_node@U?$pair@$$CBHI@std@@PEAX@2@@?$_Tree@V?$_Tmap_traits@HIU?$less@H@std@@V?$allocator@U?$pair@$$CBHI@std@@@2@$0A@@std@@@std@@IEAA?AV?$_Tree_iterator@V?$_Tree_val@U?$_Tree_simple_types@U?$pair@$$CBHI@std@@@std@@@std@@@1@V?$_Tree_const_iterator@V?$_Tree_val@U?$_Tree_simple_types@U?$pair@$$CBHI@std@@@std@@@std@@@1@AEAU?$pair@$$CBHI@1@PEAU?$_Tree_node@U?$pair@$$CBHI@std@@PEAX@1@@Z 000000018000f2cc     game.obj
 0002:000012cc       $stateUnwindMap$??$_Buynode@AEBUpiecewise_construct_t@std@@V?$tuple@AEBH@2@V?$tuple@$$V@2@@?$_Tree_comp_alloc@V?$_Tmap_traits@HIU?$less@H@std@@V?$allocator@U?$pair@$$CBHI@std@@@2@$0A@@std@@@std@@QEAAPEAU?$_Tree_node@U?$pair@$$CBHI@std@@PEAX@1@AEBUpiecewise_construct_t@1@$$QEAV?$tuple@AEBH@1@$$QEAV?$tuple@$$V@1@@Z 000000018000f2cc     game.obj
 0002:000012dc       $tryMap$?_Buynode0@?$_Tree_comp_alloc@V?$_Tmap_traits@H_NU?$less@H@std@@V?$allocator@U?$pair@$$CBH_N@std@@@2@$0A@@std@@@std@@QEAAPEAU?$_Tree_node@U?$pair@$$CBH_N@std@@PEAX@2@XZ 000000018000f2dc     game.obj
 0002:000012f0       $handlerMap$0$?_Buynode0@?$_Tree_comp_alloc@V?$_Tmap_traits@H_NU?$less@H@std@@V?$allocator@U?$pair@$$CBH_N@std@@@2@$0A@@std@@@std@@QEAAPEAU?$_Tree_node@U?$pair@$$CBH_N@std@@PEAX@2@XZ 000000018000f2f0     game.obj
 0002:00001308       $ip2state$?_Buynode0@?$_Tree_comp_alloc@V?$_Tmap_traits@H_NU?$less@H@std@@V?$allocator@U?$pair@$$CBH_N@std@@@2@$0A@@std@@@std@@QEAAPEAU?$_Tree_node@U?$pair@$$CBH_N@std@@PEAX@2@XZ 000000018000f308     game.obj
 0002:00001338       $unwind$?catch$0@?0??_Buynode0@?$_Tree_comp_alloc@V?$_Tmap_traits@H_NU?$less@H@std@@V?$allocator@U?$pair@$$CBH_N@std@@@2@$0A@@std@@@std@@QEAAPEAU?$_Tree_node@U?$pair@$$CBH_N@std@@PEAX@2@XZ@4HA 000000018000f338     game.obj
 0002:00001348       $unwind$??R?$less@H@std@@QEBA_NAEBH0@Z 000000018000f348     game.obj
 0002:00001350       $unwind$?begin@?$_Tree@V?$_Tmap_traits@H_NU?$less@H@std@@V?$allocator@U?$pair@$$CBH_N@std@@@2@$0A@@std@@@std@@QEAA?AV?$_Tree_iterator@V?$_Tree_val@U?$_Tree_simple_types@U?$pair@$$CBH_N@std@@@std@@@std@@@2@XZ 000000018000f350     game.obj
 0002:00001360       $ip2state$?begin@?$_Tree@V?$_Tmap_traits@H_NU?$less@H@std@@V?$allocator@U?$pair@$$CBH_N@std@@@2@$0A@@std@@@std@@QEAA?AV?$_Tree_iterator@V?$_Tree_val@U?$_Tree_simple_types@U?$pair@$$CBH_N@std@@@std@@@std@@@2@XZ 000000018000f360     game.obj
 0002:00001368       $unwind$?end@?$_Tree@V?$_Tmap_traits@H_NU?$less@H@std@@V?$allocator@U?$pair@$$CBH_N@std@@@2@$0A@@std@@@std@@QEAA?AV?$_Tree_iterator@V?$_Tree_val@U?$_Tree_simple_types@U?$pair@$$CBH_N@std@@@std@@@std@@@2@XZ 000000018000f368     game.obj
 0002:00001378       $ip2state$?end@?$_Tree@V?$_Tmap_traits@H_NU?$less@H@std@@V?$allocator@U?$pair@$$CBH_N@std@@@2@$0A@@std@@@std@@QEAA?AV?$_Tree_iterator@V?$_Tree_val@U?$_Tree_simple_types@U?$pair@$$CBH_N@std@@@std@@@std@@@2@XZ 000000018000f378     game.obj
 0002:00001380       $unwind$?_Buynode0@?$_Tree_comp_alloc@V?$_Tmap_traits@HIU?$less@H@std@@V?$allocator@U?$pair@$$CBHI@std@@@2@$0A@@std@@@std@@QEAAPEAU?$_Tree_node@U?$pair@$$CBHI@std@@PEAX@2@XZ 000000018000f380     game.obj
 0002:00001390       $tryMap$?_Buynode0@?$_Tree_comp_alloc@V?$_Tmap_traits@HIU?$less@H@std@@V?$allocator@U?$pair@$$CBHI@std@@@2@$0A@@std@@@std@@QEAAPEAU?$_Tree_node@U?$pair@$$CBHI@std@@PEAX@2@XZ 000000018000f390     game.obj
 0002:000013a4       $handlerMap$0$?_Buynode0@?$_Tree_comp_alloc@V?$_Tmap_traits@HIU?$less@H@std@@V?$allocator@U?$pair@$$CBHI@std@@@2@$0A@@std@@@std@@QEAAPEAU?$_Tree_node@U?$pair@$$CBHI@std@@PEAX@2@XZ 000000018000f3a4     game.obj
 0002:000013b8       $ip2state$?_Buynode0@?$_Tree_comp_alloc@V?$_Tmap_traits@HIU?$less@H@std@@V?$allocator@U?$pair@$$CBHI@std@@@2@$0A@@std@@@std@@QEAAPEAU?$_Tree_node@U?$pair@$$CBHI@std@@PEAX@2@XZ 000000018000f3b8     game.obj
 0002:000013e8       $unwind$?catch$0@?0??_Buynode0@?$_Tree_comp_alloc@V?$_Tmap_traits@HIU?$less@H@std@@V?$allocator@U?$pair@$$CBHI@std@@@2@$0A@@std@@@std@@QEAAPEAU?$_Tree_node@U?$pair@$$CBHI@std@@PEAX@2@XZ@4HA 000000018000f3e8     game.obj
 0002:000013f8       $unwind$?_Freenode0@?$_Tree_comp_alloc@V?$_Tmap_traits@H_NU?$less@H@std@@V?$allocator@U?$pair@$$CBH_N@std@@@2@$0A@@std@@@std@@QEAAXPEAU?$_Tree_node@U?$pair@$$CBH_N@std@@PEAX@2@@Z 000000018000f3f8     game.obj
 0002:000013f8       $unwind$?_Rrotate@?$_Tree@V?$_Tmap_traits@H_NU?$less@H@std@@V?$allocator@U?$pair@$$CBH_N@std@@@2@$0A@@std@@@std@@IEAAXPEAU?$_Tree_node@U?$pair@$$CBH_N@std@@PEAX@2@@Z 000000018000f3f8     game.obj
 0002:000013f8       $unwind$?_Lrotate@?$_Tree@V?$_Tmap_traits@H_NU?$less@H@std@@V?$allocator@U?$pair@$$CBH_N@std@@@2@$0A@@std@@@std@@IEAAXPEAU?$_Tree_node@U?$pair@$$CBH_N@std@@PEAX@2@@Z 000000018000f3f8     game.obj
 0002:000013f8       $unwind$?_Rrotate@?$_Tree@V?$_Tmap_traits@HIU?$less@H@std@@V?$allocator@U?$pair@$$CBHI@std@@@2@$0A@@std@@@std@@IEAAXPEAU?$_Tree_node@U?$pair@$$CBHI@std@@PEAX@2@@Z 000000018000f3f8     game.obj
 0002:000013f8       $unwind$?_Lrotate@?$_Tree@V?$_Tmap_traits@HIU?$less@H@std@@V?$allocator@U?$pair@$$CBHI@std@@@2@$0A@@std@@@std@@IEAAXPEAU?$_Tree_node@U?$pair@$$CBHI@std@@PEAX@2@@Z 000000018000f3f8     game.obj
 0002:000013f8       $unwind$?_Freenode0@?$_Tree_comp_alloc@V?$_Tmap_traits@HIU?$less@H@std@@V?$allocator@U?$pair@$$CBHI@std@@@2@$0A@@std@@@std@@QEAAXPEAU?$_Tree_node@U?$pair@$$CBHI@std@@PEAX@2@@Z 000000018000f3f8     game.obj
 0002:00001400       $unwind$?_Getal@?$_Tree_comp_alloc@V?$_Tmap_traits@HIU?$less@H@std@@V?$allocator@U?$pair@$$CBHI@std@@@2@$0A@@std@@@std@@QEAAAEAU?$_Wrap_alloc@V?$allocator@U?$_Tree_node@U?$pair@$$CBHI@std@@PEAX@std@@@std@@@2@XZ 000000018000f400     game.obj
 0002:00001400       $unwind$?_Getcomp@?$_Tree_comp_alloc@V?$_Tmap_traits@HIU?$less@H@std@@V?$allocator@U?$pair@$$CBHI@std@@@2@$0A@@std@@@std@@QEBAAEBU?$less@H@2@XZ 000000018000f400     game.obj
 0002:00001400       $unwind$?_Getcomp@?$_Tree_comp_alloc@V?$_Tmap_traits@HIU?$less@H@std@@V?$allocator@U?$pair@$$CBHI@std@@@2@$0A@@std@@@std@@QEAAAEAU?$less@H@2@XZ 000000018000f400     game.obj
 0002:00001400       $unwind$??D?$_Tree_const_iterator@V?$_Tree_val@U?$_Tree_simple_types@U?$pair@$$CBHI@std@@@std@@@std@@@std@@QEBAAEBU?$pair@$$CBHI@1@XZ 000000018000f400     game.obj
 0002:00001400       $unwind$??0?$_Tree_const_iterator@V?$_Tree_val@U?$_Tree_simple_types@U?$pair@$$CBHI@std@@@std@@@std@@@std@@QEAA@XZ 000000018000f400     game.obj
 0002:00001400       $unwind$??E?$_Tree_const_iterator@V?$_Tree_val@U?$_Tree_simple_types@U?$pair@$$CBHI@std@@@std@@@std@@@std@@QEAAAEAV01@XZ 000000018000f400     game.obj
 0002:00001400       $unwind$?_Getal@?$_Tree_comp_alloc@V?$_Tmap_traits@HIU?$less@H@std@@V?$allocator@U?$pair@$$CBHI@std@@@2@$0A@@std@@@std@@QEBAAEBU?$_Wrap_alloc@V?$allocator@U?$_Tree_node@U?$pair@$$CBHI@std@@PEAX@std@@@std@@@2@XZ 000000018000f400     game.obj
 0002:00001400       $unwind$??F?$_Tree_const_iterator@V?$_Tree_val@U?$_Tree_simple_types@U?$pair@$$CBHI@std@@@std@@@std@@@std@@QEAAAEAV01@XZ 000000018000f400     game.obj
 0002:00001400       $unwind$?_Get_data@?$_Tree_comp_alloc@V?$_Tmap_traits@H_NU?$less@H@std@@V?$allocator@U?$pair@$$CBH_N@std@@@2@$0A@@std@@@std@@QEAAAEAV?$_Tree_val@U?$_Tree_simple_types@U?$pair@$$CBH_N@std@@@std@@@2@XZ 000000018000f400     game.obj
 0002:00001400       $unwind$?pointer_to@?$pointer_traits@PEAU?$pair@$$CBH_N@std@@@std@@SAPEAU?$pair@$$CBH_N@2@AEAU32@@Z 000000018000f400     game.obj
 0002:00001400       $unwind$?_Get_data@?$_Tree_comp_alloc@V?$_Tmap_traits@HIU?$less@H@std@@V?$allocator@U?$pair@$$CBHI@std@@@2@$0A@@std@@@std@@QEAAAEAV?$_Tree_val@U?$_Tree_simple_types@U?$pair@$$CBHI@std@@@std@@@2@XZ 000000018000f400     game.obj
 0002:00001400       $unwind$?_Getal@?$_Tree_comp_alloc@V?$_Tmap_traits@H_NU?$less@H@std@@V?$allocator@U?$pair@$$CBH_N@std@@@2@$0A@@std@@@std@@QEBAAEBU?$_Wrap_alloc@V?$allocator@U?$_Tree_node@U?$pair@$$CBH_N@std@@PEAX@std@@@std@@@2@XZ 000000018000f400     game.obj
 0002:00001400       $unwind$?_Get_data@?$_Tree_comp_alloc@V?$_Tmap_traits@HIU?$less@H@std@@V?$allocator@U?$pair@$$CBHI@std@@@2@$0A@@std@@@std@@QEBAAEBV?$_Tree_val@U?$_Tree_simple_types@U?$pair@$$CBHI@std@@@std@@@2@XZ 000000018000f400     game.obj
 0002:00001400       $unwind$??D?$_Tree_iterator@V?$_Tree_val@U?$_Tree_simple_types@U?$pair@$$CBHI@std@@@std@@@std@@@std@@QEBAAEAU?$pair@$$CBHI@1@XZ 000000018000f400     game.obj
 0002:00001400       $unwind$?_Myhead@?$_Tree_comp_alloc@V?$_Tmap_traits@HIU?$less@H@std@@V?$allocator@U?$pair@$$CBHI@std@@@2@$0A@@std@@@std@@QEAAAEAPEAU?$_Tree_node@U?$pair@$$CBHI@std@@PEAX@2@XZ 000000018000f400     game.obj
 0002:00001400       $unwind$??C?$_Tree_iterator@V?$_Tree_val@U?$_Tree_simple_types@U?$pair@$$CBHI@std@@@std@@@std@@@std@@QEBAPEAU?$pair@$$CBHI@1@XZ 000000018000f400     game.obj
 0002:00001400       $unwind$?_Getal@?$_Tree_comp_alloc@V?$_Tmap_traits@H_NU?$less@H@std@@V?$allocator@U?$pair@$$CBH_N@std@@@2@$0A@@std@@@std@@QEAAAEAU?$_Wrap_alloc@V?$allocator@U?$_Tree_node@U?$pair@$$CBH_N@std@@PEAX@std@@@std@@@2@XZ 000000018000f400     game.obj
 0002:00001400       $unwind$??F?$_Tree_iterator@V?$_Tree_val@U?$_Tree_simple_types@U?$pair@$$CBHI@std@@@std@@@std@@@std@@QEAAAEAV01@XZ 000000018000f400     game.obj
 0002:00001400       $unwind$?_Myval@?$_Tree_comp_alloc@V?$_Tmap_traits@HIU?$less@H@std@@V?$allocator@U?$pair@$$CBHI@std@@@2@$0A@@std@@@std@@SAAEAU?$pair@$$CBHI@2@PEAU?$_Tree_node@U?$pair@$$CBHI@std@@PEAX@2@@Z 000000018000f400     game.obj
 0002:00001400       $unwind$?_Myhead@?$_Tree_comp_alloc@V?$_Tmap_traits@HIU?$less@H@std@@V?$allocator@U?$pair@$$CBHI@std@@@2@$0A@@std@@@std@@QEBAAEBQEAU?$_Tree_node@U?$pair@$$CBHI@std@@PEAX@2@XZ 000000018000f400     game.obj
 0002:00001400       $unwind$?_Right@?$_Tree_comp_alloc@V?$_Tmap_traits@HIU?$less@H@std@@V?$allocator@U?$pair@$$CBHI@std@@@2@$0A@@std@@@std@@SAAEAPEAU?$_Tree_node@U?$pair@$$CBHI@std@@PEAX@2@PEAU32@@Z 000000018000f400     game.obj
 0002:00001400       $unwind$?_Getcomp@?$_Tree_comp_alloc@V?$_Tmap_traits@H_NU?$less@H@std@@V?$allocator@U?$pair@$$CBH_N@std@@@2@$0A@@std@@@std@@QEBAAEBU?$less@H@2@XZ 000000018000f400     game.obj
 0002:00001400       $unwind$?_Mysize@?$_Tree_comp_alloc@V?$_Tmap_traits@HIU?$less@H@std@@V?$allocator@U?$pair@$$CBHI@std@@@2@$0A@@std@@@std@@QEAAAEA_KXZ 000000018000f400     game.obj
 0002:00001400       $unwind$?_Getcomp@?$_Tree_comp_alloc@V?$_Tmap_traits@H_NU?$less@H@std@@V?$allocator@U?$pair@$$CBH_N@std@@@2@$0A@@std@@@std@@QEAAAEAU?$less@H@2@XZ 000000018000f400     game.obj
 0002:00001400       $unwind$?_Parent@?$_Tree_comp_alloc@V?$_Tmap_traits@HIU?$less@H@std@@V?$allocator@U?$pair@$$CBHI@std@@@2@$0A@@std@@@std@@SAAEAPEAU?$_Tree_node@U?$pair@$$CBHI@std@@PEAX@2@PEAU32@@Z 000000018000f400     game.obj
 0002:00001400       $unwind$?_Mysize@?$_Tree_comp_alloc@V?$_Tmap_traits@HIU?$less@H@std@@V?$allocator@U?$pair@$$CBHI@std@@@2@$0A@@std@@@std@@QEBAAEB_KXZ 000000018000f400     game.obj
 0002:00001400       $unwind$?_Get_data@?$_Tree_comp_alloc@V?$_Tmap_traits@H_NU?$less@H@std@@V?$allocator@U?$pair@$$CBH_N@std@@@2@$0A@@std@@@std@@QEBAAEBV?$_Tree_val@U?$_Tree_simple_types@U?$pair@$$CBH_N@std@@@std@@@2@XZ 000000018000f400     game.obj
 0002:00001400       $unwind$?_Max@?$_Tree_val@U?$_Tree_simple_types@U?$pair@$$CBHI@std@@@std@@@std@@SAPEAU?$_Tree_node@U?$pair@$$CBHI@std@@PEAX@2@PEAU32@@Z 000000018000f400     game.obj
 0002:00001400       $unwind$?_Left@?$_Tree_comp_alloc@V?$_Tmap_traits@HIU?$less@H@std@@V?$allocator@U?$pair@$$CBHI@std@@@2@$0A@@std@@@std@@SAAEAPEAU?$_Tree_node@U?$pair@$$CBHI@std@@PEAX@2@PEAU32@@Z 000000018000f400     game.obj
 0002:00001400       $unwind$?_Min@?$_Tree_val@U?$_Tree_simple_types@U?$pair@$$CBHI@std@@@std@@@std@@SAPEAU?$_Tree_node@U?$pair@$$CBHI@std@@PEAX@2@PEAU32@@Z 000000018000f400     game.obj
 0002:00001400       $unwind$?pointer_to@?$pointer_traits@PEAU?$pair@$$CBHI@std@@@std@@SAPEAU?$pair@$$CBHI@2@AEAU32@@Z 000000018000f400     game.obj
 0002:00001400       $unwind$??$forward_as_tuple@$$V@std@@YA?AV?$tuple@$$V@0@XZ 000000018000f400     game.obj
 0002:00001400       $unwind$?_Myhead@?$_Tree_comp_alloc@V?$_Tmap_traits@H_NU?$less@H@std@@V?$allocator@U?$pair@$$CBH_N@std@@@2@$0A@@std@@@std@@QEAAAEAPEAU?$_Tree_node@U?$pair@$$CBH_N@std@@PEAX@2@XZ 000000018000f400     game.obj
 0002:00001400       $unwind$?size@?$_Tree@V?$_Tmap_traits@HIU?$less@H@std@@V?$allocator@U?$pair@$$CBHI@std@@@2@$0A@@std@@@std@@QEBA_KXZ 000000018000f400     game.obj
 0002:00001400       $unwind$?_Myval@?$_Tree_comp_alloc@V?$_Tmap_traits@H_NU?$less@H@std@@V?$allocator@U?$pair@$$CBH_N@std@@@2@$0A@@std@@@std@@SAAEAU?$pair@$$CBH_N@2@PEAU?$_Tree_node@U?$pair@$$CBH_N@std@@PEAX@2@@Z 000000018000f400     game.obj
 0002:00001400       $unwind$?_Right@?$_Tree_comp_alloc@V?$_Tmap_traits@H_NU?$less@H@std@@V?$allocator@U?$pair@$$CBH_N@std@@@2@$0A@@std@@@std@@SAAEAPEAU?$_Tree_node@U?$pair@$$CBH_N@std@@PEAX@2@PEAU32@@Z 000000018000f400     game.obj
 0002:00001400       $unwind$?_Isnil@?$_Tree_comp_alloc@V?$_Tmap_traits@HIU?$less@H@std@@V?$allocator@U?$pair@$$CBHI@std@@@2@$0A@@std@@@std@@SAAEADPEAU?$_Tree_node@U?$pair@$$CBHI@std@@PEAX@2@@Z 000000018000f400     game.obj
 0002:00001400       $unwind$??F?$_Tree_iterator@V?$_Tree_val@U?$_Tree_simple_types@U?$pair@$$CBH_N@std@@@std@@@std@@@std@@QEAAAEAV01@XZ 000000018000f400     game.obj
 0002:00001400       $unwind$?_Myhead@?$_Tree_comp_alloc@V?$_Tmap_traits@H_NU?$less@H@std@@V?$allocator@U?$pair@$$CBH_N@std@@@2@$0A@@std@@@std@@QEBAAEBQEAU?$_Tree_node@U?$pair@$$CBH_N@std@@PEAX@2@XZ 000000018000f400     game.obj
 0002:00001400       $unwind$?_Color@?$_Tree_comp_alloc@V?$_Tmap_traits@HIU?$less@H@std@@V?$allocator@U?$pair@$$CBHI@std@@@2@$0A@@std@@@std@@SAAEADPEAU?$_Tree_node@U?$pair@$$CBHI@std@@PEAX@2@@Z 000000018000f400     game.obj
 0002:00001400       $unwind$?_Mysize@?$_Tree_comp_alloc@V?$_Tmap_traits@H_NU?$less@H@std@@V?$allocator@U?$pair@$$CBH_N@std@@@2@$0A@@std@@@std@@QEAAAEA_KXZ 000000018000f400     game.obj
 0002:00001400       $unwind$??C?$_Tree_iterator@V?$_Tree_val@U?$_Tree_simple_types@U?$pair@$$CBH_N@std@@@std@@@std@@@std@@QEBAPEAU?$pair@$$CBH_N@1@XZ 000000018000f400     game.obj
 0002:00001400       $unwind$?_Mysize@?$_Tree_comp_alloc@V?$_Tmap_traits@H_NU?$less@H@std@@V?$allocator@U?$pair@$$CBH_N@std@@@2@$0A@@std@@@std@@QEBAAEB_KXZ 000000018000f400     game.obj
 0002:00001400       $unwind$??D?$_Tree_iterator@V?$_Tree_val@U?$_Tree_simple_types@U?$pair@$$CBH_N@std@@@std@@@std@@@std@@QEBAAEAU?$pair@$$CBH_N@1@XZ 000000018000f400     game.obj
 0002:00001400       $unwind$?_Parent@?$_Tree_comp_alloc@V?$_Tmap_traits@H_NU?$less@H@std@@V?$allocator@U?$pair@$$CBH_N@std@@@2@$0A@@std@@@std@@SAAEAPEAU?$_Tree_node@U?$pair@$$CBH_N@std@@PEAX@2@PEAU32@@Z 000000018000f400     game.obj
 0002:00001400       $unwind$?_Max@?$_Tree_val@U?$_Tree_simple_types@U?$pair@$$CBH_N@std@@@std@@@std@@SAPEAU?$_Tree_node@U?$pair@$$CBH_N@std@@PEAX@2@PEAU32@@Z 000000018000f400     game.obj
 0002:00001400       $unwind$?_Min@?$_Tree_val@U?$_Tree_simple_types@U?$pair@$$CBH_N@std@@@std@@@std@@SAPEAU?$_Tree_node@U?$pair@$$CBH_N@std@@PEAX@2@PEAU32@@Z 000000018000f400     game.obj
 0002:00001400       $unwind$?_Left@?$_Tree_comp_alloc@V?$_Tmap_traits@H_NU?$less@H@std@@V?$allocator@U?$pair@$$CBH_N@std@@@2@$0A@@std@@@std@@SAAEAPEAU?$_Tree_node@U?$pair@$$CBH_N@std@@PEAX@2@PEAU32@@Z 000000018000f400     game.obj
 0002:00001400       $unwind$?max_size@?$allocator_traits@V?$allocator@U?$_Tree_node@U?$pair@$$CBHI@std@@PEAX@std@@@std@@@std@@SA_KAEBV?$allocator@U?$_Tree_node@U?$pair@$$CBHI@std@@PEAX@std@@@2@@Z 000000018000f400     game.obj
 0002:00001400       $unwind$?_Isnil@?$_Tree_comp_alloc@V?$_Tmap_traits@H_NU?$less@H@std@@V?$allocator@U?$pair@$$CBH_N@std@@@2@$0A@@std@@@std@@SAAEADPEAU?$_Tree_node@U?$pair@$$CBH_N@std@@PEAX@2@@Z 000000018000f400     game.obj
 0002:00001400       $unwind$??F?$_Tree_const_iterator@V?$_Tree_val@U?$_Tree_simple_types@U?$pair@$$CBH_N@std@@@std@@@std@@@std@@QEAAAEAV01@XZ 000000018000f400     game.obj
 0002:00001400       $unwind$??$get@$0A@AEBH@std@@YAAEBH$$QEAV?$tuple@AEBH@0@@Z 000000018000f400     game.obj
 0002:00001400       $unwind$?_Color@?$_Tree_comp_alloc@V?$_Tmap_traits@H_NU?$less@H@std@@V?$allocator@U?$pair@$$CBH_N@std@@@2@$0A@@std@@@std@@SAAEADPEAU?$_Tree_node@U?$pair@$$CBH_N@std@@PEAX@2@@Z 000000018000f400     game.obj
 0002:00001400       $unwind$?max_size@?$allocator_traits@V?$allocator@U?$_Tree_node@U?$pair@$$CBH_N@std@@PEAX@std@@@std@@@std@@SA_KAEBV?$allocator@U?$_Tree_node@U?$pair@$$CBH_N@std@@PEAX@std@@@2@@Z 000000018000f400     game.obj
 0002:00001400       $unwind$?_Lmost@?$_Tree@V?$_Tmap_traits@HIU?$less@H@std@@V?$allocator@U?$pair@$$CBHI@std@@@2@$0A@@std@@@std@@IEBAAEAPEAU?$_Tree_node@U?$pair@$$CBHI@std@@PEAX@2@XZ 000000018000f400     game.obj
 0002:00001400       $unwind$?size@?$_Tree@V?$_Tmap_traits@H_NU?$less@H@std@@V?$allocator@U?$pair@$$CBH_N@std@@@2@$0A@@std@@@std@@QEBA_KXZ 000000018000f400     game.obj
 0002:00001400       $unwind$?_Lmost@?$_Tree@V?$_Tmap_traits@H_NU?$less@H@std@@V?$allocator@U?$pair@$$CBH_N@std@@@2@$0A@@std@@@std@@IEBAAEAPEAU?$_Tree_node@U?$pair@$$CBH_N@std@@PEAX@2@XZ 000000018000f400     game.obj
 0002:00001400       $unwind$??0?$_Tree_const_iterator@V?$_Tree_val@U?$_Tree_simple_types@U?$pair@$$CBH_N@std@@@std@@@std@@@std@@QEAA@XZ 000000018000f400     game.obj
 0002:00001400       $unwind$?_Root@?$_Tree@V?$_Tmap_traits@HIU?$less@H@std@@V?$allocator@U?$pair@$$CBHI@std@@@2@$0A@@std@@@std@@IEBAAEAPEAU?$_Tree_node@U?$pair@$$CBHI@std@@PEAX@2@XZ 000000018000f400     game.obj
 0002:00001400       $unwind$?_Rmost@?$_Tree@V?$_Tmap_traits@H_NU?$less@H@std@@V?$allocator@U?$pair@$$CBH_N@std@@@2@$0A@@std@@@std@@IEBAAEAPEAU?$_Tree_node@U?$pair@$$CBH_N@std@@PEAX@2@XZ 000000018000f400     game.obj
 0002:00001400       $unwind$?_Rmost@?$_Tree@V?$_Tmap_traits@HIU?$less@H@std@@V?$allocator@U?$pair@$$CBHI@std@@@2@$0A@@std@@@std@@IEBAAEAPEAU?$_Tree_node@U?$pair@$$CBHI@std@@PEAX@2@XZ 000000018000f400     game.obj
 0002:00001400       $unwind$??D?$_Tree_const_iterator@V?$_Tree_val@U?$_Tree_simple_types@U?$pair@$$CBH_N@std@@@std@@@std@@@std@@QEBAAEBU?$pair@$$CBH_N@1@XZ 000000018000f400     game.obj
 0002:00001400       $unwind$?_Root@?$_Tree@V?$_Tmap_traits@H_NU?$less@H@std@@V?$allocator@U?$pair@$$CBH_N@std@@@2@$0A@@std@@@std@@IEBAAEAPEAU?$_Tree_node@U?$pair@$$CBH_N@std@@PEAX@2@XZ 000000018000f400     game.obj
 0002:00001400       $unwind$??E?$_Tree_const_iterator@V?$_Tree_val@U?$_Tree_simple_types@U?$pair@$$CBH_N@std@@@std@@@std@@@std@@QEAAAEAV01@XZ 000000018000f400     game.obj
 0002:00001408       $unwind$?begin@?$_Tree@V?$_Tmap_traits@HIU?$less@H@std@@V?$allocator@U?$pair@$$CBHI@std@@@2@$0A@@std@@@std@@QEAA?AV?$_Tree_iterator@V?$_Tree_val@U?$_Tree_simple_types@U?$pair@$$CBHI@std@@@std@@@std@@@2@XZ 000000018000f408     game.obj
 0002:00001418       $ip2state$?begin@?$_Tree@V?$_Tmap_traits@HIU?$less@H@std@@V?$allocator@U?$pair@$$CBHI@std@@@2@$0A@@std@@@std@@QEAA?AV?$_Tree_iterator@V?$_Tree_val@U?$_Tree_simple_types@U?$pair@$$CBHI@std@@@std@@@std@@@2@XZ 000000018000f418     game.obj
 0002:00001420       $unwind$?end@?$_Tree@V?$_Tmap_traits@HIU?$less@H@std@@V?$allocator@U?$pair@$$CBHI@std@@@2@$0A@@std@@@std@@QEAA?AV?$_Tree_iterator@V?$_Tree_val@U?$_Tree_simple_types@U?$pair@$$CBHI@std@@@std@@@std@@@2@XZ 000000018000f420     game.obj
 0002:00001430       $ip2state$?end@?$_Tree@V?$_Tmap_traits@HIU?$less@H@std@@V?$allocator@U?$pair@$$CBHI@std@@@2@$0A@@std@@@std@@QEAA?AV?$_Tree_iterator@V?$_Tree_val@U?$_Tree_simple_types@U?$pair@$$CBHI@std@@@std@@@std@@@2@XZ 000000018000f430     game.obj
 0002:00001438       $unwind$?lower_bound@?$_Tree@V?$_Tmap_traits@H_NU?$less@H@std@@V?$allocator@U?$pair@$$CBH_N@std@@@2@$0A@@std@@@std@@QEAA?AV?$_Tree_iterator@V?$_Tree_val@U?$_Tree_simple_types@U?$pair@$$CBH_N@std@@@std@@@std@@@2@AEBH@Z 000000018000f438     game.obj
 0002:00001438       $unwind$??$construct@PEAU?$_Tree_node@U?$pair@$$CBHI@std@@PEAX@std@@AEAPEAU12@@?$allocator@U?$_Tree_node@U?$pair@$$CBHI@std@@PEAX@std@@@std@@QEAAXPEAPEAU?$_Tree_node@U?$pair@$$CBHI@std@@PEAX@1@AEAPEAU21@@Z 000000018000f438     game.obj
 0002:00001438       $unwind$?lower_bound@?$_Tree@V?$_Tmap_traits@HIU?$less@H@std@@V?$allocator@U?$pair@$$CBHI@std@@@2@$0A@@std@@@std@@QEAA?AV?$_Tree_iterator@V?$_Tree_val@U?$_Tree_simple_types@U?$pair@$$CBHI@std@@@std@@@std@@@2@AEBH@Z 000000018000f438     game.obj
 0002:00001438       $unwind$??$construct@PEAU?$_Tree_node@U?$pair@$$CBH_N@std@@PEAX@std@@AEAPEAU12@@?$allocator@U?$_Tree_node@U?$pair@$$CBH_N@std@@PEAX@std@@@std@@QEAAXPEAPEAU?$_Tree_node@U?$pair@$$CBH_N@std@@PEAX@1@AEAPEAU21@@Z 000000018000f438     game.obj
 0002:00001440       $unwind$?call@?$compute_dot@Utvec2@glm@@M$0A@$0A@@detail@glm@@SAMAEBU?$tvec2@M$0A@@3@0@Z 000000018000f440     game.obj
 0002:00001440       $unwind$?_Destroy_if_not_nil@?$_Tree@V?$_Tmap_traits@H_NU?$less@H@std@@V?$allocator@U?$pair@$$CBH_N@std@@@2@$0A@@std@@@std@@IEAAXPEAU?$_Tree_node@U?$pair@$$CBH_N@std@@PEAX@2@@Z 000000018000f440     game.obj
 0002:00001440       $unwind$??$_Lbound@H@?$_Tree@V?$_Tmap_traits@H_NU?$less@H@std@@V?$allocator@U?$pair@$$CBH_N@std@@@2@$0A@@std@@@std@@IEBAPEAU?$_Tree_node@U?$pair@$$CBH_N@std@@PEAX@1@AEBH@Z 000000018000f440     game.obj
 0002:00001440       $unwind$??A?$map@HIU?$less@H@std@@V?$allocator@U?$pair@$$CBHI@std@@@2@@std@@QEAAAEAIAEBH@Z 000000018000f440     game.obj
 0002:00001440       $unwind$??$_Lbound@H@?$_Tree@V?$_Tmap_traits@HIU?$less@H@std@@V?$allocator@U?$pair@$$CBHI@std@@@2@$0A@@std@@@std@@IEBAPEAU?$_Tree_node@U?$pair@$$CBHI@std@@PEAX@1@AEBH@Z 000000018000f440     game.obj
 0002:00001440       $unwind$??A?$map@H_NU?$less@H@std@@V?$allocator@U?$pair@$$CBH_N@std@@@2@@std@@QEAAAEA_NAEBH@Z 000000018000f440     game.obj
 0002:00001440       $unwind$?_Destroy_if_not_nil@?$_Tree@V?$_Tmap_traits@HIU?$less@H@std@@V?$allocator@U?$pair@$$CBHI@std@@@2@$0A@@std@@@std@@IEAAXPEAU?$_Tree_node@U?$pair@$$CBHI@std@@PEAX@2@@Z 000000018000f440     game.obj
 0002:00001448       $unwind$??0?$tmat4x4@M$0A@@glm@@QEAA@AEBM@Z 000000018000f448     game.obj
 0002:00001454       $unwind$??0?$tmat4x4@M$0A@@glm@@QEAA@AEBU?$tvec4@M$0A@@1@000@Z 000000018000f454     game.obj
 0002:00001460       $unwind$??A?$tvec3@M$0A@@glm@@QEBAAEBMH@Z 000000018000f460     game.obj
 0002:00001460       $unwind$??0?$tmat4x4@M$0A@@glm@@QEAA@W4ctor@1@@Z 000000018000f460     game.obj
 0002:00001460       $unwind$??A?$tmat4x4@M$0A@@glm@@QEBAAEBU?$tvec4@M$0A@@1@H@Z 000000018000f460     game.obj
 0002:00001460       $unwind$??A?$tvec4@M$0A@@glm@@QEBAAEBMH@Z 000000018000f460     game.obj
 0002:00001460       $unwind$??A?$tvec4@M$0A@@glm@@QEAAAEAMH@Z 000000018000f460     game.obj
 0002:00001460       $unwind$?max_size@?$_Wrap_alloc@V?$allocator@U?$_Tree_node@U?$pair@$$CBH_N@std@@PEAX@std@@@std@@@std@@QEBA_KU_Nil@2@@Z 000000018000f460     game.obj
 0002:00001460       $unwind$?max_size@?$_Wrap_alloc@V?$allocator@U?$_Tree_node@U?$pair@$$CBHI@std@@PEAX@std@@@std@@@std@@QEBA_KU_Nil@2@@Z 000000018000f460     game.obj
 0002:00001460       $unwind$??A?$tmat4x4@M$0A@@glm@@QEAAAEAU?$tvec4@M$0A@@1@H@Z 000000018000f460     game.obj
 0002:00001468       $unwind$??8?$_Tree_const_iterator@V?$_Tree_val@U?$_Tree_simple_types@U?$pair@$$CBHI@std@@@std@@@std@@@std@@QEBA_NAEBV01@@Z 000000018000f468     game.obj
 0002:00001468       $unwind$??8?$_Tree_const_iterator@V?$_Tree_val@U?$_Tree_simple_types@U?$pair@$$CBH_N@std@@@std@@@std@@@std@@QEBA_NAEBV01@@Z 000000018000f468     game.obj
 0002:00001470       $unwind$??$unProject@MM$0A@@glm@@YA?AU?$tvec3@M$0A@@0@AEBU10@AEBU?$tmat4x4@M$0A@@0@1AEBU?$tvec4@M$0A@@0@@Z 000000018000f470     game.obj
 0002:00001484       $unwind$??$ortho@M@glm@@YA?AU?$tmat4x4@M$0A@@0@MMMMMM@Z 000000018000f484     game.obj
 0002:0000148c       $unwind$??$translate@M$0A@@glm@@YA?AU?$tmat4x4@M$0A@@0@AEBU10@AEBU?$tvec3@M$0A@@0@@Z 000000018000f48c     game.obj
 0002:000014a0       $unwind$??$?DM$0A@@glm@@YA?AU?$tmat4x4@M$0A@@0@AEBU10@0@Z 000000018000f4a0     game.obj
 0002:000014b4       $unwind$??$?DM$0A@@glm@@YA?AU?$tvec4@M$0A@@0@AEBU?$tmat4x4@M$0A@@0@AEBU10@@Z 000000018000f4b4     game.obj
 0002:000014c0       $unwind$??$?DM$0A@@glm@@YA?AU?$tvec4@M$0A@@0@AEBU10@M@Z 000000018000f4c0     game.obj
 0002:000014c0       $unwind$??$?GM$0A@@glm@@YA?AU?$tvec4@M$0A@@0@AEBU10@M@Z 000000018000f4c0     game.obj
 0002:000014cc       $unwind$??$orthoRH@M@glm@@YA?AU?$tmat4x4@M$0A@@0@MMMMMM@Z 000000018000f4cc     game.obj
 0002:000014e0       $unwind$??$_Try_emplace@AEBH$$V@?$map@HIU?$less@H@std@@V?$allocator@U?$pair@$$CBHI@std@@@2@@std@@QEAA?AU?$pair@V?$_Tree_iterator@V?$_Tree_val@U?$_Tree_simple_types@U?$pair@$$CBHI@std@@@std@@@std@@@std@@_N@1@AEBH@Z 000000018000f4e0     game.obj
 0002:000014e0       $unwind$??$_Try_emplace@AEBH$$V@?$map@H_NU?$less@H@std@@V?$allocator@U?$pair@$$CBH_N@std@@@2@@std@@QEAA?AU?$pair@V?$_Tree_iterator@V?$_Tree_val@U?$_Tree_simple_types@U?$pair@$$CBH_N@std@@@std@@@std@@@std@@_N@1@AEBH@Z 000000018000f4e0     game.obj
 0002:000014e8       $unwind$?_Kfn@?$_Tree@V?$_Tmap_traits@H_NU?$less@H@std@@V?$allocator@U?$pair@$$CBH_N@std@@@2@$0A@@std@@@std@@IEBAAEBHAEBU?$pair@$$CBH_N@2@@Z 000000018000f4e8     game.obj
 0002:000014e8       $unwind$?allocate@?$_Wrap_alloc@V?$allocator@U?$_Tree_node@U?$pair@$$CBHI@std@@PEAX@std@@@std@@@std@@QEAAPEAU?$_Tree_node@U?$pair@$$CBHI@std@@PEAX@2@_K@Z 000000018000f4e8     game.obj
 0002:000014e8       $unwind$??$dot@M$0A@Utvec2@glm@@@glm@@YAMAEBU?$tvec2@M$0A@@0@0@Z 000000018000f4e8     game.obj
 0002:000014e8       $unwind$??$destroy@PEAU?$_Tree_node@U?$pair@$$CBH_N@std@@PEAX@std@@@?$_Wrap_alloc@V?$allocator@U?$_Tree_node@U?$pair@$$CBH_N@std@@PEAX@std@@@std@@@std@@QEAAXPEAPEAU?$_Tree_node@U?$pair@$$CBH_N@std@@PEAX@1@@Z 000000018000f4e8     game.obj
 0002:000014e8       $unwind$?_Key@?$_Tree@V?$_Tmap_traits@HIU?$less@H@std@@V?$allocator@U?$pair@$$CBHI@std@@@2@$0A@@std@@@std@@IEBAAEBHPEAU?$_Tree_node@U?$pair@$$CBHI@std@@PEAX@2@@Z 000000018000f4e8     game.obj
 0002:000014e8       $unwind$?_Kfn@?$_Tree@V?$_Tmap_traits@HIU?$less@H@std@@V?$allocator@U?$pair@$$CBHI@std@@@2@$0A@@std@@@std@@IEBAAEBHAEBU?$pair@$$CBHI@2@@Z 000000018000f4e8     game.obj
 0002:000014e8       $unwind$??0?$tuple@AEBH@std@@QEAA@$$QEAV01@@Z 000000018000f4e8     game.obj
 0002:000014e8       $unwind$??$destroy@U?$pair@$$CBH_N@std@@@?$_Wrap_alloc@V?$allocator@U?$_Tree_node@U?$pair@$$CBH_N@std@@PEAX@std@@@std@@@std@@QEAAXPEAU?$pair@$$CBH_N@1@@Z 000000018000f4e8     game.obj
 0002:000014e8       $unwind$??$destroy@U?$pair@$$CBHI@std@@@?$_Wrap_alloc@V?$allocator@U?$_Tree_node@U?$pair@$$CBHI@std@@PEAX@std@@@std@@@std@@QEAAXPEAU?$pair@$$CBHI@1@@Z 000000018000f4e8     game.obj
 0002:000014e8       $unwind$??$destroy@PEAU?$_Tree_node@U?$pair@$$CBHI@std@@PEAX@std@@@?$_Wrap_alloc@V?$allocator@U?$_Tree_node@U?$pair@$$CBHI@std@@PEAX@std@@@std@@@std@@QEAAXPEAPEAU?$_Tree_node@U?$pair@$$CBHI@std@@PEAX@1@@Z 000000018000f4e8     game.obj
 0002:000014e8       $unwind$?allocate@?$allocator@U?$_Tree_node@U?$pair@$$CBHI@std@@PEAX@std@@@std@@QEAAPEAU?$_Tree_node@U?$pair@$$CBHI@std@@PEAX@2@_K@Z 000000018000f4e8     game.obj
 0002:000014e8       $unwind$??$inverse@M$0A@Utmat4x4@glm@@@glm@@YA?AU?$tmat4x4@M$0A@@0@AEBU10@@Z 000000018000f4e8     game.obj
 0002:000014e8       $unwind$??$?0AEBH@?$_Tuple_val@AEBH@std@@QEAA@AEBH@Z 000000018000f4e8     game.obj
 0002:000014e8       $unwind$??$destroy@PEAU?$_Tree_node@U?$pair@$$CBHI@std@@PEAX@std@@@?$allocator_traits@V?$allocator@U?$_Tree_node@U?$pair@$$CBHI@std@@PEAX@std@@@std@@@std@@SAXAEAV?$allocator@U?$_Tree_node@U?$pair@$$CBHI@std@@PEAX@std@@@1@PEAPEAU?$_Tree_node@U?$pair@$$CBHI@std@@PEAX@1@@Z 000000018000f4e8     game.obj
 0002:000014e8       $unwind$?allocate@?$_Wrap_alloc@V?$allocator@U?$_Tree_node@U?$pair@$$CBH_N@std@@PEAX@std@@@std@@@std@@QEAAPEAU?$_Tree_node@U?$pair@$$CBH_N@std@@PEAX@2@_K@Z 000000018000f4e8     game.obj
 0002:000014e8       $unwind$?allocate@?$allocator@U?$_Tree_node@U?$pair@$$CBH_N@std@@PEAX@std@@@std@@QEAAPEAU?$_Tree_node@U?$pair@$$CBH_N@std@@PEAX@2@_K@Z 000000018000f4e8     game.obj
 0002:000014e8       $unwind$??$normalize@M$0A@Utvec2@glm@@@glm@@YA?AU?$tvec2@M$0A@@0@AEBU10@@Z 000000018000f4e8     game.obj
 0002:000014e8       $unwind$??$destroy@U?$pair@$$CBHI@std@@@?$allocator_traits@V?$allocator@U?$_Tree_node@U?$pair@$$CBHI@std@@PEAX@std@@@std@@@std@@SAXAEAV?$allocator@U?$_Tree_node@U?$pair@$$CBHI@std@@PEAX@std@@@1@PEAU?$pair@$$CBHI@1@@Z 000000018000f4e8     game.obj
 0002:000014e8       $unwind$??$destroy@U?$pair@$$CBH_N@std@@@?$allocator_traits@V?$allocator@U?$_Tree_node@U?$pair@$$CBH_N@std@@PEAX@std@@@std@@@std@@SAXAEAV?$allocator@U?$_Tree_node@U?$pair@$$CBH_N@std@@PEAX@std@@@1@PEAU?$pair@$$CBH_N@1@@Z 000000018000f4e8     game.obj
 0002:000014e8       $unwind$?_Key@?$_Tree@V?$_Tmap_traits@H_NU?$less@H@std@@V?$allocator@U?$pair@$$CBH_N@std@@@2@$0A@@std@@@std@@IEBAAEBHPEAU?$_Tree_node@U?$pair@$$CBH_N@std@@PEAX@2@@Z 000000018000f4e8     game.obj
 0002:000014e8       $unwind$?strstr@@YAPEADQEADQEBD@Z 000000018000f4e8     game.obj
 0002:000014e8       $unwind$?call@?$compute_normalize@M$0A@Utvec2@glm@@$0A@@detail@glm@@SA?AU?$tvec2@M$0A@@3@AEBU43@@Z 000000018000f4e8     game.obj
 0002:000014e8       $unwind$??$destroy@PEAU?$_Tree_node@U?$pair@$$CBH_N@std@@PEAX@std@@@?$allocator_traits@V?$allocator@U?$_Tree_node@U?$pair@$$CBH_N@std@@PEAX@std@@@std@@@std@@SAXAEAV?$allocator@U?$_Tree_node@U?$pair@$$CBH_N@std@@PEAX@std@@@1@PEAPEAU?$_Tree_node@U?$pair@$$CBH_N@std@@PEAX@1@@Z 000000018000f4e8     game.obj
 0002:000014f0       $unwind$??$?DM$0A@@glm@@YA?AU?$tvec2@M$0A@@0@AEBU10@M@Z 000000018000f4f0     game.obj
 0002:000014f8       $unwind$??$?GM$0A@@glm@@YA?AU?$tvec4@M$0A@@0@AEBU10@0@Z 000000018000f4f8     game.obj
 0002:000014f8       $unwind$??$?HM$0A@@glm@@YA?AU?$tvec4@M$0A@@0@AEBU10@0@Z 000000018000f4f8     game.obj
 0002:000014f8       $unwind$??$?DM$0A@@glm@@YA?AU?$tvec4@M$0A@@0@AEBU10@0@Z 000000018000f4f8     game.obj
 0002:00001504       $unwind$?call@?$compute_inverse@Utmat4x4@glm@@M$0A@$0A@@detail@glm@@SA?AU?$tmat4x4@M$0A@@3@AEBU43@@Z 000000018000f504     game.obj
 0002:00001514       $unwind$??$?ZM@?$tvec4@M$0A@@glm@@QEAAAEAU01@M@Z 000000018000f514     game.obj
 0002:00001514       $unwind$??$?_0M@?$tvec4@M$0A@@glm@@QEAAAEAU01@M@Z 000000018000f514     game.obj
 0002:00001514       $unwind$??$?XM@?$tvec4@M$0A@@glm@@QEAAAEAU01@M@Z 000000018000f514     game.obj
 0002:00001520       $unwind$??$forward_as_tuple@AEBH@std@@YA?AV?$tuple@AEBH@0@AEBH@Z 000000018000f520     game.obj
 0002:00001530       $ip2state$??$forward_as_tuple@AEBH@std@@YA?AV?$tuple@AEBH@0@AEBH@Z 000000018000f530     game.obj
 0002:00001538       $unwind$??$?DM$0A@@glm@@YA?AU?$tmat4x4@M$0A@@0@AEBU10@AEBM@Z 000000018000f538     game.obj
 0002:00001540       $unwind$??$?XM@?$tvec4@M$0A@@glm@@QEAAAEAU01@AEBU01@@Z 000000018000f540     game.obj
 0002:00001540       $unwind$??$?YM@?$tvec4@M$0A@@glm@@QEAAAEAU01@AEBU01@@Z 000000018000f540     game.obj
 0002:00001540       $unwind$??$?ZM@?$tvec4@M$0A@@glm@@QEAAAEAU01@AEBU01@@Z 000000018000f540     game.obj
 0002:0000154c       $unwind$?call@?$compute_vec4_sub@M$0A@$0A@@detail@glm@@SA?AU?$tvec4@M$0A@@3@AEBU43@0@Z 000000018000f54c     game.obj
 0002:0000154c       $unwind$?call@?$compute_vec4_mul@M$0A@$0A@@detail@glm@@SA?AU?$tvec4@M$0A@@3@AEBU43@0@Z 000000018000f54c     game.obj
 0002:0000154c       $unwind$?call@?$compute_vec4_add@M$0A@$0A@@detail@glm@@SA?AU?$tvec4@M$0A@@3@AEBU43@0@Z 000000018000f54c     game.obj
 0002:0000154c       $unwind$?call@?$compute_vec4_div@M$0A@$0A@@detail@glm@@SA?AU?$tvec4@M$0A@@3@AEBU43@0@Z 000000018000f54c     game.obj
 0002:0000154c       $unwind$?_Allocate@std@@YAPEAX_K0_N@Z 000000018000f54c     game.obj
 0002:0000154c       $unwind$?_Deallocate@std@@YAXPEAX_K1@Z 000000018000f54c     game.obj
 0002:00001554       $unwind$??$_Insert_hint@AEAU?$pair@$$CBHI@std@@PEAU?$_Tree_node@U?$pair@$$CBHI@std@@PEAX@2@@?$_Tree@V?$_Tmap_traits@HIU?$less@H@std@@V?$allocator@U?$pair@$$CBHI@std@@@2@$0A@@std@@@std@@IEAA?AV?$_Tree_iterator@V?$_Tree_val@U?$_Tree_simple_types@U?$pair@$$CBHI@std@@@std@@@std@@@1@V?$_Tree_const_iterator@V?$_Tree_val@U?$_Tree_simple_types@U?$pair@$$CBHI@std@@@std@@@std@@@1@AEAU?$pair@$$CBHI@1@PEAU?$_Tree_node@U?$pair@$$CBHI@std@@PEAX@1@@Z 000000018000f554     game.obj
 0002:00001564       $tryMap$??$_Insert_hint@AEAU?$pair@$$CBHI@std@@PEAU?$_Tree_node@U?$pair@$$CBHI@std@@PEAX@2@@?$_Tree@V?$_Tmap_traits@HIU?$less@H@std@@V?$allocator@U?$pair@$$CBHI@std@@@2@$0A@@std@@@std@@IEAA?AV?$_Tree_iterator@V?$_Tree_val@U?$_Tree_simple_types@U?$pair@$$CBHI@std@@@std@@@std@@@1@V?$_Tree_const_iterator@V?$_Tree_val@U?$_Tree_simple_types@U?$pair@$$CBHI@std@@@std@@@std@@@1@AEAU?$pair@$$CBHI@1@PEAU?$_Tree_node@U?$pair@$$CBHI@std@@PEAX@1@@Z 000000018000f564     game.obj
 0002:00001578       $handlerMap$0$??$_Insert_hint@AEAU?$pair@$$CBHI@std@@PEAU?$_Tree_node@U?$pair@$$CBHI@std@@PEAX@2@@?$_Tree@V?$_Tmap_traits@HIU?$less@H@std@@V?$allocator@U?$pair@$$CBHI@std@@@2@$0A@@std@@@std@@IEAA?AV?$_Tree_iterator@V?$_Tree_val@U?$_Tree_simple_types@U?$pair@$$CBHI@std@@@std@@@std@@@1@V?$_Tree_const_iterator@V?$_Tree_val@U?$_Tree_simple_types@U?$pair@$$CBHI@std@@@std@@@std@@@1@AEAU?$pair@$$CBHI@1@PEAU?$_Tree_node@U?$pair@$$CBHI@std@@PEAX@1@@Z 000000018000f578     game.obj
 0002:00001590       $ip2state$??$_Insert_hint@AEAU?$pair@$$CBHI@std@@PEAU?$_Tree_node@U?$pair@$$CBHI@std@@PEAX@2@@?$_Tree@V?$_Tmap_traits@HIU?$less@H@std@@V?$allocator@U?$pair@$$CBHI@std@@@2@$0A@@std@@@std@@IEAA?AV?$_Tree_iterator@V?$_Tree_val@U?$_Tree_simple_types@U?$pair@$$CBHI@std@@@std@@@std@@@1@V?$_Tree_const_iterator@V?$_Tree_val@U?$_Tree_simple_types@U?$pair@$$CBHI@std@@@std@@@std@@@1@AEAU?$pair@$$CBHI@1@PEAU?$_Tree_node@U?$pair@$$CBHI@std@@PEAX@1@@Z 000000018000f590     game.obj
 0002:000015c0       $unwind$?catch$0@?0???$_Insert_hint@AEAU?$pair@$$CBHI@std@@PEAU?$_Tree_node@U?$pair@$$CBHI@std@@PEAX@2@@?$_Tree@V?$_Tmap_traits@HIU?$less@H@std@@V?$allocator@U?$pair@$$CBHI@std@@@2@$0A@@std@@@std@@IEAA?AV?$_Tree_iterator@V?$_Tree_val@U?$_Tree_simple_types@U?$pair@$$CBHI@std@@@std@@@std@@@1@V?$_Tree_const_iterator@V?$_Tree_val@U?$_Tree_simple_types@U?$pair@$$CBHI@std@@@std@@@std@@@1@AEAU?$pair@$$CBHI@1@PEAU?$_Tree_node@U?$pair@$$CBHI@std@@PEAX@1@@Z@4HA 000000018000f5c0     game.obj
 0002:000015d0       $unwind$??$?0AEBH$0A@@?$tuple@AEBH@std@@QEAA@AEBH@Z 000000018000f5d0     game.obj
 0002:000015d8       $unwind$??$_Buynode@AEBUpiecewise_construct_t@std@@V?$tuple@AEBH@2@V?$tuple@$$V@2@@?$_Tree_comp_alloc@V?$_Tmap_traits@HIU?$less@H@std@@V?$allocator@U?$pair@$$CBHI@std@@@2@$0A@@std@@@std@@QEAAPEAU?$_Tree_node@U?$pair@$$CBHI@std@@PEAX@1@AEBUpiecewise_construct_t@1@$$QEAV?$tuple@AEBH@1@$$QEAV?$tuple@$$V@1@@Z 000000018000f5d8     game.obj
 0002:000015e8       $tryMap$??$_Buynode@AEBUpiecewise_construct_t@std@@V?$tuple@AEBH@2@V?$tuple@$$V@2@@?$_Tree_comp_alloc@V?$_Tmap_traits@HIU?$less@H@std@@V?$allocator@U?$pair@$$CBHI@std@@@2@$0A@@std@@@std@@QEAAPEAU?$_Tree_node@U?$pair@$$CBHI@std@@PEAX@1@AEBUpiecewise_construct_t@1@$$QEAV?$tuple@AEBH@1@$$QEAV?$tuple@$$V@1@@Z 000000018000f5e8     game.obj
 0002:000015fc       $handlerMap$0$??$_Buynode@AEBUpiecewise_construct_t@std@@V?$tuple@AEBH@2@V?$tuple@$$V@2@@?$_Tree_comp_alloc@V?$_Tmap_traits@HIU?$less@H@std@@V?$allocator@U?$pair@$$CBHI@std@@@2@$0A@@std@@@std@@QEAAPEAU?$_Tree_node@U?$pair@$$CBHI@std@@PEAX@1@AEBUpiecewise_construct_t@1@$$QEAV?$tuple@AEBH@1@$$QEAV?$tuple@$$V@1@@Z 000000018000f5fc     game.obj
 0002:00001610       $ip2state$??$_Buynode@AEBUpiecewise_construct_t@std@@V?$tuple@AEBH@2@V?$tuple@$$V@2@@?$_Tree_comp_alloc@V?$_Tmap_traits@HIU?$less@H@std@@V?$allocator@U?$pair@$$CBHI@std@@@2@$0A@@std@@@std@@QEAAPEAU?$_Tree_node@U?$pair@$$CBHI@std@@PEAX@1@AEBUpiecewise_construct_t@1@$$QEAV?$tuple@AEBH@1@$$QEAV?$tuple@$$V@1@@Z 000000018000f610     game.obj
 0002:00001640       $unwind$?catch$0@?0???$_Buynode@AEBUpiecewise_construct_t@std@@V?$tuple@AEBH@2@V?$tuple@$$V@2@@?$_Tree_comp_alloc@V?$_Tmap_traits@HIU?$less@H@std@@V?$allocator@U?$pair@$$CBHI@std@@@2@$0A@@std@@@std@@QEAAPEAU?$_Tree_node@U?$pair@$$CBHI@std@@PEAX@1@AEBUpiecewise_construct_t@1@$$QEAV?$tuple@AEBH@1@$$QEAV?$tuple@$$V@1@@Z@4HA 000000018000f640     game.obj
 0002:00001650       $unwind$??$_Buynode@AEBUpiecewise_construct_t@std@@V?$tuple@AEBH@2@V?$tuple@$$V@2@@?$_Tree_comp_alloc@V?$_Tmap_traits@H_NU?$less@H@std@@V?$allocator@U?$pair@$$CBH_N@std@@@2@$0A@@std@@@std@@QEAAPEAU?$_Tree_node@U?$pair@$$CBH_N@std@@PEAX@1@AEBUpiecewise_construct_t@1@$$QEAV?$tuple@AEBH@1@$$QEAV?$tuple@$$V@1@@Z 000000018000f650     game.obj
 0002:00001660       $tryMap$??$_Buynode@AEBUpiecewise_construct_t@std@@V?$tuple@AEBH@2@V?$tuple@$$V@2@@?$_Tree_comp_alloc@V?$_Tmap_traits@H_NU?$less@H@std@@V?$allocator@U?$pair@$$CBH_N@std@@@2@$0A@@std@@@std@@QEAAPEAU?$_Tree_node@U?$pair@$$CBH_N@std@@PEAX@1@AEBUpiecewise_construct_t@1@$$QEAV?$tuple@AEBH@1@$$QEAV?$tuple@$$V@1@@Z 000000018000f660     game.obj
 0002:00001674       $handlerMap$0$??$_Buynode@AEBUpiecewise_construct_t@std@@V?$tuple@AEBH@2@V?$tuple@$$V@2@@?$_Tree_comp_alloc@V?$_Tmap_traits@H_NU?$less@H@std@@V?$allocator@U?$pair@$$CBH_N@std@@@2@$0A@@std@@@std@@QEAAPEAU?$_Tree_node@U?$pair@$$CBH_N@std@@PEAX@1@AEBUpiecewise_construct_t@1@$$QEAV?$tuple@AEBH@1@$$QEAV?$tuple@$$V@1@@Z 000000018000f674     game.obj
 0002:00001688       $ip2state$??$_Buynode@AEBUpiecewise_construct_t@std@@V?$tuple@AEBH@2@V?$tuple@$$V@2@@?$_Tree_comp_alloc@V?$_Tmap_traits@H_NU?$less@H@std@@V?$allocator@U?$pair@$$CBH_N@std@@@2@$0A@@std@@@std@@QEAAPEAU?$_Tree_node@U?$pair@$$CBH_N@std@@PEAX@1@AEBUpiecewise_construct_t@1@$$QEAV?$tuple@AEBH@1@$$QEAV?$tuple@$$V@1@@Z 000000018000f688     game.obj
 0002:000016b8       $unwind$?catch$0@?0???$_Buynode@AEBUpiecewise_construct_t@std@@V?$tuple@AEBH@2@V?$tuple@$$V@2@@?$_Tree_comp_alloc@V?$_Tmap_traits@H_NU?$less@H@std@@V?$allocator@U?$pair@$$CBH_N@std@@@2@$0A@@std@@@std@@QEAAPEAU?$_Tree_node@U?$pair@$$CBH_N@std@@PEAX@1@AEBUpiecewise_construct_t@1@$$QEAV?$tuple@AEBH@1@$$QEAV?$tuple@$$V@1@@Z@4HA 000000018000f6b8     game.obj
 0002:000016c8       $unwind$??$_Insert_hint@AEAU?$pair@$$CBH_N@std@@PEAU?$_Tree_node@U?$pair@$$CBH_N@std@@PEAX@2@@?$_Tree@V?$_Tmap_traits@H_NU?$less@H@std@@V?$allocator@U?$pair@$$CBH_N@std@@@2@$0A@@std@@@std@@IEAA?AV?$_Tree_iterator@V?$_Tree_val@U?$_Tree_simple_types@U?$pair@$$CBH_N@std@@@std@@@std@@@1@V?$_Tree_const_iterator@V?$_Tree_val@U?$_Tree_simple_types@U?$pair@$$CBH_N@std@@@std@@@std@@@1@AEAU?$pair@$$CBH_N@1@PEAU?$_Tree_node@U?$pair@$$CBH_N@std@@PEAX@1@@Z 000000018000f6c8     game.obj
 0002:000016d8       $tryMap$??$_Insert_hint@AEAU?$pair@$$CBH_N@std@@PEAU?$_Tree_node@U?$pair@$$CBH_N@std@@PEAX@2@@?$_Tree@V?$_Tmap_traits@H_NU?$less@H@std@@V?$allocator@U?$pair@$$CBH_N@std@@@2@$0A@@std@@@std@@IEAA?AV?$_Tree_iterator@V?$_Tree_val@U?$_Tree_simple_types@U?$pair@$$CBH_N@std@@@std@@@std@@@1@V?$_Tree_const_iterator@V?$_Tree_val@U?$_Tree_simple_types@U?$pair@$$CBH_N@std@@@std@@@std@@@1@AEAU?$pair@$$CBH_N@1@PEAU?$_Tree_node@U?$pair@$$CBH_N@std@@PEAX@1@@Z 000000018000f6d8     game.obj
 0002:000016ec       $handlerMap$0$??$_Insert_hint@AEAU?$pair@$$CBH_N@std@@PEAU?$_Tree_node@U?$pair@$$CBH_N@std@@PEAX@2@@?$_Tree@V?$_Tmap_traits@H_NU?$less@H@std@@V?$allocator@U?$pair@$$CBH_N@std@@@2@$0A@@std@@@std@@IEAA?AV?$_Tree_iterator@V?$_Tree_val@U?$_Tree_simple_types@U?$pair@$$CBH_N@std@@@std@@@std@@@1@V?$_Tree_const_iterator@V?$_Tree_val@U?$_Tree_simple_types@U?$pair@$$CBH_N@std@@@std@@@std@@@1@AEAU?$pair@$$CBH_N@1@PEAU?$_Tree_node@U?$pair@$$CBH_N@std@@PEAX@1@@Z 000000018000f6ec     game.obj
 0002:00001700       $ip2state$??$_Insert_hint@AEAU?$pair@$$CBH_N@std@@PEAU?$_Tree_node@U?$pair@$$CBH_N@std@@PEAX@2@@?$_Tree@V?$_Tmap_traits@H_NU?$less@H@std@@V?$allocator@U?$pair@$$CBH_N@std@@@2@$0A@@std@@@std@@IEAA?AV?$_Tree_iterator@V?$_Tree_val@U?$_Tree_simple_types@U?$pair@$$CBH_N@std@@@std@@@std@@@1@V?$_Tree_const_iterator@V?$_Tree_val@U?$_Tree_simple_types@U?$pair@$$CBH_N@std@@@std@@@std@@@1@AEAU?$pair@$$CBH_N@1@PEAU?$_Tree_node@U?$pair@$$CBH_N@std@@PEAX@1@@Z 000000018000f700     game.obj
 0002:00001730       $unwind$?catch$0@?0???$_Insert_hint@AEAU?$pair@$$CBH_N@std@@PEAU?$_Tree_node@U?$pair@$$CBH_N@std@@PEAX@2@@?$_Tree@V?$_Tmap_traits@H_NU?$less@H@std@@V?$allocator@U?$pair@$$CBH_N@std@@@2@$0A@@std@@@std@@IEAA?AV?$_Tree_iterator@V?$_Tree_val@U?$_Tree_simple_types@U?$pair@$$CBH_N@std@@@std@@@std@@@1@V?$_Tree_const_iterator@V?$_Tree_val@U?$_Tree_simple_types@U?$pair@$$CBH_N@std@@@std@@@std@@@1@AEAU?$pair@$$CBH_N@1@PEAU?$_Tree_node@U?$pair@$$CBH_N@std@@PEAX@1@@Z@4HA 000000018000f730     game.obj
 0002:00001740       $unwind$??$emplace_hint@AEBUpiecewise_construct_t@std@@V?$tuple@AEBH@2@V?$tuple@$$V@2@@?$_Tree@V?$_Tmap_traits@H_NU?$less@H@std@@V?$allocator@U?$pair@$$CBH_N@std@@@2@$0A@@std@@@std@@QEAA?AV?$_Tree_iterator@V?$_Tree_val@U?$_Tree_simple_types@U?$pair@$$CBH_N@std@@@std@@@std@@@1@V?$_Tree_const_iterator@V?$_Tree_val@U?$_Tree_simple_types@U?$pair@$$CBH_N@std@@@std@@@std@@@1@AEBUpiecewise_construct_t@1@$$QEAV?$tuple@AEBH@1@$$QEAV?$tuple@$$V@1@@Z 000000018000f740     game.obj
 0002:00001740       $unwind$??$_Insert_at@AEAU?$pair@$$CBH_N@std@@PEAU?$_Tree_node@U?$pair@$$CBH_N@std@@PEAX@2@@?$_Tree@V?$_Tmap_traits@H_NU?$less@H@std@@V?$allocator@U?$pair@$$CBH_N@std@@@2@$0A@@std@@@std@@IEAA?AV?$_Tree_iterator@V?$_Tree_val@U?$_Tree_simple_types@U?$pair@$$CBH_N@std@@@std@@@std@@@1@_NPEAU?$_Tree_node@U?$pair@$$CBH_N@std@@PEAX@1@AEAU?$pair@$$CBH_N@1@1@Z 000000018000f740     game.obj
 0002:00001740       $unwind$??$emplace_hint@AEBUpiecewise_construct_t@std@@V?$tuple@AEBH@2@V?$tuple@$$V@2@@?$_Tree@V?$_Tmap_traits@HIU?$less@H@std@@V?$allocator@U?$pair@$$CBHI@std@@@2@$0A@@std@@@std@@QEAA?AV?$_Tree_iterator@V?$_Tree_val@U?$_Tree_simple_types@U?$pair@$$CBHI@std@@@std@@@std@@@1@V?$_Tree_const_iterator@V?$_Tree_val@U?$_Tree_simple_types@U?$pair@$$CBHI@std@@@std@@@std@@@1@AEBUpiecewise_construct_t@1@$$QEAV?$tuple@AEBH@1@$$QEAV?$tuple@$$V@1@@Z 000000018000f740     game.obj
 0002:00001740       $unwind$??$_Insert_at@AEAU?$pair@$$CBHI@std@@PEAU?$_Tree_node@U?$pair@$$CBHI@std@@PEAX@2@@?$_Tree@V?$_Tmap_traits@HIU?$less@H@std@@V?$allocator@U?$pair@$$CBHI@std@@@2@$0A@@std@@@std@@IEAA?AV?$_Tree_iterator@V?$_Tree_val@U?$_Tree_simple_types@U?$pair@$$CBHI@std@@@std@@@std@@@1@_NPEAU?$_Tree_node@U?$pair@$$CBHI@std@@PEAX@1@AEAU?$pair@$$CBHI@1@1@Z 000000018000f740     game.obj
 0002:00001748       $unwind$??$_Insert_nohint@AEAU?$pair@$$CBHI@std@@PEAU?$_Tree_node@U?$pair@$$CBHI@std@@PEAX@2@@?$_Tree@V?$_Tmap_traits@HIU?$less@H@std@@V?$allocator@U?$pair@$$CBHI@std@@@2@$0A@@std@@@std@@IEAA?AU?$pair@V?$_Tree_iterator@V?$_Tree_val@U?$_Tree_simple_types@U?$pair@$$CBHI@std@@@std@@@std@@@std@@_N@1@_NAEAU?$pair@$$CBHI@1@PEAU?$_Tree_node@U?$pair@$$CBHI@std@@PEAX@1@@Z 000000018000f748     game.obj
 0002:00001758       $tryMap$??$_Insert_nohint@AEAU?$pair@$$CBHI@std@@PEAU?$_Tree_node@U?$pair@$$CBHI@std@@PEAX@2@@?$_Tree@V?$_Tmap_traits@HIU?$less@H@std@@V?$allocator@U?$pair@$$CBHI@std@@@2@$0A@@std@@@std@@IEAA?AU?$pair@V?$_Tree_iterator@V?$_Tree_val@U?$_Tree_simple_types@U?$pair@$$CBHI@std@@@std@@@std@@@std@@_N@1@_NAEAU?$pair@$$CBHI@1@PEAU?$_Tree_node@U?$pair@$$CBHI@std@@PEAX@1@@Z 000000018000f758     game.obj
 0002:0000176c       $handlerMap$0$??$_Insert_nohint@AEAU?$pair@$$CBHI@std@@PEAU?$_Tree_node@U?$pair@$$CBHI@std@@PEAX@2@@?$_Tree@V?$_Tmap_traits@HIU?$less@H@std@@V?$allocator@U?$pair@$$CBHI@std@@@2@$0A@@std@@@std@@IEAA?AU?$pair@V?$_Tree_iterator@V?$_Tree_val@U?$_Tree_simple_types@U?$pair@$$CBHI@std@@@std@@@std@@@std@@_N@1@_NAEAU?$pair@$$CBHI@1@PEAU?$_Tree_node@U?$pair@$$CBHI@std@@PEAX@1@@Z 000000018000f76c     game.obj
 0002:00001780       $ip2state$??$_Insert_nohint@AEAU?$pair@$$CBHI@std@@PEAU?$_Tree_node@U?$pair@$$CBHI@std@@PEAX@2@@?$_Tree@V?$_Tmap_traits@HIU?$less@H@std@@V?$allocator@U?$pair@$$CBHI@std@@@2@$0A@@std@@@std@@IEAA?AU?$pair@V?$_Tree_iterator@V?$_Tree_val@U?$_Tree_simple_types@U?$pair@$$CBHI@std@@@std@@@std@@@std@@_N@1@_NAEAU?$pair@$$CBHI@1@PEAU?$_Tree_node@U?$pair@$$CBHI@std@@PEAX@1@@Z 000000018000f780     game.obj
 0002:000017a0       $unwind$?catch$0@?0???$_Insert_nohint@AEAU?$pair@$$CBHI@std@@PEAU?$_Tree_node@U?$pair@$$CBHI@std@@PEAX@2@@?$_Tree@V?$_Tmap_traits@HIU?$less@H@std@@V?$allocator@U?$pair@$$CBHI@std@@@2@$0A@@std@@@std@@IEAA?AU?$pair@V?$_Tree_iterator@V?$_Tree_val@U?$_Tree_simple_types@U?$pair@$$CBHI@std@@@std@@@std@@@std@@_N@1@_NAEAU?$pair@$$CBHI@1@PEAU?$_Tree_node@U?$pair@$$CBHI@std@@PEAX@1@@Z@4HA 000000018000f7a0     game.obj
 0002:000017b0       $unwind$??$construct@U?$pair@$$CBHI@std@@AEBUpiecewise_construct_t@2@V?$tuple@AEBH@2@V?$tuple@$$V@2@@?$_Wrap_alloc@V?$allocator@U?$_Tree_node@U?$pair@$$CBHI@std@@PEAX@std@@@std@@@std@@QEAAXPEAU?$pair@$$CBHI@1@AEBUpiecewise_construct_t@1@$$QEAV?$tuple@AEBH@1@$$QEAV?$tuple@$$V@1@@Z 000000018000f7b0     game.obj
 0002:000017b0       $unwind$??$construct@U?$pair@$$CBH_N@std@@AEBUpiecewise_construct_t@2@V?$tuple@AEBH@2@V?$tuple@$$V@2@@?$allocator_traits@V?$allocator@U?$_Tree_node@U?$pair@$$CBH_N@std@@PEAX@std@@@std@@@std@@SAXAEAV?$allocator@U?$_Tree_node@U?$pair@$$CBH_N@std@@PEAX@std@@@1@PEAU?$pair@$$CBH_N@1@AEBUpiecewise_construct_t@1@$$QEAV?$tuple@AEBH@1@$$QEAV?$tuple@$$V@1@@Z 000000018000f7b0     game.obj
 0002:000017b0       $unwind$??$construct@U?$pair@$$CBHI@std@@AEBUpiecewise_construct_t@2@V?$tuple@AEBH@2@V?$tuple@$$V@2@@?$allocator_traits@V?$allocator@U?$_Tree_node@U?$pair@$$CBHI@std@@PEAX@std@@@std@@@std@@SAXAEAV?$allocator@U?$_Tree_node@U?$pair@$$CBHI@std@@PEAX@std@@@1@PEAU?$pair@$$CBHI@1@AEBUpiecewise_construct_t@1@$$QEAV?$tuple@AEBH@1@$$QEAV?$tuple@$$V@1@@Z 000000018000f7b0     game.obj
 0002:000017b0       $unwind$??$construct@U?$pair@$$CBH_N@std@@AEBUpiecewise_construct_t@2@V?$tuple@AEBH@2@V?$tuple@$$V@2@@?$_Wrap_alloc@V?$allocator@U?$_Tree_node@U?$pair@$$CBH_N@std@@PEAX@std@@@std@@@std@@QEAAXPEAU?$pair@$$CBH_N@1@AEBUpiecewise_construct_t@1@$$QEAV?$tuple@AEBH@1@$$QEAV?$tuple@$$V@1@@Z 000000018000f7b0     game.obj
 0002:000017b0       $unwind$_vsnprintf_l       000000018000f7b0     game.obj
 0002:000017b8       $unwind$??$_Insert_nohint@AEAU?$pair@$$CBH_N@std@@PEAU?$_Tree_node@U?$pair@$$CBH_N@std@@PEAX@2@@?$_Tree@V?$_Tmap_traits@H_NU?$less@H@std@@V?$allocator@U?$pair@$$CBH_N@std@@@2@$0A@@std@@@std@@IEAA?AU?$pair@V?$_Tree_iterator@V?$_Tree_val@U?$_Tree_simple_types@U?$pair@$$CBH_N@std@@@std@@@std@@@std@@_N@1@_NAEAU?$pair@$$CBH_N@1@PEAU?$_Tree_node@U?$pair@$$CBH_N@std@@PEAX@1@@Z 000000018000f7b8     game.obj
 0002:000017c8       $tryMap$??$_Insert_nohint@AEAU?$pair@$$CBH_N@std@@PEAU?$_Tree_node@U?$pair@$$CBH_N@std@@PEAX@2@@?$_Tree@V?$_Tmap_traits@H_NU?$less@H@std@@V?$allocator@U?$pair@$$CBH_N@std@@@2@$0A@@std@@@std@@IEAA?AU?$pair@V?$_Tree_iterator@V?$_Tree_val@U?$_Tree_simple_types@U?$pair@$$CBH_N@std@@@std@@@std@@@std@@_N@1@_NAEAU?$pair@$$CBH_N@1@PEAU?$_Tree_node@U?$pair@$$CBH_N@std@@PEAX@1@@Z 000000018000f7c8     game.obj
 0002:000017dc       $handlerMap$0$??$_Insert_nohint@AEAU?$pair@$$CBH_N@std@@PEAU?$_Tree_node@U?$pair@$$CBH_N@std@@PEAX@2@@?$_Tree@V?$_Tmap_traits@H_NU?$less@H@std@@V?$allocator@U?$pair@$$CBH_N@std@@@2@$0A@@std@@@std@@IEAA?AU?$pair@V?$_Tree_iterator@V?$_Tree_val@U?$_Tree_simple_types@U?$pair@$$CBH_N@std@@@std@@@std@@@std@@_N@1@_NAEAU?$pair@$$CBH_N@1@PEAU?$_Tree_node@U?$pair@$$CBH_N@std@@PEAX@1@@Z 000000018000f7dc     game.obj
 0002:000017f0       $ip2state$??$_Insert_nohint@AEAU?$pair@$$CBH_N@std@@PEAU?$_Tree_node@U?$pair@$$CBH_N@std@@PEAX@2@@?$_Tree@V?$_Tmap_traits@H_NU?$less@H@std@@V?$allocator@U?$pair@$$CBH_N@std@@@2@$0A@@std@@@std@@IEAA?AU?$pair@V?$_Tree_iterator@V?$_Tree_val@U?$_Tree_simple_types@U?$pair@$$CBH_N@std@@@std@@@std@@@std@@_N@1@_NAEAU?$pair@$$CBH_N@1@PEAU?$_Tree_node@U?$pair@$$CBH_N@std@@PEAX@1@@Z 000000018000f7f0     game.obj
 0002:00001810       $unwind$?catch$0@?0???$_Insert_nohint@AEAU?$pair@$$CBH_N@std@@PEAU?$_Tree_node@U?$pair@$$CBH_N@std@@PEAX@2@@?$_Tree@V?$_Tmap_traits@H_NU?$less@H@std@@V?$allocator@U?$pair@$$CBH_N@std@@@2@$0A@@std@@@std@@IEAA?AU?$pair@V?$_Tree_iterator@V?$_Tree_val@U?$_Tree_simple_types@U?$pair@$$CBH_N@std@@@std@@@std@@@std@@_N@1@_NAEAU?$pair@$$CBH_N@1@PEAU?$_Tree_node@U?$pair@$$CBH_N@std@@PEAX@1@@Z@4HA 000000018000f810     game.obj
 0002:00001820       $unwind$?_Compare@?$_Tree@V?$_Tmap_traits@H_NU?$less@H@std@@V?$allocator@U?$pair@$$CBH_N@std@@@2@$0A@@std@@@std@@IEBA_NAEBH0@Z 000000018000f820     game.obj
 0002:00001820       $unwind$??$try_emplace@$$V@?$map@HIU?$less@H@std@@V?$allocator@U?$pair@$$CBHI@std@@@2@@std@@QEAA?AU?$pair@V?$_Tree_iterator@V?$_Tree_val@U?$_Tree_simple_types@U?$pair@$$CBHI@std@@@std@@@std@@@std@@_N@1@AEBH@Z 000000018000f820     game.obj
 0002:00001820       $unwind$??$try_emplace@$$V@?$map@H_NU?$less@H@std@@V?$allocator@U?$pair@$$CBH_N@std@@@2@@std@@QEAA?AU?$pair@V?$_Tree_iterator@V?$_Tree_val@U?$_Tree_simple_types@U?$pair@$$CBH_N@std@@@std@@@std@@@std@@_N@1@AEBH@Z 000000018000f820     game.obj
 0002:00001820       $unwind$?deallocate@?$_Wrap_alloc@V?$allocator@U?$_Tree_node@U?$pair@$$CBH_N@std@@PEAX@std@@@std@@@std@@QEAAXPEAU?$_Tree_node@U?$pair@$$CBH_N@std@@PEAX@2@_K@Z 000000018000f820     game.obj
 0002:00001820       $unwind$??0?$_Tree_unchecked_const_iterator@V?$_Tree_val@U?$_Tree_simple_types@U?$pair@$$CBH_N@std@@@std@@@std@@U_Iterator_base0@2@@std@@QEAA@PEAU?$_Tree_node@U?$pair@$$CBH_N@std@@PEAX@1@PEBV?$_Tree_val@U?$_Tree_simple_types@U?$pair@$$CBH_N@std@@@std@@@1@@Z 000000018000f820     game.obj
 0002:00001820       $unwind$??$construct@PEAU?$_Tree_node@U?$pair@$$CBHI@std@@PEAX@std@@AEAPEAU12@@?$_Wrap_alloc@V?$allocator@U?$_Tree_node@U?$pair@$$CBHI@std@@PEAX@std@@@std@@@std@@QEAAXPEAPEAU?$_Tree_node@U?$pair@$$CBHI@std@@PEAX@1@AEAPEAU21@@Z 000000018000f820     game.obj
 0002:00001820       $unwind$?deallocate@?$allocator@U?$_Tree_node@U?$pair@$$CBH_N@std@@PEAX@std@@@std@@QEAAXPEAU?$_Tree_node@U?$pair@$$CBH_N@std@@PEAX@2@_K@Z 000000018000f820     game.obj
 0002:00001820       $unwind$?deallocate@?$allocator@U?$_Tree_node@U?$pair@$$CBHI@std@@PEAX@std@@@std@@QEAAXPEAU?$_Tree_node@U?$pair@$$CBHI@std@@PEAX@2@_K@Z 000000018000f820     game.obj
 0002:00001820       $unwind$??$construct@PEAU?$_Tree_node@U?$pair@$$CBH_N@std@@PEAX@std@@AEAPEAU12@@?$_Wrap_alloc@V?$allocator@U?$_Tree_node@U?$pair@$$CBH_N@std@@PEAX@std@@@std@@@std@@QEAAXPEAPEAU?$_Tree_node@U?$pair@$$CBH_N@std@@PEAX@1@AEAPEAU21@@Z 000000018000f820     game.obj
 0002:00001820       $unwind$??0?$_Tree_unchecked_const_iterator@V?$_Tree_val@U?$_Tree_simple_types@U?$pair@$$CBHI@std@@@std@@@std@@U_Iterator_base0@2@@std@@QEAA@PEAU?$_Tree_node@U?$pair@$$CBHI@std@@PEAX@1@PEBV?$_Tree_val@U?$_Tree_simple_types@U?$pair@$$CBHI@std@@@std@@@1@@Z 000000018000f820     game.obj
 0002:00001820       $unwind$??0?$_Tree_const_iterator@V?$_Tree_val@U?$_Tree_simple_types@U?$pair@$$CBH_N@std@@@std@@@std@@@std@@QEAA@PEAU?$_Tree_node@U?$pair@$$CBH_N@std@@PEAX@1@PEBV?$_Tree_val@U?$_Tree_simple_types@U?$pair@$$CBH_N@std@@@std@@@1@@Z 000000018000f820     game.obj
 0002:00001820       $unwind$??0?$_Tree_iterator@V?$_Tree_val@U?$_Tree_simple_types@U?$pair@$$CBH_N@std@@@std@@@std@@@std@@QEAA@PEAU?$_Tree_node@U?$pair@$$CBH_N@std@@PEAX@1@PEBV?$_Tree_val@U?$_Tree_simple_types@U?$pair@$$CBH_N@std@@@std@@@1@@Z 000000018000f820     game.obj
 0002:00001820       $unwind$??$?0V?$_Tree_iterator@V?$_Tree_val@U?$_Tree_simple_types@U?$pair@$$CBHI@std@@@std@@@std@@@std@@_NX$0A@@?$pair@V?$_Tree_iterator@V?$_Tree_val@U?$_Tree_simple_types@U?$pair@$$CBHI@std@@@std@@@std@@@std@@_N@std@@QEAA@$$QEAV?$_Tree_iterator@V?$_Tree_val@U?$_Tree_simple_types@U?$pair@$$CBHI@std@@@std@@@std@@@1@$$QEA_N@Z 000000018000f820     game.obj
 0002:00001820       $unwind$??$?0AEAV?$_Tree_iterator@V?$_Tree_val@U?$_Tree_simple_types@U?$pair@$$CBHI@std@@@std@@@std@@@std@@_NX$0A@@?$pair@V?$_Tree_iterator@V?$_Tree_val@U?$_Tree_simple_types@U?$pair@$$CBHI@std@@@std@@@std@@@std@@_N@std@@QEAA@AEAV?$_Tree_iterator@V?$_Tree_val@U?$_Tree_simple_types@U?$pair@$$CBHI@std@@@std@@@std@@@1@$$QEA_N@Z 000000018000f820     game.obj
 0002:00001820       $unwind$?_Compare@?$_Tree@V?$_Tmap_traits@HIU?$less@H@std@@V?$allocator@U?$pair@$$CBHI@std@@@2@$0A@@std@@@std@@IEBA_NAEBH0@Z 000000018000f820     game.obj
 0002:00001820       $unwind$??0?$_Tree_iterator@V?$_Tree_val@U?$_Tree_simple_types@U?$pair@$$CBHI@std@@@std@@@std@@@std@@QEAA@PEAU?$_Tree_node@U?$pair@$$CBHI@std@@PEAX@1@PEBV?$_Tree_val@U?$_Tree_simple_types@U?$pair@$$CBHI@std@@@std@@@1@@Z 000000018000f820     game.obj
 0002:00001820       $unwind$??$construct@PEAU?$_Tree_node@U?$pair@$$CBHI@std@@PEAX@std@@AEAPEAU12@@?$allocator_traits@V?$allocator@U?$_Tree_node@U?$pair@$$CBHI@std@@PEAX@std@@@std@@@std@@SAXAEAV?$allocator@U?$_Tree_node@U?$pair@$$CBHI@std@@PEAX@std@@@1@PEAPEAU?$_Tree_node@U?$pair@$$CBHI@std@@PEAX@1@AEAPEAU31@@Z 000000018000f820     game.obj
 0002:00001820       $unwind$??$?0V?$_Tree_iterator@V?$_Tree_val@U?$_Tree_simple_types@U?$pair@$$CBH_N@std@@@std@@@std@@@std@@_NX$0A@@?$pair@V?$_Tree_iterator@V?$_Tree_val@U?$_Tree_simple_types@U?$pair@$$CBH_N@std@@@std@@@std@@@std@@_N@std@@QEAA@$$QEAV?$_Tree_iterator@V?$_Tree_val@U?$_Tree_simple_types@U?$pair@$$CBH_N@std@@@std@@@std@@@1@$$QEA_N@Z 000000018000f820     game.obj
 0002:00001820       $unwind$??$construct@PEAU?$_Tree_node@U?$pair@$$CBH_N@std@@PEAX@std@@AEAPEAU12@@?$allocator_traits@V?$allocator@U?$_Tree_node@U?$pair@$$CBH_N@std@@PEAX@std@@@std@@@std@@SAXAEAV?$allocator@U?$_Tree_node@U?$pair@$$CBH_N@std@@PEAX@std@@@1@PEAPEAU?$_Tree_node@U?$pair@$$CBH_N@std@@PEAX@1@AEAPEAU31@@Z 000000018000f820     game.obj
 0002:00001820       $unwind$??$?0AEAV?$_Tree_iterator@V?$_Tree_val@U?$_Tree_simple_types@U?$pair@$$CBH_N@std@@@std@@@std@@@std@@_NX$0A@@?$pair@V?$_Tree_iterator@V?$_Tree_val@U?$_Tree_simple_types@U?$pair@$$CBH_N@std@@@std@@@std@@@std@@_N@std@@QEAA@AEAV?$_Tree_iterator@V?$_Tree_val@U?$_Tree_simple_types@U?$pair@$$CBH_N@std@@@std@@@std@@@1@$$QEA_N@Z 000000018000f820     game.obj
 0002:00001820       $unwind$??$?GM$0A@@glm@@YA?AU?$tvec2@M$0A@@0@AEBU10@0@Z 000000018000f820     game.obj
 0002:00001820       $unwind$??0?$_Tree_const_iterator@V?$_Tree_val@U?$_Tree_simple_types@U?$pair@$$CBHI@std@@@std@@@std@@@std@@QEAA@PEAU?$_Tree_node@U?$pair@$$CBHI@std@@PEAX@1@PEBV?$_Tree_val@U?$_Tree_simple_types@U?$pair@$$CBHI@std@@@std@@@1@@Z 000000018000f820     game.obj
 0002:00001820       $unwind$?deallocate@?$_Wrap_alloc@V?$allocator@U?$_Tree_node@U?$pair@$$CBHI@std@@PEAX@std@@@std@@@std@@QEAAXPEAU?$_Tree_node@U?$pair@$$CBHI@std@@PEAX@2@_K@Z 000000018000f820     game.obj
 0002:00001820       $unwind$??$?DM$0A@@glm@@YA?AU?$tvec2@M$0A@@0@AEBU10@0@Z 000000018000f820     game.obj
 0002:00001828       $unwind$??$construct@U?$pair@$$CBHI@std@@AEBUpiecewise_construct_t@2@V?$tuple@AEBH@2@V?$tuple@$$V@2@@?$allocator@U?$_Tree_node@U?$pair@$$CBHI@std@@PEAX@std@@@std@@QEAAXPEAU?$pair@$$CBHI@1@AEBUpiecewise_construct_t@1@$$QEAV?$tuple@AEBH@1@$$QEAV?$tuple@$$V@1@@Z 000000018000f828     game.obj
 0002:00001838       $ip2state$??$construct@U?$pair@$$CBHI@std@@AEBUpiecewise_construct_t@2@V?$tuple@AEBH@2@V?$tuple@$$V@2@@?$allocator@U?$_Tree_node@U?$pair@$$CBHI@std@@PEAX@std@@@std@@QEAAXPEAU?$pair@$$CBHI@1@AEBUpiecewise_construct_t@1@$$QEAV?$tuple@AEBH@1@$$QEAV?$tuple@$$V@1@@Z 000000018000f838     game.obj
 0002:00001850       $unwind$??$construct@U?$pair@$$CBH_N@std@@AEBUpiecewise_construct_t@2@V?$tuple@AEBH@2@V?$tuple@$$V@2@@?$allocator@U?$_Tree_node@U?$pair@$$CBH_N@std@@PEAX@std@@@std@@QEAAXPEAU?$pair@$$CBH_N@1@AEBUpiecewise_construct_t@1@$$QEAV?$tuple@AEBH@1@$$QEAV?$tuple@$$V@1@@Z 000000018000f850     game.obj
 0002:00001860       $stateUnwindMap$??$construct@U?$pair@$$CBHI@std@@AEBUpiecewise_construct_t@2@V?$tuple@AEBH@2@V?$tuple@$$V@2@@?$allocator@U?$_Tree_node@U?$pair@$$CBHI@std@@PEAX@std@@@std@@QEAAXPEAU?$pair@$$CBHI@1@AEBUpiecewise_construct_t@1@$$QEAV?$tuple@AEBH@1@$$QEAV?$tuple@$$V@1@@Z 000000018000f860     game.obj
 0002:00001860       $stateUnwindMap$??$construct@U?$pair@$$CBH_N@std@@AEBUpiecewise_construct_t@2@V?$tuple@AEBH@2@V?$tuple@$$V@2@@?$allocator@U?$_Tree_node@U?$pair@$$CBH_N@std@@PEAX@std@@@std@@QEAAXPEAU?$pair@$$CBH_N@1@AEBUpiecewise_construct_t@1@$$QEAV?$tuple@AEBH@1@$$QEAV?$tuple@$$V@1@@Z 000000018000f860     game.obj
 0002:00001868       $ip2state$??$construct@U?$pair@$$CBH_N@std@@AEBUpiecewise_construct_t@2@V?$tuple@AEBH@2@V?$tuple@$$V@2@@?$allocator@U?$_Tree_node@U?$pair@$$CBH_N@std@@PEAX@std@@@std@@QEAAXPEAU?$pair@$$CBH_N@1@AEBUpiecewise_construct_t@1@$$QEAV?$tuple@AEBH@1@$$QEAV?$tuple@$$V@1@@Z 000000018000f868     game.obj
 0002:00001880       $unwind$??$?0AEBH$$Z$$V@?$pair@$$CBHI@std@@QEAA@Upiecewise_construct_t@1@V?$tuple@AEBH@1@V?$tuple@$$V@1@@Z 000000018000f880     game.obj
 0002:00001880       $unwind$??$?0AEBH$$Z$$V@?$pair@$$CBH_N@std@@QEAA@Upiecewise_construct_t@1@V?$tuple@AEBH@1@V?$tuple@$$V@1@@Z 000000018000f880     game.obj
 0002:00001888       $unwind$??$?0V?$tuple@AEBH@std@@V?$tuple@$$V@1@$0A@$$Z$S@?$pair@$$CBHI@std@@QEAA@AEAV?$tuple@AEBH@1@AEAV?$tuple@$$V@1@U?$integer_sequence@_K$0A@@1@U?$integer_sequence@_K$S@1@@Z 000000018000f888     game.obj
 0002:00001888       $unwind$??$?0V?$tuple@AEBH@std@@V?$tuple@$$V@1@$0A@$$Z$S@?$pair@$$CBH_N@std@@QEAA@AEAV?$tuple@AEBH@1@AEAV?$tuple@$$V@1@U?$integer_sequence@_K$0A@@1@U?$integer_sequence@_K$S@1@@Z 000000018000f888     game.obj
 0002:00001890       $chain$0$glfwTerminate     000000018000f890     glfw3:init.c.obj
 0002:000018a4       $chain$1$glfwTerminate     000000018000f8a4     glfw3:init.c.obj
 0002:000018b8       $chain$2$glfwTerminate     000000018000f8b8     glfw3:init.c.obj
 0002:000018c8       $chain$3$glfwTerminate     000000018000f8c8     glfw3:init.c.obj
 0002:000018d8       $unwind$_glfwInputError    000000018000f8d8     glfw3:init.c.obj
 0002:000018ec       $chain$0$_glfwInputError   000000018000f8ec     glfw3:init.c.obj
 0002:00001900       $chain$1$_glfwInputError   000000018000f900     glfw3:init.c.obj
 0002:00001910       $unwind$glfwDestroyCursor  000000018000f910     glfw3:input.c.obj
 0002:00001918       $chain$0$glfwDestroyCursor 000000018000f918     glfw3:input.c.obj
 0002:0000192c       $chain$1$glfwDestroyCursor 000000018000f92c     glfw3:input.c.obj
 0002:00001940       $chain$2$glfwDestroyCursor 000000018000f940     glfw3:input.c.obj
 0002:00001950       $chain$3$glfwDestroyCursor 000000018000f950     glfw3:input.c.obj
 0002:00001960       $unwind$_glfwRestoreVideoModeWin32 000000018000f960     glfw3:win32_monitor.c.obj
 0002:00001968       $unwind$_glfwPlatformSetGammaRamp 000000018000f968     glfw3:win32_monitor.c.obj
 0002:0000197c       $unwind$_glfwFreeMonitors  000000018000f97c     glfw3:monitor.c.obj
 0002:0000198c       $chain$0$_glfwFreeMonitors 000000018000f98c     glfw3:monitor.c.obj
 0002:000019a0       $chain$1$_glfwFreeMonitors 000000018000f9a0     glfw3:monitor.c.obj
 0002:000019b0       $unwind$_glfwPlatformDestroyWindow 000000018000f9b0     glfw3:win32_window.c.obj
 0002:000019b0       $unwind$??_Gexception@std@@UEAAPEAXI@Z 000000018000f9b0     MSVCRT:throw_bad_alloc.obj
 0002:000019b0       $unwind$??_Gbad_alloc@std@@UEAAPEAXI@Z 000000018000f9b0     MSVCRT:throw_bad_alloc.obj
 0002:000019b0       $unwind$??_Gbad_array_new_length@std@@UEAAPEAXI@Z 000000018000f9b0     MSVCRT:throw_bad_alloc.obj
 0002:000019bc       $unwind$_glfwPlatformGetFramebufferSize 000000018000f9bc     glfw3:win32_window.c.obj
 0002:000019d0       $unwind$cursorInClientArea 000000018000f9d0     glfw3:win32_window.c.obj
 0002:000019e4       $unwind$_onexit            000000018000f9e4     MSVCRT:utility.obj
 0002:000019e4       $unwind$glfwMakeContextCurrent 000000018000f9e4     glfw3:context.c.obj
 0002:000019e4       $unwind$__scrt_release_startup_lock 000000018000f9e4     MSVCRT:utility.obj
 0002:000019e4       $unwind$_glfwPlatformSetCursor 000000018000f9e4     glfw3:win32_window.c.obj
 0002:000019e4       $unwind$__raise_securityfailure 000000018000f9e4     MSVCRT:gs_report.obj
 0002:000019e4       $unwind$__scrt_initialize_crt 000000018000f9e4     MSVCRT:utility.obj
 0002:000019e4       $unwind$__scrt_uninitialize_crt 000000018000f9e4     MSVCRT:utility.obj
 0002:000019e4       $unwind$_glfwTerminateVulkan 000000018000f9e4     glfw3:vulkan.c.obj
 0002:000019e4       $unwind$??0bad_alloc@std@@QEAA@AEBV01@@Z 000000018000f9e4     MSVCRT:throw_bad_alloc.obj
 0002:000019e4       $unwind$??_Gtype_info@@UEAAPEAXI@Z 000000018000f9e4     MSVCRT:std_type_info_static.obj
 0002:000019e4       $unwind$??2@YAPEAX_K@Z     000000018000f9e4     MSVCRT:new_scalar.obj
 0002:000019e4       $unwind$??0exception@std@@QEAA@AEBV01@@Z 000000018000f9e4     MSVCRT:throw_bad_alloc.obj
 0002:000019e4       $unwind$??0bad_array_new_length@std@@QEAA@AEBV01@@Z 000000018000f9e4     MSVCRT:throw_bad_alloc.obj
 0002:000019e4       $unwind$glfwDestroyWindow  000000018000f9e4     glfw3:window.c.obj
 0002:000019ec       $unwind$__GSHandlerCheckCommon 000000018000f9ec     MSVCRT:_gshandler_.obj
 0002:000019f8       $xdatasym                  000000018000f9f8     MSVCRT:_amdsecgs_.obj
 0002:000019fc       $unwind$?dllmain_crt_process_attach@@YAHQEAUHINSTANCE__@@QEAX@Z 000000018000f9fc     MSVCRT:dll_dllmain.obj
 0002:00001a28       $unwind$?dtor$0@?0???$construct@U?$pair@$$CBHI@std@@AEBUpiecewise_construct_t@2@V?$tuple@AEBH@2@V?$tuple@$$V@2@@?$allocator@U?$_Tree_node@U?$pair@$$CBHI@std@@PEAX@std@@@std@@QEAAXPEAU?$pair@$$CBHI@1@AEBUpiecewise_construct_t@1@$$QEAV?$tuple@AEBH@1@$$QEAV?$tuple@$$V@1@@Z@4HA 000000018000fa28     game.obj
 0002:00001a28       $unwind$?dtor$0@?0???$construct@U?$pair@$$CBH_N@std@@AEBUpiecewise_construct_t@2@V?$tuple@AEBH@2@V?$tuple@$$V@2@@?$allocator@U?$_Tree_node@U?$pair@$$CBH_N@std@@PEAX@std@@@std@@QEAAXPEAU?$pair@$$CBH_N@1@AEBUpiecewise_construct_t@1@$$QEAV?$tuple@AEBH@1@$$QEAV?$tuple@$$V@1@@Z@4HA 000000018000fa28     game.obj
 0002:00001a28       $unwind$?fin$0@?0??dllmain_crt_process_attach@@YAHQEAUHINSTANCE__@@QEAX@Z@4HA 000000018000fa28     MSVCRT:dll_dllmain.obj
 0002:00001a28       $unwind$?fin$0@?0??dllmain_crt_process_detach@@YAH_N@Z@4HA 000000018000fa28     MSVCRT:dll_dllmain.obj
 0002:00001a30       $unwind$?dllmain_crt_process_detach@@YAH_N@Z 000000018000fa30     MSVCRT:dll_dllmain.obj
 0002:00001a58       $unwind$__scrt_dllmain_exception_filter 000000018000fa58     MSVCRT:utility.obj
 0002:00001a58       $unwind$?dllmain_raw@@YAHQEAUHINSTANCE__@@KQEAX@Z 000000018000fa58     MSVCRT:dll_dllmain.obj
 0002:00001a6c       $unwind$?dllmain_dispatch@@YAHQEAUHINSTANCE__@@KQEAX@Z 000000018000fa6c     MSVCRT:dll_dllmain.obj
 0002:00001a94       $unwind$?filt$0@?0??dllmain_dispatch@@YAHQEAUHINSTANCE__@@KQEAX@Z@4HA 000000018000fa94     MSVCRT:dll_dllmain.obj
 0002:00001aa0       $xdatasym                  000000018000faa0     MSVCRT:_chkstk_.obj
 0002:00001aa8       $unwind$?__scrt_throw_std_bad_alloc@@YAXXZ 000000018000faa8     MSVCRT:throw_bad_alloc.obj
 0002:00001aa8       $unwind$?__scrt_throw_std_bad_array_new_length@@YAXXZ 000000018000faa8     MSVCRT:throw_bad_alloc.obj
 0002:00001ab0       $unwind$??E?$_Tree_unchecked_const_iterator@V?$_Tree_val@U?$_Tree_simple_types@U?$pair@$$CBHI@std@@@std@@@std@@U_Iterator_base0@2@@std@@QEAAAEAV01@XZ 000000018000fab0     game.obj
 0002:00001ab0       $unwind$??F?$_Tree_unchecked_const_iterator@V?$_Tree_val@U?$_Tree_simple_types@U?$pair@$$CBHI@std@@@std@@@std@@U_Iterator_base0@2@@std@@QEAAAEAV01@XZ 000000018000fab0     game.obj
 0002:00001ab0       $unwind$??E?$_Tree_unchecked_const_iterator@V?$_Tree_val@U?$_Tree_simple_types@U?$pair@$$CBH_N@std@@@std@@@std@@U_Iterator_base0@2@@std@@QEAAAEAV01@XZ 000000018000fab0     game.obj
 0002:00001ab0       $unwind$?max_size@?$_Tree@V?$_Tmap_traits@HIU?$less@H@std@@V?$allocator@U?$pair@$$CBHI@std@@@2@$0A@@std@@@std@@QEBA_KXZ 000000018000fab0     game.obj
 0002:00001ab0       $unwind$__report_gsfailure 000000018000fab0     MSVCRT:gs_report.obj
 0002:00001ab0       $unwind$??F?$_Tree_unchecked_const_iterator@V?$_Tree_val@U?$_Tree_simple_types@U?$pair@$$CBH_N@std@@@std@@@std@@U_Iterator_base0@2@@std@@QEAAAEAV01@XZ 000000018000fab0     game.obj
 0002:00001ab0       $unwind$?max_size@?$_Tree@V?$_Tmap_traits@H_NU?$less@H@std@@V?$allocator@U?$pair@$$CBH_N@std@@@2@$0A@@std@@@std@@QEBA_KXZ 000000018000fab0     game.obj
 0002:00001ab8       $unwind$capture_previous_context 000000018000fab8     MSVCRT:gs_report.obj
 0002:00001ac4       $unwind$__scrt_is_nonwritable_in_current_image 000000018000fac4     MSVCRT:utility.obj
 0002:00001ae4       $unwind$__scrt_is_nonwritable_in_current_image$filt$0 000000018000fae4     MSVCRT:utility.obj
 0002:00001aec       $unwind$__GSHandlerCheck   000000018000faec     MSVCRT:_gshandler_.obj
 0002:00001aec       $unwind$_glfwTerminateEGL  000000018000faec     glfw3:egl_context.c.obj
 0002:00001aec       $unwind$__scrt_dllmain_uninitialize_c 000000018000faec     MSVCRT:utility.obj
 0002:00001aec       $unwind$__scrt_dllmain_crt_thread_attach 000000018000faec     MSVCRT:utility.obj
 0002:00001aec       $unwind$_glfwUnregisterWindowClassWin32 000000018000faec     glfw3:win32_window.c.obj
 0002:00001aec       $unwind$atexit             000000018000faec     MSVCRT:utility.obj
 0002:00001aec       $unwind$__scrt_dllmain_crt_thread_detach 000000018000faec     MSVCRT:utility.obj
 0002:00001aec       $unwind$?dllmain_crt_dispatch@@YAHQEAUHINSTANCE__@@KQEAX@Z 000000018000faec     MSVCRT:dll_dllmain.obj
 0002:00001aec       $unwind$DllMain            000000018000faec     MSVCRT:dll_dllmain_stub.obj
 0002:00001aec       $unwind$__scrt_acquire_startup_lock 000000018000faec     MSVCRT:utility.obj
 0002:00001aec       $unwind$_glfwPlatformTerminate 000000018000faec     glfw3:win32_init.c.obj
 0002:00001aec       $unwind$glfwGetWindowUserPointer 000000018000faec     glfw3:window.c.obj
 0002:00001aec       $unwind$freeLibraries      000000018000faec     glfw3:win32_init.c.obj
 0002:00001aec       $unwind$glfwTerminate      000000018000faec     glfw3:init.c.obj
 0002:00001aec       $unwind$__scrt_dllmain_after_initialize_c 000000018000faec     MSVCRT:utility.obj
 0002:00001aec       $unwind$__scrt_dllmain_uninitialize_critical 000000018000faec     MSVCRT:utility.obj
 0002:00001aec       $unwind$__scrt_dllmain_before_initialize_c 000000018000faec     MSVCRT:utility.obj
 0002:00001aec       $unwind$__scrt_initialize_default_local_stdio_options 000000018000faec     MSVCRT:default_local_stdio_options.obj
 0002:00001af4       $unwind$__scrt_initialize_onexit_tables 000000018000faf4     MSVCRT:utility.obj
 0002:00001b00       $unwind$__security_init_cookie 000000018000fb00     MSVCRT:gs_support.obj
 0002:00001b0c       $unwind$__scrt_fastfail    000000018000fb0c     MSVCRT:utility_desktop.obj
 0002:00001b1c       $unwind$_RTC_Initialize    000000018000fb1c     MSVCRT:_initsect_.obj
 0002:00001b1c       $unwind$_DllMainCRTStartup 000000018000fb1c     MSVCRT:dll_dllmain.obj
 0002:00001b1c       $unwind$_RTC_Terminate     000000018000fb1c     MSVCRT:_initsect_.obj
 0002:00001b1c       $unwind$_glfwTerminateJoysticksWin32 000000018000fb1c     glfw3:win32_joystick.c.obj
 0002:00001b2c       $unwind$__isa_available_init 000000018000fb2c     MSVCRT:_cpu_disp_.obj
 0002:00001b40       $xdatasym                  000000018000fb40     MSVCRT:_guard_dispatch_.obj
 0002:00001c40       .edata                     000000018000fc40     game.exp
 0002:00001c68       rgpv                       000000018000fc68     game.exp
 0002:00001c6c       rgszName                   000000018000fc6c     game.exp
 0002:00001c70       rgwOrd                     000000018000fc70     game.exp
 0002:00001c72       szName                     000000018000fc72     game.exp
 0002:00001c7b       $N00001                    000000018000fc7b     game.exp
 0002:00002056       .idata$6                   0000000180010056     OpenAL32:OpenAL32.dll
 0002:000020a0       .idata$6                   00000001800100a0     msvcprt:MSVCP140.dll
 0002:00002158       .idata$6                   0000000180010158     vcruntime:VCRUNTIME140.dll
 0002:000022dc       .idata$6                   00000001800102dc     ucrt:api-ms-win-crt-runtime-l1-1-0.dll
 0002:000022fe       .idata$6                   00000001800102fe     ucrt:api-ms-win-crt-heap-l1-1-0.dll
 0002:0000231e       .idata$6                   000000018001031e     ucrt:api-ms-win-crt-convert-l1-1-0.dll
 0002:00002340       .idata$6                   0000000180010340     ucrt:api-ms-win-crt-stdio-l1-1-0.dll
 0002:00002360       .idata$6                   0000000180010360     ucrt:api-ms-win-crt-string-l1-1-0.dll
 0002:00002382       .idata$6                   0000000180010382     ucrt:api-ms-win-crt-math-l1-1-0.dll
 0002:00002542       .idata$6                   0000000180010542     kernel32:KERNEL32.dll
 0002:0000262e       .idata$6                   000000018001062e     user32:USER32.dll
 0002:00002668       .idata$6                   0000000180010668     gdi32:GDI32.dll
 0003:00000020       ?stb__perlin_randtab@@3PAEA 0000000180011020     game.obj
 0003:00000220       ?basis@?1??stb__perlin_grad@@YAMHMMM@Z@4PAY03MA 0000000180011220     game.obj
 0003:000002e0       ?indices@?1??stb__perlin_grad@@YAMHMMM@Z@4PAEA 00000001800112e0     game.obj
 0003:00000320       _glfwObjectDataFormats     0000000180011320     glfw3:win32_joystick.c.obj
 0003:00000850       _glfwErrorCallback         0000000180011850     glfw3:init.c.obj
 0003:00000858       ?__proc_attached@@3HA      0000000180011858     MSVCRT:dll_dllmain.obj
 0003:00000860       GS_ExceptionRecord         0000000180011860     MSVCRT:gs_report.obj
 0003:00000900       GS_ContextRecord           0000000180011900     MSVCRT:gs_report.obj
 0003:00000de0       ?module_local_atexit_table@@3U_onexit_table_t@@A 0000000180011de0     MSVCRT:utility.obj
 0003:00000df8       ?module_local_at_quick_exit_table@@3U_onexit_table_t@@A 0000000180011df8     MSVCRT:utility.obj
 0003:00000e10       ?is_initialized_as_dll@@3_NA 0000000180011e10     MSVCRT:utility.obj
 0004:00000000       $pdata$?CombineStrings@@YAPEADPEBD0@Z 0000000180013000     game.obj
 0004:0000000c       $pdata$stb_perlin_noise3   000000018001300c     game.obj
 0004:00000018       $pdata$stb_perlin_ridge_noise3 0000000180013018     game.obj
 0004:00000024       $pdata$stb_perlin_fbm_noise3 0000000180013024     game.obj
 0004:00000030       $pdata$stb_perlin_turbulence_noise3 0000000180013030     game.obj
 0004:0000003c       $pdata$?stb__perlin_fastfloor@@YAHM@Z 000000018001303c     game.obj
 0004:00000048       $pdata$?stb__perlin_grad@@YAMHMMM@Z 0000000180013048     game.obj
 0004:00000054       $pdata$?CharacterCallback@@YAXPEAUGLFWwindow@@I@Z 0000000180013054     game.obj
 0004:00000060       $pdata$?GetKey@@YA_NHPEAUgame_state@@@Z 0000000180013060     game.obj
 0004:0000006c       $pdata$?GetKeyDown@@YA_NHPEAUgame_state@@@Z 000000018001306c     game.obj
 0004:00000078       $pdata$?PlaySoundEffect@@YAXPEAUgame_state@@PEAUloaded_sound@@@Z 0000000180013078     game.obj
 0004:00000084       $pdata$?PlaySoundEffectOnce@@YAXPEAUgame_state@@PEAUloaded_sound@@@Z 0000000180013084     game.obj
 0004:00000090       $pdata$?StopSoundEffect@@YAXPEAUgame_state@@PEAUloaded_sound@@@Z 0000000180013090     game.obj
 0004:0000009c       $pdata$?PauseSoundEffect@@YAXPEAUgame_state@@PEAUloaded_sound@@@Z 000000018001309c     game.obj
 0004:000000a8       $pdata$?ExecuteCommand@@YAXPEAUgame_state@@@Z 00000001800130a8     game.obj
 0004:000000b4       $pdata$Update              00000001800130b4     game.obj
 0004:000000c0       $pdata$??$?0AEAV?$_Tree_iterator@V?$_Tree_val@U?$_Tree_simple_types@U?$pair@$$CBHI@std@@@std@@@std@@@std@@_NX$0A@@?$pair@V?$_Tree_iterator@V?$_Tree_val@U?$_Tree_simple_types@U?$pair@$$CBHI@std@@@std@@@std@@@std@@_N@std@@QEAA@AEAV?$_Tree_iterator@V?$_Tree_val@U?$_Tree_simple_types@U?$pair@$$CBHI@std@@@std@@@std@@@1@$$QEA_N@Z 00000001800130c0     game.obj
 0004:000000c0       $pdata$??$?0V?$_Tree_iterator@V?$_Tree_val@U?$_Tree_simple_types@U?$pair@$$CBH_N@std@@@std@@@std@@@std@@_NX$0A@@?$pair@V?$_Tree_iterator@V?$_Tree_val@U?$_Tree_simple_types@U?$pair@$$CBH_N@std@@@std@@@std@@@std@@_N@std@@QEAA@$$QEAV?$_Tree_iterator@V?$_Tree_val@U?$_Tree_simple_types@U?$pair@$$CBH_N@std@@@std@@@std@@@1@$$QEA_N@Z 00000001800130c0     game.obj
 0004:000000c0       $pdata$??$?0AEAV?$_Tree_iterator@V?$_Tree_val@U?$_Tree_simple_types@U?$pair@$$CBH_N@std@@@std@@@std@@@std@@_NX$0A@@?$pair@V?$_Tree_iterator@V?$_Tree_val@U?$_Tree_simple_types@U?$pair@$$CBH_N@std@@@std@@@std@@@std@@_N@std@@QEAA@AEAV?$_Tree_iterator@V?$_Tree_val@U?$_Tree_simple_types@U?$pair@$$CBH_N@std@@@std@@@std@@@1@$$QEA_N@Z 00000001800130c0     game.obj
 0004:000000c0       $pdata$??$?0V?$_Tree_iterator@V?$_Tree_val@U?$_Tree_simple_types@U?$pair@$$CBHI@std@@@std@@@std@@@std@@_NX$0A@@?$pair@V?$_Tree_iterator@V?$_Tree_val@U?$_Tree_simple_types@U?$pair@$$CBHI@std@@@std@@@std@@@std@@_N@std@@QEAA@$$QEAV?$_Tree_iterator@V?$_Tree_val@U?$_Tree_simple_types@U?$pair@$$CBHI@std@@@std@@@std@@@1@$$QEA_N@Z 00000001800130c0     game.obj
 0004:000000cc       $pdata$??$?0AEBH$$Z$$V@?$pair@$$CBHI@std@@QEAA@Upiecewise_construct_t@1@V?$tuple@AEBH@1@V?$tuple@$$V@1@@Z 00000001800130cc     game.obj
 0004:000000d8       $pdata$??$?0AEBH$$Z$$V@?$pair@$$CBH_N@std@@QEAA@Upiecewise_construct_t@1@V?$tuple@AEBH@1@V?$tuple@$$V@1@@Z 00000001800130d8     game.obj
 0004:000000e4       $pdata$??$?0AEBH$0A@@?$tuple@AEBH@std@@QEAA@AEBH@Z 00000001800130e4     game.obj
 0004:000000f0       $pdata$??$?0AEBH@?$_Tuple_val@AEBH@std@@QEAA@AEBH@Z 00000001800130f0     game.obj
 0004:000000fc       $pdata$??$?0V?$tuple@AEBH@std@@V?$tuple@$$V@1@$0A@$$Z$S@?$pair@$$CBHI@std@@QEAA@AEAV?$tuple@AEBH@1@AEAV?$tuple@$$V@1@U?$integer_sequence@_K$0A@@1@U?$integer_sequence@_K$S@1@@Z 00000001800130fc     game.obj
 0004:00000108       $pdata$??$?0V?$tuple@AEBH@std@@V?$tuple@$$V@1@$0A@$$Z$S@?$pair@$$CBH_N@std@@QEAA@AEAV?$tuple@AEBH@1@AEAV?$tuple@$$V@1@U?$integer_sequence@_K$0A@@1@U?$integer_sequence@_K$S@1@@Z 0000000180013108     game.obj
 0004:00000114       $pdata$??$?DM$0A@@glm@@YA?AU?$tmat4x4@M$0A@@0@AEBU10@0@Z 0000000180013114     game.obj
 0004:00000120       $pdata$??$?DM$0A@@glm@@YA?AU?$tmat4x4@M$0A@@0@AEBU10@AEBM@Z 0000000180013120     game.obj
 0004:0000012c       $pdata$??$?DM$0A@@glm@@YA?AU?$tvec2@M$0A@@0@AEBU10@0@Z 000000018001312c     game.obj
 0004:00000138       $pdata$??$?DM$0A@@glm@@YA?AU?$tvec2@M$0A@@0@AEBU10@M@Z 0000000180013138     game.obj
 0004:00000144       $pdata$??$?DM$0A@@glm@@YA?AU?$tvec4@M$0A@@0@AEBU10@0@Z 0000000180013144     game.obj
 0004:00000150       $pdata$??$?DM$0A@@glm@@YA?AU?$tvec4@M$0A@@0@AEBU10@M@Z 0000000180013150     game.obj
 0004:0000015c       $pdata$??$?DM$0A@@glm@@YA?AU?$tvec4@M$0A@@0@AEBU?$tmat4x4@M$0A@@0@AEBU10@@Z 000000018001315c     game.obj
 0004:00000168       $pdata$??$?GM$0A@@glm@@YA?AU?$tvec2@M$0A@@0@AEBU10@0@Z 0000000180013168     game.obj
 0004:00000174       $pdata$??$?GM$0A@@glm@@YA?AU?$tvec4@M$0A@@0@AEBU10@0@Z 0000000180013174     game.obj
 0004:00000180       $pdata$??$?GM$0A@@glm@@YA?AU?$tvec4@M$0A@@0@AEBU10@M@Z 0000000180013180     game.obj
 0004:0000018c       $pdata$??$?HM$0A@@glm@@YA?AU?$tvec4@M$0A@@0@AEBU10@0@Z 000000018001318c     game.obj
 0004:00000198       $pdata$??$?XM@?$tvec4@M$0A@@glm@@QEAAAEAU01@AEBU01@@Z 0000000180013198     game.obj
 0004:000001a4       $pdata$??$?XM@?$tvec4@M$0A@@glm@@QEAAAEAU01@M@Z 00000001800131a4     game.obj
 0004:000001b0       $pdata$??$?YM@?$tvec4@M$0A@@glm@@QEAAAEAU01@AEBU01@@Z 00000001800131b0     game.obj
 0004:000001bc       $pdata$??$?ZM@?$tvec4@M$0A@@glm@@QEAAAEAU01@AEBU01@@Z 00000001800131bc     game.obj
 0004:000001c8       $pdata$??$?ZM@?$tvec4@M$0A@@glm@@QEAAAEAU01@M@Z 00000001800131c8     game.obj
 0004:000001d4       $pdata$??$?_0M@?$tvec4@M$0A@@glm@@QEAAAEAU01@M@Z 00000001800131d4     game.obj
 0004:000001e0       $pdata$??$_Buynode@AEBUpiecewise_construct_t@std@@V?$tuple@AEBH@2@V?$tuple@$$V@2@@?$_Tree_comp_alloc@V?$_Tmap_traits@HIU?$less@H@std@@V?$allocator@U?$pair@$$CBHI@std@@@2@$0A@@std@@@std@@QEAAPEAU?$_Tree_node@U?$pair@$$CBHI@std@@PEAX@1@AEBUpiecewise_construct_t@1@$$QEAV?$tuple@AEBH@1@$$QEAV?$tuple@$$V@1@@Z 00000001800131e0     game.obj
 0004:000001ec       $pdata$??$_Buynode@AEBUpiecewise_construct_t@std@@V?$tuple@AEBH@2@V?$tuple@$$V@2@@?$_Tree_comp_alloc@V?$_Tmap_traits@H_NU?$less@H@std@@V?$allocator@U?$pair@$$CBH_N@std@@@2@$0A@@std@@@std@@QEAAPEAU?$_Tree_node@U?$pair@$$CBH_N@std@@PEAX@1@AEBUpiecewise_construct_t@1@$$QEAV?$tuple@AEBH@1@$$QEAV?$tuple@$$V@1@@Z 00000001800131ec     game.obj
 0004:000001f8       $pdata$??$_Insert_at@AEAU?$pair@$$CBH_N@std@@PEAU?$_Tree_node@U?$pair@$$CBH_N@std@@PEAX@2@@?$_Tree@V?$_Tmap_traits@H_NU?$less@H@std@@V?$allocator@U?$pair@$$CBH_N@std@@@2@$0A@@std@@@std@@IEAA?AV?$_Tree_iterator@V?$_Tree_val@U?$_Tree_simple_types@U?$pair@$$CBH_N@std@@@std@@@std@@@1@_NPEAU?$_Tree_node@U?$pair@$$CBH_N@std@@PEAX@1@AEAU?$pair@$$CBH_N@1@1@Z 00000001800131f8     game.obj
 0004:000001f8       $pdata$??$_Insert_at@AEAU?$pair@$$CBHI@std@@PEAU?$_Tree_node@U?$pair@$$CBHI@std@@PEAX@2@@?$_Tree@V?$_Tmap_traits@HIU?$less@H@std@@V?$allocator@U?$pair@$$CBHI@std@@@2@$0A@@std@@@std@@IEAA?AV?$_Tree_iterator@V?$_Tree_val@U?$_Tree_simple_types@U?$pair@$$CBHI@std@@@std@@@std@@@1@_NPEAU?$_Tree_node@U?$pair@$$CBHI@std@@PEAX@1@AEAU?$pair@$$CBHI@1@1@Z 00000001800131f8     game.obj
 0004:00000204       $pdata$??$_Insert_hint@AEAU?$pair@$$CBHI@std@@PEAU?$_Tree_node@U?$pair@$$CBHI@std@@PEAX@2@@?$_Tree@V?$_Tmap_traits@HIU?$less@H@std@@V?$allocator@U?$pair@$$CBHI@std@@@2@$0A@@std@@@std@@IEAA?AV?$_Tree_iterator@V?$_Tree_val@U?$_Tree_simple_types@U?$pair@$$CBHI@std@@@std@@@std@@@1@V?$_Tree_const_iterator@V?$_Tree_val@U?$_Tree_simple_types@U?$pair@$$CBHI@std@@@std@@@std@@@1@AEAU?$pair@$$CBHI@1@PEAU?$_Tree_node@U?$pair@$$CBHI@std@@PEAX@1@@Z 0000000180013204     game.obj
 0004:00000210       $pdata$??$_Insert_hint@AEAU?$pair@$$CBH_N@std@@PEAU?$_Tree_node@U?$pair@$$CBH_N@std@@PEAX@2@@?$_Tree@V?$_Tmap_traits@H_NU?$less@H@std@@V?$allocator@U?$pair@$$CBH_N@std@@@2@$0A@@std@@@std@@IEAA?AV?$_Tree_iterator@V?$_Tree_val@U?$_Tree_simple_types@U?$pair@$$CBH_N@std@@@std@@@std@@@1@V?$_Tree_const_iterator@V?$_Tree_val@U?$_Tree_simple_types@U?$pair@$$CBH_N@std@@@std@@@std@@@1@AEAU?$pair@$$CBH_N@1@PEAU?$_Tree_node@U?$pair@$$CBH_N@std@@PEAX@1@@Z 0000000180013210     game.obj
 0004:0000021c       $pdata$??$_Insert_nohint@AEAU?$pair@$$CBHI@std@@PEAU?$_Tree_node@U?$pair@$$CBHI@std@@PEAX@2@@?$_Tree@V?$_Tmap_traits@HIU?$less@H@std@@V?$allocator@U?$pair@$$CBHI@std@@@2@$0A@@std@@@std@@IEAA?AU?$pair@V?$_Tree_iterator@V?$_Tree_val@U?$_Tree_simple_types@U?$pair@$$CBHI@std@@@std@@@std@@@std@@_N@1@_NAEAU?$pair@$$CBHI@1@PEAU?$_Tree_node@U?$pair@$$CBHI@std@@PEAX@1@@Z 000000018001321c     game.obj
 0004:00000228       $pdata$??$_Insert_nohint@AEAU?$pair@$$CBH_N@std@@PEAU?$_Tree_node@U?$pair@$$CBH_N@std@@PEAX@2@@?$_Tree@V?$_Tmap_traits@H_NU?$less@H@std@@V?$allocator@U?$pair@$$CBH_N@std@@@2@$0A@@std@@@std@@IEAA?AU?$pair@V?$_Tree_iterator@V?$_Tree_val@U?$_Tree_simple_types@U?$pair@$$CBH_N@std@@@std@@@std@@@std@@_N@1@_NAEAU?$pair@$$CBH_N@1@PEAU?$_Tree_node@U?$pair@$$CBH_N@std@@PEAX@1@@Z 0000000180013228     game.obj
 0004:00000234       $pdata$??$_Lbound@H@?$_Tree@V?$_Tmap_traits@HIU?$less@H@std@@V?$allocator@U?$pair@$$CBHI@std@@@2@$0A@@std@@@std@@IEBAPEAU?$_Tree_node@U?$pair@$$CBHI@std@@PEAX@1@AEBH@Z 0000000180013234     game.obj
 0004:00000234       $pdata$??$_Lbound@H@?$_Tree@V?$_Tmap_traits@H_NU?$less@H@std@@V?$allocator@U?$pair@$$CBH_N@std@@@2@$0A@@std@@@std@@IEBAPEAU?$_Tree_node@U?$pair@$$CBH_N@std@@PEAX@1@AEBH@Z 0000000180013234     game.obj
 0004:00000240       $pdata$??$_Try_emplace@AEBH$$V@?$map@HIU?$less@H@std@@V?$allocator@U?$pair@$$CBHI@std@@@2@@std@@QEAA?AU?$pair@V?$_Tree_iterator@V?$_Tree_val@U?$_Tree_simple_types@U?$pair@$$CBHI@std@@@std@@@std@@@std@@_N@1@AEBH@Z 0000000180013240     game.obj
 0004:0000024c       $pdata$??$_Try_emplace@AEBH$$V@?$map@H_NU?$less@H@std@@V?$allocator@U?$pair@$$CBH_N@std@@@2@@std@@QEAA?AU?$pair@V?$_Tree_iterator@V?$_Tree_val@U?$_Tree_simple_types@U?$pair@$$CBH_N@std@@@std@@@std@@@std@@_N@1@AEBH@Z 000000018001324c     game.obj
 0004:00000258       $pdata$??$construct@PEAU?$_Tree_node@U?$pair@$$CBHI@std@@PEAX@std@@AEAPEAU12@@?$_Wrap_alloc@V?$allocator@U?$_Tree_node@U?$pair@$$CBHI@std@@PEAX@std@@@std@@@std@@QEAAXPEAPEAU?$_Tree_node@U?$pair@$$CBHI@std@@PEAX@1@AEAPEAU21@@Z 0000000180013258     game.obj
 0004:00000258       $pdata$??$construct@PEAU?$_Tree_node@U?$pair@$$CBH_N@std@@PEAX@std@@AEAPEAU12@@?$_Wrap_alloc@V?$allocator@U?$_Tree_node@U?$pair@$$CBH_N@std@@PEAX@std@@@std@@@std@@QEAAXPEAPEAU?$_Tree_node@U?$pair@$$CBH_N@std@@PEAX@1@AEAPEAU21@@Z 0000000180013258     game.obj
 0004:00000264       $pdata$??$construct@PEAU?$_Tree_node@U?$pair@$$CBHI@std@@PEAX@std@@AEAPEAU12@@?$allocator@U?$_Tree_node@U?$pair@$$CBHI@std@@PEAX@std@@@std@@QEAAXPEAPEAU?$_Tree_node@U?$pair@$$CBHI@std@@PEAX@1@AEAPEAU21@@Z 0000000180013264     game.obj
 0004:00000264       $pdata$??$construct@PEAU?$_Tree_node@U?$pair@$$CBH_N@std@@PEAX@std@@AEAPEAU12@@?$allocator@U?$_Tree_node@U?$pair@$$CBH_N@std@@PEAX@std@@@std@@QEAAXPEAPEAU?$_Tree_node@U?$pair@$$CBH_N@std@@PEAX@1@AEAPEAU21@@Z 0000000180013264     game.obj
 0004:00000270       $pdata$??$construct@PEAU?$_Tree_node@U?$pair@$$CBH_N@std@@PEAX@std@@AEAPEAU12@@?$allocator_traits@V?$allocator@U?$_Tree_node@U?$pair@$$CBH_N@std@@PEAX@std@@@std@@@std@@SAXAEAV?$allocator@U?$_Tree_node@U?$pair@$$CBH_N@std@@PEAX@std@@@1@PEAPEAU?$_Tree_node@U?$pair@$$CBH_N@std@@PEAX@1@AEAPEAU31@@Z 0000000180013270     game.obj
 0004:00000270       $pdata$??$construct@PEAU?$_Tree_node@U?$pair@$$CBHI@std@@PEAX@std@@AEAPEAU12@@?$allocator_traits@V?$allocator@U?$_Tree_node@U?$pair@$$CBHI@std@@PEAX@std@@@std@@@std@@SAXAEAV?$allocator@U?$_Tree_node@U?$pair@$$CBHI@std@@PEAX@std@@@1@PEAPEAU?$_Tree_node@U?$pair@$$CBHI@std@@PEAX@1@AEAPEAU31@@Z 0000000180013270     game.obj
 0004:0000027c       $pdata$??$construct@U?$pair@$$CBHI@std@@AEBUpiecewise_construct_t@2@V?$tuple@AEBH@2@V?$tuple@$$V@2@@?$_Wrap_alloc@V?$allocator@U?$_Tree_node@U?$pair@$$CBHI@std@@PEAX@std@@@std@@@std@@QEAAXPEAU?$pair@$$CBHI@1@AEBUpiecewise_construct_t@1@$$QEAV?$tuple@AEBH@1@$$QEAV?$tuple@$$V@1@@Z 000000018001327c     game.obj
 0004:00000288       $pdata$??$construct@U?$pair@$$CBHI@std@@AEBUpiecewise_construct_t@2@V?$tuple@AEBH@2@V?$tuple@$$V@2@@?$allocator@U?$_Tree_node@U?$pair@$$CBHI@std@@PEAX@std@@@std@@QEAAXPEAU?$pair@$$CBHI@1@AEBUpiecewise_construct_t@1@$$QEAV?$tuple@AEBH@1@$$QEAV?$tuple@$$V@1@@Z 0000000180013288     game.obj
 0004:00000294       $pdata$??$construct@U?$pair@$$CBHI@std@@AEBUpiecewise_construct_t@2@V?$tuple@AEBH@2@V?$tuple@$$V@2@@?$allocator_traits@V?$allocator@U?$_Tree_node@U?$pair@$$CBHI@std@@PEAX@std@@@std@@@std@@SAXAEAV?$allocator@U?$_Tree_node@U?$pair@$$CBHI@std@@PEAX@std@@@1@PEAU?$pair@$$CBHI@1@AEBUpiecewise_construct_t@1@$$QEAV?$tuple@AEBH@1@$$QEAV?$tuple@$$V@1@@Z 0000000180013294     game.obj
 0004:000002a0       $pdata$??$construct@U?$pair@$$CBH_N@std@@AEBUpiecewise_construct_t@2@V?$tuple@AEBH@2@V?$tuple@$$V@2@@?$_Wrap_alloc@V?$allocator@U?$_Tree_node@U?$pair@$$CBH_N@std@@PEAX@std@@@std@@@std@@QEAAXPEAU?$pair@$$CBH_N@1@AEBUpiecewise_construct_t@1@$$QEAV?$tuple@AEBH@1@$$QEAV?$tuple@$$V@1@@Z 00000001800132a0     game.obj
 0004:000002ac       $pdata$??$construct@U?$pair@$$CBH_N@std@@AEBUpiecewise_construct_t@2@V?$tuple@AEBH@2@V?$tuple@$$V@2@@?$allocator@U?$_Tree_node@U?$pair@$$CBH_N@std@@PEAX@std@@@std@@QEAAXPEAU?$pair@$$CBH_N@1@AEBUpiecewise_construct_t@1@$$QEAV?$tuple@AEBH@1@$$QEAV?$tuple@$$V@1@@Z 00000001800132ac     game.obj
 0004:000002b8       $pdata$??$construct@U?$pair@$$CBH_N@std@@AEBUpiecewise_construct_t@2@V?$tuple@AEBH@2@V?$tuple@$$V@2@@?$allocator_traits@V?$allocator@U?$_Tree_node@U?$pair@$$CBH_N@std@@PEAX@std@@@std@@@std@@SAXAEAV?$allocator@U?$_Tree_node@U?$pair@$$CBH_N@std@@PEAX@std@@@1@PEAU?$pair@$$CBH_N@1@AEBUpiecewise_construct_t@1@$$QEAV?$tuple@AEBH@1@$$QEAV?$tuple@$$V@1@@Z 00000001800132b8     game.obj
 0004:000002c4       $pdata$??$destroy@PEAU?$_Tree_node@U?$pair@$$CBH_N@std@@PEAX@std@@@?$_Wrap_alloc@V?$allocator@U?$_Tree_node@U?$pair@$$CBH_N@std@@PEAX@std@@@std@@@std@@QEAAXPEAPEAU?$_Tree_node@U?$pair@$$CBH_N@std@@PEAX@1@@Z 00000001800132c4     game.obj
 0004:000002c4       $pdata$??$destroy@PEAU?$_Tree_node@U?$pair@$$CBHI@std@@PEAX@std@@@?$_Wrap_alloc@V?$allocator@U?$_Tree_node@U?$pair@$$CBHI@std@@PEAX@std@@@std@@@std@@QEAAXPEAPEAU?$_Tree_node@U?$pair@$$CBHI@std@@PEAX@1@@Z 00000001800132c4     game.obj
 0004:000002c4       $pdata$??$destroy@U?$pair@$$CBHI@std@@@?$_Wrap_alloc@V?$allocator@U?$_Tree_node@U?$pair@$$CBHI@std@@PEAX@std@@@std@@@std@@QEAAXPEAU?$pair@$$CBHI@1@@Z 00000001800132c4     game.obj
 0004:000002c4       $pdata$??$destroy@U?$pair@$$CBH_N@std@@@?$_Wrap_alloc@V?$allocator@U?$_Tree_node@U?$pair@$$CBH_N@std@@PEAX@std@@@std@@@std@@QEAAXPEAU?$pair@$$CBH_N@1@@Z 00000001800132c4     game.obj
 0004:000002d0       $pdata$??$destroy@U?$pair@$$CBHI@std@@@?$allocator_traits@V?$allocator@U?$_Tree_node@U?$pair@$$CBHI@std@@PEAX@std@@@std@@@std@@SAXAEAV?$allocator@U?$_Tree_node@U?$pair@$$CBHI@std@@PEAX@std@@@1@PEAU?$pair@$$CBHI@1@@Z 00000001800132d0     game.obj
 0004:000002d0       $pdata$??$destroy@U?$pair@$$CBH_N@std@@@?$allocator_traits@V?$allocator@U?$_Tree_node@U?$pair@$$CBH_N@std@@PEAX@std@@@std@@@std@@SAXAEAV?$allocator@U?$_Tree_node@U?$pair@$$CBH_N@std@@PEAX@std@@@1@PEAU?$pair@$$CBH_N@1@@Z 00000001800132d0     game.obj
 0004:000002d0       $pdata$??$destroy@PEAU?$_Tree_node@U?$pair@$$CBHI@std@@PEAX@std@@@?$allocator_traits@V?$allocator@U?$_Tree_node@U?$pair@$$CBHI@std@@PEAX@std@@@std@@@std@@SAXAEAV?$allocator@U?$_Tree_node@U?$pair@$$CBHI@std@@PEAX@std@@@1@PEAPEAU?$_Tree_node@U?$pair@$$CBHI@std@@PEAX@1@@Z 00000001800132d0     game.obj
 0004:000002d0       $pdata$??$destroy@PEAU?$_Tree_node@U?$pair@$$CBH_N@std@@PEAX@std@@@?$allocator_traits@V?$allocator@U?$_Tree_node@U?$pair@$$CBH_N@std@@PEAX@std@@@std@@@std@@SAXAEAV?$allocator@U?$_Tree_node@U?$pair@$$CBH_N@std@@PEAX@std@@@1@PEAPEAU?$_Tree_node@U?$pair@$$CBH_N@std@@PEAX@1@@Z 00000001800132d0     game.obj
 0004:000002dc       $pdata$??$dot@M$0A@Utvec2@glm@@@glm@@YAMAEBU?$tvec2@M$0A@@0@0@Z 00000001800132dc     game.obj
 0004:000002e8       $pdata$??$emplace_hint@AEBUpiecewise_construct_t@std@@V?$tuple@AEBH@2@V?$tuple@$$V@2@@?$_Tree@V?$_Tmap_traits@HIU?$less@H@std@@V?$allocator@U?$pair@$$CBHI@std@@@2@$0A@@std@@@std@@QEAA?AV?$_Tree_iterator@V?$_Tree_val@U?$_Tree_simple_types@U?$pair@$$CBHI@std@@@std@@@std@@@1@V?$_Tree_const_iterator@V?$_Tree_val@U?$_Tree_simple_types@U?$pair@$$CBHI@std@@@std@@@std@@@1@AEBUpiecewise_construct_t@1@$$QEAV?$tuple@AEBH@1@$$QEAV?$tuple@$$V@1@@Z 00000001800132e8     game.obj
 0004:000002f4       $pdata$??$emplace_hint@AEBUpiecewise_construct_t@std@@V?$tuple@AEBH@2@V?$tuple@$$V@2@@?$_Tree@V?$_Tmap_traits@H_NU?$less@H@std@@V?$allocator@U?$pair@$$CBH_N@std@@@2@$0A@@std@@@std@@QEAA?AV?$_Tree_iterator@V?$_Tree_val@U?$_Tree_simple_types@U?$pair@$$CBH_N@std@@@std@@@std@@@1@V?$_Tree_const_iterator@V?$_Tree_val@U?$_Tree_simple_types@U?$pair@$$CBH_N@std@@@std@@@std@@@1@AEBUpiecewise_construct_t@1@$$QEAV?$tuple@AEBH@1@$$QEAV?$tuple@$$V@1@@Z 00000001800132f4     game.obj
 0004:00000300       $pdata$??$forward_as_tuple@$$V@std@@YA?AV?$tuple@$$V@0@XZ 0000000180013300     game.obj
 0004:0000030c       $pdata$??$forward_as_tuple@AEBH@std@@YA?AV?$tuple@AEBH@0@AEBH@Z 000000018001330c     game.obj
 0004:00000318       $pdata$??$get@$0A@AEBH@std@@YAAEBH$$QEAV?$tuple@AEBH@0@@Z 0000000180013318     game.obj
 0004:00000324       $pdata$??$inverse@M$0A@Utmat4x4@glm@@@glm@@YA?AU?$tmat4x4@M$0A@@0@AEBU10@@Z 0000000180013324     game.obj
 0004:00000330       $pdata$??$inversesqrt@M@glm@@YAMM@Z 0000000180013330     game.obj
 0004:0000033c       $pdata$??$normalize@M$0A@Utvec2@glm@@@glm@@YA?AU?$tvec2@M$0A@@0@AEBU10@@Z 000000018001333c     game.obj
 0004:00000348       $pdata$??$ortho@M@glm@@YA?AU?$tmat4x4@M$0A@@0@MMMMMM@Z 0000000180013348     game.obj
 0004:00000354       $pdata$??$orthoRH@M@glm@@YA?AU?$tmat4x4@M$0A@@0@MMMMMM@Z 0000000180013354     game.obj
 0004:00000360       $pdata$??$translate@M$0A@@glm@@YA?AU?$tmat4x4@M$0A@@0@AEBU10@AEBU?$tvec3@M$0A@@0@@Z 0000000180013360     game.obj
 0004:0000036c       $pdata$??$try_emplace@$$V@?$map@HIU?$less@H@std@@V?$allocator@U?$pair@$$CBHI@std@@@2@@std@@QEAA?AU?$pair@V?$_Tree_iterator@V?$_Tree_val@U?$_Tree_simple_types@U?$pair@$$CBHI@std@@@std@@@std@@@std@@_N@1@AEBH@Z 000000018001336c     game.obj
 0004:00000378       $pdata$??$try_emplace@$$V@?$map@H_NU?$less@H@std@@V?$allocator@U?$pair@$$CBH_N@std@@@2@@std@@QEAA?AU?$pair@V?$_Tree_iterator@V?$_Tree_val@U?$_Tree_simple_types@U?$pair@$$CBH_N@std@@@std@@@std@@@std@@_N@1@AEBH@Z 0000000180013378     game.obj
 0004:00000384       $pdata$??$unProject@MM$0A@@glm@@YA?AU?$tvec3@M$0A@@0@AEBU10@AEBU?$tmat4x4@M$0A@@0@1AEBU?$tvec4@M$0A@@0@@Z 0000000180013384     game.obj
 0004:00000390       $pdata$??0?$_Tree_const_iterator@V?$_Tree_val@U?$_Tree_simple_types@U?$pair@$$CBH_N@std@@@std@@@std@@@std@@QEAA@PEAU?$_Tree_node@U?$pair@$$CBH_N@std@@PEAX@1@PEBV?$_Tree_val@U?$_Tree_simple_types@U?$pair@$$CBH_N@std@@@std@@@1@@Z 0000000180013390     game.obj
 0004:00000390       $pdata$??0?$_Tree_const_iterator@V?$_Tree_val@U?$_Tree_simple_types@U?$pair@$$CBHI@std@@@std@@@std@@@std@@QEAA@PEAU?$_Tree_node@U?$pair@$$CBHI@std@@PEAX@1@PEBV?$_Tree_val@U?$_Tree_simple_types@U?$pair@$$CBHI@std@@@std@@@1@@Z 0000000180013390     game.obj
 0004:0000039c       $pdata$??0?$_Tree_const_iterator@V?$_Tree_val@U?$_Tree_simple_types@U?$pair@$$CBHI@std@@@std@@@std@@@std@@QEAA@XZ 000000018001339c     game.obj
 0004:0000039c       $pdata$??0?$_Tree_const_iterator@V?$_Tree_val@U?$_Tree_simple_types@U?$pair@$$CBH_N@std@@@std@@@std@@@std@@QEAA@XZ 000000018001339c     game.obj
 0004:000003a8       $pdata$??0?$_Tree_iterator@V?$_Tree_val@U?$_Tree_simple_types@U?$pair@$$CBH_N@std@@@std@@@std@@@std@@QEAA@PEAU?$_Tree_node@U?$pair@$$CBH_N@std@@PEAX@1@PEBV?$_Tree_val@U?$_Tree_simple_types@U?$pair@$$CBH_N@std@@@std@@@1@@Z 00000001800133a8     game.obj
 0004:000003a8       $pdata$??0?$_Tree_iterator@V?$_Tree_val@U?$_Tree_simple_types@U?$pair@$$CBHI@std@@@std@@@std@@@std@@QEAA@PEAU?$_Tree_node@U?$pair@$$CBHI@std@@PEAX@1@PEBV?$_Tree_val@U?$_Tree_simple_types@U?$pair@$$CBHI@std@@@std@@@1@@Z 00000001800133a8     game.obj
 0004:000003b4       $pdata$??0?$_Tree_unchecked_const_iterator@V?$_Tree_val@U?$_Tree_simple_types@U?$pair@$$CBHI@std@@@std@@@std@@U_Iterator_base0@2@@std@@QEAA@PEAU?$_Tree_node@U?$pair@$$CBHI@std@@PEAX@1@PEBV?$_Tree_val@U?$_Tree_simple_types@U?$pair@$$CBHI@std@@@std@@@1@@Z 00000001800133b4     game.obj
 0004:000003b4       $pdata$??0?$_Tree_unchecked_const_iterator@V?$_Tree_val@U?$_Tree_simple_types@U?$pair@$$CBH_N@std@@@std@@@std@@U_Iterator_base0@2@@std@@QEAA@PEAU?$_Tree_node@U?$pair@$$CBH_N@std@@PEAX@1@PEBV?$_Tree_val@U?$_Tree_simple_types@U?$pair@$$CBH_N@std@@@std@@@1@@Z 00000001800133b4     game.obj
 0004:000003c0       $pdata$??0?$tmat4x4@M$0A@@glm@@QEAA@AEBM@Z 00000001800133c0     game.obj
 0004:000003cc       $pdata$??0?$tmat4x4@M$0A@@glm@@QEAA@AEBU?$tvec4@M$0A@@1@000@Z 00000001800133cc     game.obj
 0004:000003d8       $pdata$??0?$tmat4x4@M$0A@@glm@@QEAA@W4ctor@1@@Z 00000001800133d8     game.obj
 0004:000003e4       $pdata$??0?$tuple@AEBH@std@@QEAA@$$QEAV01@@Z 00000001800133e4     game.obj
 0004:000003f0       $pdata$??8?$_Tree_const_iterator@V?$_Tree_val@U?$_Tree_simple_types@U?$pair@$$CBHI@std@@@std@@@std@@@std@@QEBA_NAEBV01@@Z 00000001800133f0     game.obj
 0004:000003f0       $pdata$??8?$_Tree_const_iterator@V?$_Tree_val@U?$_Tree_simple_types@U?$pair@$$CBH_N@std@@@std@@@std@@@std@@QEBA_NAEBV01@@Z 00000001800133f0     game.obj
 0004:000003fc       $pdata$??A?$map@HIU?$less@H@std@@V?$allocator@U?$pair@$$CBHI@std@@@2@@std@@QEAAAEAIAEBH@Z 00000001800133fc     game.obj
 0004:00000408       $pdata$??A?$map@H_NU?$less@H@std@@V?$allocator@U?$pair@$$CBH_N@std@@@2@@std@@QEAAAEA_NAEBH@Z 0000000180013408     game.obj
 0004:00000414       $pdata$??A?$tmat4x4@M$0A@@glm@@QEAAAEAU?$tvec4@M$0A@@1@H@Z 0000000180013414     game.obj
 0004:00000420       $pdata$??A?$tmat4x4@M$0A@@glm@@QEBAAEBU?$tvec4@M$0A@@1@H@Z 0000000180013420     game.obj
 0004:0000042c       $pdata$??A?$tvec3@M$0A@@glm@@QEBAAEBMH@Z 000000018001342c     game.obj
 0004:00000438       $pdata$??A?$tvec4@M$0A@@glm@@QEAAAEAMH@Z 0000000180013438     game.obj
 0004:00000444       $pdata$??A?$tvec4@M$0A@@glm@@QEBAAEBMH@Z 0000000180013444     game.obj
 0004:00000450       $pdata$??C?$_Tree_iterator@V?$_Tree_val@U?$_Tree_simple_types@U?$pair@$$CBHI@std@@@std@@@std@@@std@@QEBAPEAU?$pair@$$CBHI@1@XZ 0000000180013450     game.obj
 0004:00000450       $pdata$??C?$_Tree_iterator@V?$_Tree_val@U?$_Tree_simple_types@U?$pair@$$CBH_N@std@@@std@@@std@@@std@@QEBAPEAU?$pair@$$CBH_N@1@XZ 0000000180013450     game.obj
 0004:0000045c       $pdata$??D?$_Tree_const_iterator@V?$_Tree_val@U?$_Tree_simple_types@U?$pair@$$CBH_N@std@@@std@@@std@@@std@@QEBAAEBU?$pair@$$CBH_N@1@XZ 000000018001345c     game.obj
 0004:0000045c       $pdata$??D?$_Tree_const_iterator@V?$_Tree_val@U?$_Tree_simple_types@U?$pair@$$CBHI@std@@@std@@@std@@@std@@QEBAAEBU?$pair@$$CBHI@1@XZ 000000018001345c     game.obj
 0004:00000468       $pdata$??D?$_Tree_iterator@V?$_Tree_val@U?$_Tree_simple_types@U?$pair@$$CBHI@std@@@std@@@std@@@std@@QEBAAEAU?$pair@$$CBHI@1@XZ 0000000180013468     game.obj
 0004:00000468       $pdata$??D?$_Tree_iterator@V?$_Tree_val@U?$_Tree_simple_types@U?$pair@$$CBH_N@std@@@std@@@std@@@std@@QEBAAEAU?$pair@$$CBH_N@1@XZ 0000000180013468     game.obj
 0004:00000474       $pdata$??E?$_Tree_const_iterator@V?$_Tree_val@U?$_Tree_simple_types@U?$pair@$$CBHI@std@@@std@@@std@@@std@@QEAAAEAV01@XZ 0000000180013474     game.obj
 0004:00000474       $pdata$??E?$_Tree_const_iterator@V?$_Tree_val@U?$_Tree_simple_types@U?$pair@$$CBH_N@std@@@std@@@std@@@std@@QEAAAEAV01@XZ 0000000180013474     game.obj
 0004:00000480       $pdata$??E?$_Tree_unchecked_const_iterator@V?$_Tree_val@U?$_Tree_simple_types@U?$pair@$$CBHI@std@@@std@@@std@@U_Iterator_base0@2@@std@@QEAAAEAV01@XZ 0000000180013480     game.obj
 0004:00000480       $pdata$??E?$_Tree_unchecked_const_iterator@V?$_Tree_val@U?$_Tree_simple_types@U?$pair@$$CBH_N@std@@@std@@@std@@U_Iterator_base0@2@@std@@QEAAAEAV01@XZ 0000000180013480     game.obj
 0004:0000048c       $pdata$??F?$_Tree_const_iterator@V?$_Tree_val@U?$_Tree_simple_types@U?$pair@$$CBH_N@std@@@std@@@std@@@std@@QEAAAEAV01@XZ 000000018001348c     game.obj
 0004:0000048c       $pdata$??F?$_Tree_const_iterator@V?$_Tree_val@U?$_Tree_simple_types@U?$pair@$$CBHI@std@@@std@@@std@@@std@@QEAAAEAV01@XZ 000000018001348c     game.obj
 0004:00000498       $pdata$??F?$_Tree_iterator@V?$_Tree_val@U?$_Tree_simple_types@U?$pair@$$CBHI@std@@@std@@@std@@@std@@QEAAAEAV01@XZ 0000000180013498     game.obj
 0004:00000498       $pdata$??F?$_Tree_iterator@V?$_Tree_val@U?$_Tree_simple_types@U?$pair@$$CBH_N@std@@@std@@@std@@@std@@QEAAAEAV01@XZ 0000000180013498     game.obj
 0004:000004a4       $pdata$??F?$_Tree_unchecked_const_iterator@V?$_Tree_val@U?$_Tree_simple_types@U?$pair@$$CBHI@std@@@std@@@std@@U_Iterator_base0@2@@std@@QEAAAEAV01@XZ 00000001800134a4     game.obj
 0004:000004a4       $pdata$??F?$_Tree_unchecked_const_iterator@V?$_Tree_val@U?$_Tree_simple_types@U?$pair@$$CBH_N@std@@@std@@@std@@U_Iterator_base0@2@@std@@QEAAAEAV01@XZ 00000001800134a4     game.obj
 0004:000004b0       $pdata$??R?$less@H@std@@QEBA_NAEBH0@Z 00000001800134b0     game.obj
 0004:000004bc       $pdata$??_H@YAXPEAX_K1P6APEAX0@Z@Z 00000001800134bc     game.obj
 0004:000004c8       $pdata$?_Allocate@std@@YAPEAX_K0_N@Z 00000001800134c8     game.obj
 0004:000004d4       $pdata$?_Buynode0@?$_Tree_comp_alloc@V?$_Tmap_traits@HIU?$less@H@std@@V?$allocator@U?$pair@$$CBHI@std@@@2@$0A@@std@@@std@@QEAAPEAU?$_Tree_node@U?$pair@$$CBHI@std@@PEAX@2@XZ 00000001800134d4     game.obj
 0004:000004e0       $pdata$?_Buynode0@?$_Tree_comp_alloc@V?$_Tmap_traits@H_NU?$less@H@std@@V?$allocator@U?$pair@$$CBH_N@std@@@2@$0A@@std@@@std@@QEAAPEAU?$_Tree_node@U?$pair@$$CBH_N@std@@PEAX@2@XZ 00000001800134e0     game.obj
 0004:000004ec       $pdata$?_Color@?$_Tree_comp_alloc@V?$_Tmap_traits@H_NU?$less@H@std@@V?$allocator@U?$pair@$$CBH_N@std@@@2@$0A@@std@@@std@@SAAEADPEAU?$_Tree_node@U?$pair@$$CBH_N@std@@PEAX@2@@Z 00000001800134ec     game.obj
 0004:000004ec       $pdata$?_Color@?$_Tree_comp_alloc@V?$_Tmap_traits@HIU?$less@H@std@@V?$allocator@U?$pair@$$CBHI@std@@@2@$0A@@std@@@std@@SAAEADPEAU?$_Tree_node@U?$pair@$$CBHI@std@@PEAX@2@@Z 00000001800134ec     game.obj
 0004:000004f8       $pdata$?_Compare@?$_Tree@V?$_Tmap_traits@H_NU?$less@H@std@@V?$allocator@U?$pair@$$CBH_N@std@@@2@$0A@@std@@@std@@IEBA_NAEBH0@Z 00000001800134f8     game.obj
 0004:000004f8       $pdata$?_Compare@?$_Tree@V?$_Tmap_traits@HIU?$less@H@std@@V?$allocator@U?$pair@$$CBHI@std@@@2@$0A@@std@@@std@@IEBA_NAEBH0@Z 00000001800134f8     game.obj
 0004:00000504       $pdata$?_Deallocate@std@@YAXPEAX_K1@Z 0000000180013504     game.obj
 0004:00000510       $pdata$?_Destroy_if_not_nil@?$_Tree@V?$_Tmap_traits@HIU?$less@H@std@@V?$allocator@U?$pair@$$CBHI@std@@@2@$0A@@std@@@std@@IEAAXPEAU?$_Tree_node@U?$pair@$$CBHI@std@@PEAX@2@@Z 0000000180013510     game.obj
 0004:00000510       $pdata$?_Destroy_if_not_nil@?$_Tree@V?$_Tmap_traits@H_NU?$less@H@std@@V?$allocator@U?$pair@$$CBH_N@std@@@2@$0A@@std@@@std@@IEAAXPEAU?$_Tree_node@U?$pair@$$CBH_N@std@@PEAX@2@@Z 0000000180013510     game.obj
 0004:0000051c       $pdata$?_Freenode0@?$_Tree_comp_alloc@V?$_Tmap_traits@HIU?$less@H@std@@V?$allocator@U?$pair@$$CBHI@std@@@2@$0A@@std@@@std@@QEAAXPEAU?$_Tree_node@U?$pair@$$CBHI@std@@PEAX@2@@Z 000000018001351c     game.obj
 0004:0000051c       $pdata$?_Freenode0@?$_Tree_comp_alloc@V?$_Tmap_traits@H_NU?$less@H@std@@V?$allocator@U?$pair@$$CBH_N@std@@@2@$0A@@std@@@std@@QEAAXPEAU?$_Tree_node@U?$pair@$$CBH_N@std@@PEAX@2@@Z 000000018001351c     game.obj
 0004:00000528       $pdata$?_Getal@?$_Tree_comp_alloc@V?$_Tmap_traits@H_NU?$less@H@std@@V?$allocator@U?$pair@$$CBH_N@std@@@2@$0A@@std@@@std@@QEBAAEBU?$_Wrap_alloc@V?$allocator@U?$_Tree_node@U?$pair@$$CBH_N@std@@PEAX@std@@@std@@@2@XZ 0000000180013528     game.obj
 0004:00000528       $pdata$?_Get_data@?$_Tree_comp_alloc@V?$_Tmap_traits@H_NU?$less@H@std@@V?$allocator@U?$pair@$$CBH_N@std@@@2@$0A@@std@@@std@@QEAAAEAV?$_Tree_val@U?$_Tree_simple_types@U?$pair@$$CBH_N@std@@@std@@@2@XZ 0000000180013528     game.obj
 0004:00000528       $pdata$?_Get_data@?$_Tree_comp_alloc@V?$_Tmap_traits@HIU?$less@H@std@@V?$allocator@U?$pair@$$CBHI@std@@@2@$0A@@std@@@std@@QEBAAEBV?$_Tree_val@U?$_Tree_simple_types@U?$pair@$$CBHI@std@@@std@@@2@XZ 0000000180013528     game.obj
 0004:00000528       $pdata$?_Get_data@?$_Tree_comp_alloc@V?$_Tmap_traits@HIU?$less@H@std@@V?$allocator@U?$pair@$$CBHI@std@@@2@$0A@@std@@@std@@QEAAAEAV?$_Tree_val@U?$_Tree_simple_types@U?$pair@$$CBHI@std@@@std@@@2@XZ 0000000180013528     game.obj
 0004:00000528       $pdata$?_Getal@?$_Tree_comp_alloc@V?$_Tmap_traits@HIU?$less@H@std@@V?$allocator@U?$pair@$$CBHI@std@@@2@$0A@@std@@@std@@QEBAAEBU?$_Wrap_alloc@V?$allocator@U?$_Tree_node@U?$pair@$$CBHI@std@@PEAX@std@@@std@@@2@XZ 0000000180013528     game.obj
 0004:00000528       $pdata$?_Get_data@?$_Tree_comp_alloc@V?$_Tmap_traits@H_NU?$less@H@std@@V?$allocator@U?$pair@$$CBH_N@std@@@2@$0A@@std@@@std@@QEBAAEBV?$_Tree_val@U?$_Tree_simple_types@U?$pair@$$CBH_N@std@@@std@@@2@XZ 0000000180013528     game.obj
 0004:00000528       $pdata$?_Getal@?$_Tree_comp_alloc@V?$_Tmap_traits@H_NU?$less@H@std@@V?$allocator@U?$pair@$$CBH_N@std@@@2@$0A@@std@@@std@@QEAAAEAU?$_Wrap_alloc@V?$allocator@U?$_Tree_node@U?$pair@$$CBH_N@std@@PEAX@std@@@std@@@2@XZ 0000000180013528     game.obj
 0004:00000528       $pdata$?_Getal@?$_Tree_comp_alloc@V?$_Tmap_traits@HIU?$less@H@std@@V?$allocator@U?$pair@$$CBHI@std@@@2@$0A@@std@@@std@@QEAAAEAU?$_Wrap_alloc@V?$allocator@U?$_Tree_node@U?$pair@$$CBHI@std@@PEAX@std@@@std@@@2@XZ 0000000180013528     game.obj
 0004:00000534       $pdata$?_Getcomp@?$_Tree_comp_alloc@V?$_Tmap_traits@HIU?$less@H@std@@V?$allocator@U?$pair@$$CBHI@std@@@2@$0A@@std@@@std@@QEAAAEAU?$less@H@2@XZ 0000000180013534     game.obj
 0004:00000534       $pdata$?_Getcomp@?$_Tree_comp_alloc@V?$_Tmap_traits@H_NU?$less@H@std@@V?$allocator@U?$pair@$$CBH_N@std@@@2@$0A@@std@@@std@@QEBAAEBU?$less@H@2@XZ 0000000180013534     game.obj
 0004:00000534       $pdata$?_Getcomp@?$_Tree_comp_alloc@V?$_Tmap_traits@H_NU?$less@H@std@@V?$allocator@U?$pair@$$CBH_N@std@@@2@$0A@@std@@@std@@QEAAAEAU?$less@H@2@XZ 0000000180013534     game.obj
 0004:00000534       $pdata$?_Getcomp@?$_Tree_comp_alloc@V?$_Tmap_traits@HIU?$less@H@std@@V?$allocator@U?$pair@$$CBHI@std@@@2@$0A@@std@@@std@@QEBAAEBU?$less@H@2@XZ 0000000180013534     game.obj
 0004:00000540       $pdata$?_Isnil@?$_Tree_comp_alloc@V?$_Tmap_traits@H_NU?$less@H@std@@V?$allocator@U?$pair@$$CBH_N@std@@@2@$0A@@std@@@std@@SAAEADPEAU?$_Tree_node@U?$pair@$$CBH_N@std@@PEAX@2@@Z 0000000180013540     game.obj
 0004:00000540       $pdata$?_Isnil@?$_Tree_comp_alloc@V?$_Tmap_traits@HIU?$less@H@std@@V?$allocator@U?$pair@$$CBHI@std@@@2@$0A@@std@@@std@@SAAEADPEAU?$_Tree_node@U?$pair@$$CBHI@std@@PEAX@2@@Z 0000000180013540     game.obj
 0004:0000054c       $pdata$?_Key@?$_Tree@V?$_Tmap_traits@HIU?$less@H@std@@V?$allocator@U?$pair@$$CBHI@std@@@2@$0A@@std@@@std@@IEBAAEBHPEAU?$_Tree_node@U?$pair@$$CBHI@std@@PEAX@2@@Z 000000018001354c     game.obj
 0004:0000054c       $pdata$?_Key@?$_Tree@V?$_Tmap_traits@H_NU?$less@H@std@@V?$allocator@U?$pair@$$CBH_N@std@@@2@$0A@@std@@@std@@IEBAAEBHPEAU?$_Tree_node@U?$pair@$$CBH_N@std@@PEAX@2@@Z 000000018001354c     game.obj
 0004:00000558       $pdata$?_Kfn@?$_Tree@V?$_Tmap_traits@H_NU?$less@H@std@@V?$allocator@U?$pair@$$CBH_N@std@@@2@$0A@@std@@@std@@IEBAAEBHAEBU?$pair@$$CBH_N@2@@Z 0000000180013558     game.obj
 0004:00000558       $pdata$?_Kfn@?$_Tree@V?$_Tmap_traits@HIU?$less@H@std@@V?$allocator@U?$pair@$$CBHI@std@@@2@$0A@@std@@@std@@IEBAAEBHAEBU?$pair@$$CBHI@2@@Z 0000000180013558     game.obj
 0004:00000564       $pdata$?pointer_to@?$pointer_traits@PEAU?$pair@$$CBHI@std@@@std@@SAPEAU?$pair@$$CBHI@2@AEAU32@@Z 0000000180013564     game.obj
 0004:00000564       $pdata$?_Left@?$_Tree_comp_alloc@V?$_Tmap_traits@HIU?$less@H@std@@V?$allocator@U?$pair@$$CBHI@std@@@2@$0A@@std@@@std@@SAAEAPEAU?$_Tree_node@U?$pair@$$CBHI@std@@PEAX@2@PEAU32@@Z 0000000180013564     game.obj
 0004:00000564       $pdata$?pointer_to@?$pointer_traits@PEAU?$pair@$$CBH_N@std@@@std@@SAPEAU?$pair@$$CBH_N@2@AEAU32@@Z 0000000180013564     game.obj
 0004:00000564       $pdata$?_Left@?$_Tree_comp_alloc@V?$_Tmap_traits@H_NU?$less@H@std@@V?$allocator@U?$pair@$$CBH_N@std@@@2@$0A@@std@@@std@@SAAEAPEAU?$_Tree_node@U?$pair@$$CBH_N@std@@PEAX@2@PEAU32@@Z 0000000180013564     game.obj
 0004:00000570       $pdata$?_Lmost@?$_Tree@V?$_Tmap_traits@H_NU?$less@H@std@@V?$allocator@U?$pair@$$CBH_N@std@@@2@$0A@@std@@@std@@IEBAAEAPEAU?$_Tree_node@U?$pair@$$CBH_N@std@@PEAX@2@XZ 0000000180013570     game.obj
 0004:00000570       $pdata$?_Lmost@?$_Tree@V?$_Tmap_traits@HIU?$less@H@std@@V?$allocator@U?$pair@$$CBHI@std@@@2@$0A@@std@@@std@@IEBAAEAPEAU?$_Tree_node@U?$pair@$$CBHI@std@@PEAX@2@XZ 0000000180013570     game.obj
 0004:0000057c       $pdata$?_Lrotate@?$_Tree@V?$_Tmap_traits@H_NU?$less@H@std@@V?$allocator@U?$pair@$$CBH_N@std@@@2@$0A@@std@@@std@@IEAAXPEAU?$_Tree_node@U?$pair@$$CBH_N@std@@PEAX@2@@Z 000000018001357c     game.obj
 0004:0000057c       $pdata$?_Lrotate@?$_Tree@V?$_Tmap_traits@HIU?$less@H@std@@V?$allocator@U?$pair@$$CBHI@std@@@2@$0A@@std@@@std@@IEAAXPEAU?$_Tree_node@U?$pair@$$CBHI@std@@PEAX@2@@Z 000000018001357c     game.obj
 0004:00000588       $pdata$?_Max@?$_Tree_val@U?$_Tree_simple_types@U?$pair@$$CBHI@std@@@std@@@std@@SAPEAU?$_Tree_node@U?$pair@$$CBHI@std@@PEAX@2@PEAU32@@Z 0000000180013588     game.obj
 0004:00000588       $pdata$?_Max@?$_Tree_val@U?$_Tree_simple_types@U?$pair@$$CBH_N@std@@@std@@@std@@SAPEAU?$_Tree_node@U?$pair@$$CBH_N@std@@PEAX@2@PEAU32@@Z 0000000180013588     game.obj
 0004:00000594       $pdata$?_Min@?$_Tree_val@U?$_Tree_simple_types@U?$pair@$$CBH_N@std@@@std@@@std@@SAPEAU?$_Tree_node@U?$pair@$$CBH_N@std@@PEAX@2@PEAU32@@Z 0000000180013594     game.obj
 0004:00000594       $pdata$?_Min@?$_Tree_val@U?$_Tree_simple_types@U?$pair@$$CBHI@std@@@std@@@std@@SAPEAU?$_Tree_node@U?$pair@$$CBHI@std@@PEAX@2@PEAU32@@Z 0000000180013594     game.obj
 0004:000005a0       $pdata$?_Myhead@?$_Tree_comp_alloc@V?$_Tmap_traits@H_NU?$less@H@std@@V?$allocator@U?$pair@$$CBH_N@std@@@2@$0A@@std@@@std@@QEAAAEAPEAU?$_Tree_node@U?$pair@$$CBH_N@std@@PEAX@2@XZ 00000001800135a0     game.obj
 0004:000005a0       $pdata$?_Myhead@?$_Tree_comp_alloc@V?$_Tmap_traits@H_NU?$less@H@std@@V?$allocator@U?$pair@$$CBH_N@std@@@2@$0A@@std@@@std@@QEBAAEBQEAU?$_Tree_node@U?$pair@$$CBH_N@std@@PEAX@2@XZ 00000001800135a0     game.obj
 0004:000005a0       $pdata$?_Myhead@?$_Tree_comp_alloc@V?$_Tmap_traits@HIU?$less@H@std@@V?$allocator@U?$pair@$$CBHI@std@@@2@$0A@@std@@@std@@QEAAAEAPEAU?$_Tree_node@U?$pair@$$CBHI@std@@PEAX@2@XZ 00000001800135a0     game.obj
 0004:000005a0       $pdata$?_Myhead@?$_Tree_comp_alloc@V?$_Tmap_traits@HIU?$less@H@std@@V?$allocator@U?$pair@$$CBHI@std@@@2@$0A@@std@@@std@@QEBAAEBQEAU?$_Tree_node@U?$pair@$$CBHI@std@@PEAX@2@XZ 00000001800135a0     game.obj
 0004:000005ac       $pdata$?_Mysize@?$_Tree_comp_alloc@V?$_Tmap_traits@HIU?$less@H@std@@V?$allocator@U?$pair@$$CBHI@std@@@2@$0A@@std@@@std@@QEAAAEA_KXZ 00000001800135ac     game.obj
 0004:000005ac       $pdata$?_Mysize@?$_Tree_comp_alloc@V?$_Tmap_traits@H_NU?$less@H@std@@V?$allocator@U?$pair@$$CBH_N@std@@@2@$0A@@std@@@std@@QEAAAEA_KXZ 00000001800135ac     game.obj
 0004:000005ac       $pdata$?_Mysize@?$_Tree_comp_alloc@V?$_Tmap_traits@HIU?$less@H@std@@V?$allocator@U?$pair@$$CBHI@std@@@2@$0A@@std@@@std@@QEBAAEB_KXZ 00000001800135ac     game.obj
 0004:000005ac       $pdata$?_Mysize@?$_Tree_comp_alloc@V?$_Tmap_traits@H_NU?$less@H@std@@V?$allocator@U?$pair@$$CBH_N@std@@@2@$0A@@std@@@std@@QEBAAEB_KXZ 00000001800135ac     game.obj
 0004:000005b8       $pdata$?_Myval@?$_Tree_comp_alloc@V?$_Tmap_traits@H_NU?$less@H@std@@V?$allocator@U?$pair@$$CBH_N@std@@@2@$0A@@std@@@std@@SAAEAU?$pair@$$CBH_N@2@PEAU?$_Tree_node@U?$pair@$$CBH_N@std@@PEAX@2@@Z 00000001800135b8     game.obj
 0004:000005b8       $pdata$?_Myval@?$_Tree_comp_alloc@V?$_Tmap_traits@HIU?$less@H@std@@V?$allocator@U?$pair@$$CBHI@std@@@2@$0A@@std@@@std@@SAAEAU?$pair@$$CBHI@2@PEAU?$_Tree_node@U?$pair@$$CBHI@std@@PEAX@2@@Z 00000001800135b8     game.obj
 0004:000005c4       $pdata$?_Parent@?$_Tree_comp_alloc@V?$_Tmap_traits@H_NU?$less@H@std@@V?$allocator@U?$pair@$$CBH_N@std@@@2@$0A@@std@@@std@@SAAEAPEAU?$_Tree_node@U?$pair@$$CBH_N@std@@PEAX@2@PEAU32@@Z 00000001800135c4     game.obj
 0004:000005c4       $pdata$?_Parent@?$_Tree_comp_alloc@V?$_Tmap_traits@HIU?$less@H@std@@V?$allocator@U?$pair@$$CBHI@std@@@2@$0A@@std@@@std@@SAAEAPEAU?$_Tree_node@U?$pair@$$CBHI@std@@PEAX@2@PEAU32@@Z 00000001800135c4     game.obj
 0004:000005d0       $pdata$?_Right@?$_Tree_comp_alloc@V?$_Tmap_traits@HIU?$less@H@std@@V?$allocator@U?$pair@$$CBHI@std@@@2@$0A@@std@@@std@@SAAEAPEAU?$_Tree_node@U?$pair@$$CBHI@std@@PEAX@2@PEAU32@@Z 00000001800135d0     game.obj
 0004:000005d0       $pdata$?_Right@?$_Tree_comp_alloc@V?$_Tmap_traits@H_NU?$less@H@std@@V?$allocator@U?$pair@$$CBH_N@std@@@2@$0A@@std@@@std@@SAAEAPEAU?$_Tree_node@U?$pair@$$CBH_N@std@@PEAX@2@PEAU32@@Z 00000001800135d0     game.obj
 0004:000005dc       $pdata$?_Rmost@?$_Tree@V?$_Tmap_traits@H_NU?$less@H@std@@V?$allocator@U?$pair@$$CBH_N@std@@@2@$0A@@std@@@std@@IEBAAEAPEAU?$_Tree_node@U?$pair@$$CBH_N@std@@PEAX@2@XZ 00000001800135dc     game.obj
 0004:000005dc       $pdata$?_Rmost@?$_Tree@V?$_Tmap_traits@HIU?$less@H@std@@V?$allocator@U?$pair@$$CBHI@std@@@2@$0A@@std@@@std@@IEBAAEAPEAU?$_Tree_node@U?$pair@$$CBHI@std@@PEAX@2@XZ 00000001800135dc     game.obj
 0004:000005e8       $pdata$?_Root@?$_Tree@V?$_Tmap_traits@HIU?$less@H@std@@V?$allocator@U?$pair@$$CBHI@std@@@2@$0A@@std@@@std@@IEBAAEAPEAU?$_Tree_node@U?$pair@$$CBHI@std@@PEAX@2@XZ 00000001800135e8     game.obj
 0004:000005e8       $pdata$?_Root@?$_Tree@V?$_Tmap_traits@H_NU?$less@H@std@@V?$allocator@U?$pair@$$CBH_N@std@@@2@$0A@@std@@@std@@IEBAAEAPEAU?$_Tree_node@U?$pair@$$CBH_N@std@@PEAX@2@XZ 00000001800135e8     game.obj
 0004:000005f4       $pdata$?_Rrotate@?$_Tree@V?$_Tmap_traits@H_NU?$less@H@std@@V?$allocator@U?$pair@$$CBH_N@std@@@2@$0A@@std@@@std@@IEAAXPEAU?$_Tree_node@U?$pair@$$CBH_N@std@@PEAX@2@@Z 00000001800135f4     game.obj
 0004:000005f4       $pdata$?_Rrotate@?$_Tree@V?$_Tmap_traits@HIU?$less@H@std@@V?$allocator@U?$pair@$$CBHI@std@@@2@$0A@@std@@@std@@IEAAXPEAU?$_Tree_node@U?$pair@$$CBHI@std@@PEAX@2@@Z 00000001800135f4     game.obj
 0004:00000600       $pdata$?allocate@?$_Wrap_alloc@V?$allocator@U?$_Tree_node@U?$pair@$$CBH_N@std@@PEAX@std@@@std@@@std@@QEAAPEAU?$_Tree_node@U?$pair@$$CBH_N@std@@PEAX@2@_K@Z 0000000180013600     game.obj
 0004:00000600       $pdata$?allocate@?$_Wrap_alloc@V?$allocator@U?$_Tree_node@U?$pair@$$CBHI@std@@PEAX@std@@@std@@@std@@QEAAPEAU?$_Tree_node@U?$pair@$$CBHI@std@@PEAX@2@_K@Z 0000000180013600     game.obj
 0004:0000060c       $pdata$?allocate@?$allocator@U?$_Tree_node@U?$pair@$$CBHI@std@@PEAX@std@@@std@@QEAAPEAU?$_Tree_node@U?$pair@$$CBHI@std@@PEAX@2@_K@Z 000000018001360c     game.obj
 0004:0000060c       $pdata$?allocate@?$allocator@U?$_Tree_node@U?$pair@$$CBH_N@std@@PEAX@std@@@std@@QEAAPEAU?$_Tree_node@U?$pair@$$CBH_N@std@@PEAX@2@_K@Z 000000018001360c     game.obj
 0004:00000618       $pdata$?atan2@@YAMMM@Z     0000000180013618     game.obj
 0004:00000624       $pdata$?begin@?$_Tree@V?$_Tmap_traits@HIU?$less@H@std@@V?$allocator@U?$pair@$$CBHI@std@@@2@$0A@@std@@@std@@QEAA?AV?$_Tree_iterator@V?$_Tree_val@U?$_Tree_simple_types@U?$pair@$$CBHI@std@@@std@@@std@@@2@XZ 0000000180013624     game.obj
 0004:00000630       $pdata$?begin@?$_Tree@V?$_Tmap_traits@H_NU?$less@H@std@@V?$allocator@U?$pair@$$CBH_N@std@@@2@$0A@@std@@@std@@QEAA?AV?$_Tree_iterator@V?$_Tree_val@U?$_Tree_simple_types@U?$pair@$$CBH_N@std@@@std@@@std@@@2@XZ 0000000180013630     game.obj
 0004:0000063c       $pdata$?call@?$compute_dot@Utvec2@glm@@M$0A@$0A@@detail@glm@@SAMAEBU?$tvec2@M$0A@@3@0@Z 000000018001363c     game.obj
 0004:00000648       $pdata$?call@?$compute_inverse@Utmat4x4@glm@@M$0A@$0A@@detail@glm@@SA?AU?$tmat4x4@M$0A@@3@AEBU43@@Z 0000000180013648     game.obj
 0004:00000654       $pdata$?call@?$compute_normalize@M$0A@Utvec2@glm@@$0A@@detail@glm@@SA?AU?$tvec2@M$0A@@3@AEBU43@@Z 0000000180013654     game.obj
 0004:00000660       $pdata$?call@?$compute_vec4_add@M$0A@$0A@@detail@glm@@SA?AU?$tvec4@M$0A@@3@AEBU43@0@Z 0000000180013660     game.obj
 0004:0000066c       $pdata$?call@?$compute_vec4_div@M$0A@$0A@@detail@glm@@SA?AU?$tvec4@M$0A@@3@AEBU43@0@Z 000000018001366c     game.obj
 0004:00000678       $pdata$?call@?$compute_vec4_mul@M$0A@$0A@@detail@glm@@SA?AU?$tvec4@M$0A@@3@AEBU43@0@Z 0000000180013678     game.obj
 0004:00000684       $pdata$?call@?$compute_vec4_sub@M$0A@$0A@@detail@glm@@SA?AU?$tvec4@M$0A@@3@AEBU43@0@Z 0000000180013684     game.obj
 0004:00000690       $pdata$?deallocate@?$_Wrap_alloc@V?$allocator@U?$_Tree_node@U?$pair@$$CBH_N@std@@PEAX@std@@@std@@@std@@QEAAXPEAU?$_Tree_node@U?$pair@$$CBH_N@std@@PEAX@2@_K@Z 0000000180013690     game.obj
 0004:00000690       $pdata$?deallocate@?$_Wrap_alloc@V?$allocator@U?$_Tree_node@U?$pair@$$CBHI@std@@PEAX@std@@@std@@@std@@QEAAXPEAU?$_Tree_node@U?$pair@$$CBHI@std@@PEAX@2@_K@Z 0000000180013690     game.obj
 0004:0000069c       $pdata$?deallocate@?$allocator@U?$_Tree_node@U?$pair@$$CBH_N@std@@PEAX@std@@@std@@QEAAXPEAU?$_Tree_node@U?$pair@$$CBH_N@std@@PEAX@2@_K@Z 000000018001369c     game.obj
 0004:0000069c       $pdata$?deallocate@?$allocator@U?$_Tree_node@U?$pair@$$CBHI@std@@PEAX@std@@@std@@QEAAXPEAU?$_Tree_node@U?$pair@$$CBHI@std@@PEAX@2@_K@Z 000000018001369c     game.obj
 0004:000006a8       $pdata$?end@?$_Tree@V?$_Tmap_traits@HIU?$less@H@std@@V?$allocator@U?$pair@$$CBHI@std@@@2@$0A@@std@@@std@@QEAA?AV?$_Tree_iterator@V?$_Tree_val@U?$_Tree_simple_types@U?$pair@$$CBHI@std@@@std@@@std@@@2@XZ 00000001800136a8     game.obj
 0004:000006b4       $pdata$?end@?$_Tree@V?$_Tmap_traits@H_NU?$less@H@std@@V?$allocator@U?$pair@$$CBH_N@std@@@2@$0A@@std@@@std@@QEAA?AV?$_Tree_iterator@V?$_Tree_val@U?$_Tree_simple_types@U?$pair@$$CBH_N@std@@@std@@@std@@@2@XZ 00000001800136b4     game.obj
 0004:000006c0       $pdata$?lower_bound@?$_Tree@V?$_Tmap_traits@HIU?$less@H@std@@V?$allocator@U?$pair@$$CBHI@std@@@2@$0A@@std@@@std@@QEAA?AV?$_Tree_iterator@V?$_Tree_val@U?$_Tree_simple_types@U?$pair@$$CBHI@std@@@std@@@std@@@2@AEBH@Z 00000001800136c0     game.obj
 0004:000006c0       $pdata$?lower_bound@?$_Tree@V?$_Tmap_traits@H_NU?$less@H@std@@V?$allocator@U?$pair@$$CBH_N@std@@@2@$0A@@std@@@std@@QEAA?AV?$_Tree_iterator@V?$_Tree_val@U?$_Tree_simple_types@U?$pair@$$CBH_N@std@@@std@@@std@@@2@AEBH@Z 00000001800136c0     game.obj
 0004:000006cc       $pdata$?max_size@?$_Tree@V?$_Tmap_traits@H_NU?$less@H@std@@V?$allocator@U?$pair@$$CBH_N@std@@@2@$0A@@std@@@std@@QEBA_KXZ 00000001800136cc     game.obj
 0004:000006cc       $pdata$?max_size@?$_Tree@V?$_Tmap_traits@HIU?$less@H@std@@V?$allocator@U?$pair@$$CBHI@std@@@2@$0A@@std@@@std@@QEBA_KXZ 00000001800136cc     game.obj
 0004:000006d8       $pdata$?max_size@?$_Wrap_alloc@V?$allocator@U?$_Tree_node@U?$pair@$$CBHI@std@@PEAX@std@@@std@@@std@@QEBA_KU_Nil@2@@Z 00000001800136d8     game.obj
 0004:000006d8       $pdata$?max_size@?$_Wrap_alloc@V?$allocator@U?$_Tree_node@U?$pair@$$CBH_N@std@@PEAX@std@@@std@@@std@@QEBA_KU_Nil@2@@Z 00000001800136d8     game.obj
 0004:000006e4       $pdata$?max_size@?$allocator_traits@V?$allocator@U?$_Tree_node@U?$pair@$$CBH_N@std@@PEAX@std@@@std@@@std@@SA_KAEBV?$allocator@U?$_Tree_node@U?$pair@$$CBH_N@std@@PEAX@std@@@2@@Z 00000001800136e4     game.obj
 0004:000006e4       $pdata$?max_size@?$allocator_traits@V?$allocator@U?$_Tree_node@U?$pair@$$CBHI@std@@PEAX@std@@@std@@@std@@SA_KAEBV?$allocator@U?$_Tree_node@U?$pair@$$CBHI@std@@PEAX@std@@@2@@Z 00000001800136e4     game.obj
 0004:000006f0       $pdata$?size@?$_Tree@V?$_Tmap_traits@H_NU?$less@H@std@@V?$allocator@U?$pair@$$CBH_N@std@@@2@$0A@@std@@@std@@QEBA_KXZ 00000001800136f0     game.obj
 0004:000006f0       $pdata$?size@?$_Tree@V?$_Tmap_traits@HIU?$less@H@std@@V?$allocator@U?$pair@$$CBHI@std@@@2@$0A@@std@@@std@@QEBA_KXZ 00000001800136f0     game.obj
 0004:000006fc       $pdata$?sqrt@@YAMM@Z       00000001800136fc     game.obj
 0004:00000708       $pdata$?strstr@@YAPEADQEADQEBD@Z 0000000180013708     game.obj
 0004:00000714       $pdata$_vsnprintf_l        0000000180013714     game.obj
 0004:00000720       $pdata$_vsprintf_l         0000000180013720     game.obj
 0004:0000072c       $pdata$sprintf             000000018001372c     game.obj
 0004:00000738       $pdata$_glfwInputError     0000000180013738     glfw3:init.c.obj
 0004:00000744       $pdata$0$_glfwInputError   0000000180013744     glfw3:init.c.obj
 0004:00000750       $pdata$1$_glfwInputError   0000000180013750     glfw3:init.c.obj
 0004:0000075c       $pdata$glfwTerminate       000000018001375c     glfw3:init.c.obj
 0004:00000768       $pdata$0$glfwTerminate     0000000180013768     glfw3:init.c.obj
 0004:00000774       $pdata$1$glfwTerminate     0000000180013774     glfw3:init.c.obj
 0004:00000780       $pdata$2$glfwTerminate     0000000180013780     glfw3:init.c.obj
 0004:0000078c       $pdata$3$glfwTerminate     000000018001378c     glfw3:init.c.obj
 0004:00000798       $pdata$glfwDestroyWindow   0000000180013798     glfw3:window.c.obj
 0004:000007a4       $pdata$glfwGetWindowUserPointer 00000001800137a4     glfw3:window.c.obj
 0004:000007b0       $pdata$glfwDestroyCursor   00000001800137b0     glfw3:input.c.obj
 0004:000007bc       $pdata$0$glfwDestroyCursor 00000001800137bc     glfw3:input.c.obj
 0004:000007c8       $pdata$1$glfwDestroyCursor 00000001800137c8     glfw3:input.c.obj
 0004:000007d4       $pdata$2$glfwDestroyCursor 00000001800137d4     glfw3:input.c.obj
 0004:000007e0       $pdata$3$glfwDestroyCursor 00000001800137e0     glfw3:input.c.obj
 0004:000007ec       $pdata$_glfwPlatformTerminate 00000001800137ec     glfw3:win32_init.c.obj
 0004:000007f8       $pdata$freeLibraries       00000001800137f8     glfw3:win32_init.c.obj
 0004:00000804       $pdata$_glfwPlatformSetGammaRamp 0000000180013804     glfw3:win32_monitor.c.obj
 0004:00000810       $pdata$_glfwRestoreVideoModeWin32 0000000180013810     glfw3:win32_monitor.c.obj
 0004:0000081c       $pdata$_glfwFreeMonitors   000000018001381c     glfw3:monitor.c.obj
 0004:00000828       $pdata$0$_glfwFreeMonitors 0000000180013828     glfw3:monitor.c.obj
 0004:00000834       $pdata$1$_glfwFreeMonitors 0000000180013834     glfw3:monitor.c.obj
 0004:00000840       $pdata$_glfwTerminateVulkan 0000000180013840     glfw3:vulkan.c.obj
 0004:0000084c       $pdata$glfwMakeContextCurrent 000000018001384c     glfw3:context.c.obj
 0004:00000858       $pdata$_glfwPlatformDestroyWindow 0000000180013858     glfw3:win32_window.c.obj
 0004:00000864       $pdata$_glfwPlatformGetFramebufferSize 0000000180013864     glfw3:win32_window.c.obj
 0004:00000870       $pdata$_glfwPlatformSetCursor 0000000180013870     glfw3:win32_window.c.obj
 0004:0000087c       $pdata$_glfwUnregisterWindowClassWin32 000000018001387c     glfw3:win32_window.c.obj
 0004:00000888       $pdata$cursorInClientArea  0000000180013888     glfw3:win32_window.c.obj
 0004:00000894       $pdata$_glfwTerminateJoysticksWin32 0000000180013894     glfw3:win32_joystick.c.obj
 0004:000008a0       $pdata$_glfwTerminateEGL   00000001800138a0     glfw3:egl_context.c.obj
 0004:000008ac       $pdata$??2@YAPEAX_K@Z      00000001800138ac     MSVCRT:new_scalar.obj
 0004:000008b8       $pdata$__GSHandlerCheck    00000001800138b8     MSVCRT:_gshandler_.obj
 0004:000008c4       $pdata$__GSHandlerCheckCommon 00000001800138c4     MSVCRT:_gshandler_.obj
 0004:000008dc       $pdata$?dllmain_crt_dispatch@@YAHQEAUHINSTANCE__@@KQEAX@Z 00000001800138dc     MSVCRT:dll_dllmain.obj
 0004:000008e8       $pdata$?dllmain_crt_process_attach@@YAHQEAUHINSTANCE__@@QEAX@Z 00000001800138e8     MSVCRT:dll_dllmain.obj
 0004:000008f4       $pdata$?dllmain_crt_process_detach@@YAH_N@Z 00000001800138f4     MSVCRT:dll_dllmain.obj
 0004:00000900       $pdata$?dllmain_dispatch@@YAHQEAUHINSTANCE__@@KQEAX@Z 0000000180013900     MSVCRT:dll_dllmain.obj
 0004:0000090c       $pdata$?dllmain_raw@@YAHQEAUHINSTANCE__@@KQEAX@Z 000000018001390c     MSVCRT:dll_dllmain.obj
 0004:00000918       $pdata$_DllMainCRTStartup  0000000180013918     MSVCRT:dll_dllmain.obj
 0004:00000930       $pdata$??0bad_alloc@std@@QEAA@AEBV01@@Z 0000000180013930     MSVCRT:throw_bad_alloc.obj
 0004:0000093c       $pdata$??0bad_array_new_length@std@@QEAA@AEBV01@@Z 000000018001393c     MSVCRT:throw_bad_alloc.obj
 0004:00000948       $pdata$??0exception@std@@QEAA@AEBV01@@Z 0000000180013948     MSVCRT:throw_bad_alloc.obj
 0004:00000954       $pdata$??_Gexception@std@@UEAAPEAXI@Z 0000000180013954     MSVCRT:throw_bad_alloc.obj
 0004:00000954       $pdata$??_Gbad_array_new_length@std@@UEAAPEAXI@Z 0000000180013954     MSVCRT:throw_bad_alloc.obj
 0004:00000954       $pdata$??_Gbad_alloc@std@@UEAAPEAXI@Z 0000000180013954     MSVCRT:throw_bad_alloc.obj
 0004:00000960       $pdata$?__scrt_throw_std_bad_alloc@@YAXXZ 0000000180013960     MSVCRT:throw_bad_alloc.obj
 0004:0000096c       $pdata$?__scrt_throw_std_bad_array_new_length@@YAXXZ 000000018001396c     MSVCRT:throw_bad_alloc.obj
 0004:00000978       $pdata$__raise_securityfailure 0000000180013978     MSVCRT:gs_report.obj
 0004:00000984       $pdata$__report_gsfailure  0000000180013984     MSVCRT:gs_report.obj
 0004:00000990       $pdata$capture_previous_context 0000000180013990     MSVCRT:gs_report.obj
 0004:0000099c       $pdata$__scrt_acquire_startup_lock 000000018001399c     MSVCRT:utility.obj
 0004:000009a8       $pdata$__scrt_dllmain_after_initialize_c 00000001800139a8     MSVCRT:utility.obj
 0004:000009b4       $pdata$__scrt_dllmain_before_initialize_c 00000001800139b4     MSVCRT:utility.obj
 0004:000009c0       $pdata$__scrt_dllmain_crt_thread_attach 00000001800139c0     MSVCRT:utility.obj
 0004:000009cc       $pdata$__scrt_dllmain_crt_thread_detach 00000001800139cc     MSVCRT:utility.obj
 0004:000009d8       $pdata$__scrt_dllmain_exception_filter 00000001800139d8     MSVCRT:utility.obj
 0004:000009e4       $pdata$__scrt_dllmain_uninitialize_c 00000001800139e4     MSVCRT:utility.obj
 0004:000009f0       $pdata$__scrt_dllmain_uninitialize_critical 00000001800139f0     MSVCRT:utility.obj
 0004:000009fc       $pdata$__scrt_initialize_crt 00000001800139fc     MSVCRT:utility.obj
 0004:00000a08       $pdata$__scrt_initialize_onexit_tables 0000000180013a08     MSVCRT:utility.obj
 0004:00000a14       $pdata$__scrt_is_nonwritable_in_current_image 0000000180013a14     MSVCRT:utility.obj
 0004:00000a20       $pdata$__scrt_release_startup_lock 0000000180013a20     MSVCRT:utility.obj
 0004:00000a2c       $pdata$__scrt_uninitialize_crt 0000000180013a2c     MSVCRT:utility.obj
 0004:00000a38       $pdata$_onexit             0000000180013a38     MSVCRT:utility.obj
 0004:00000a44       $pdata$atexit              0000000180013a44     MSVCRT:utility.obj
 0004:00000a50       $pdata$__security_init_cookie 0000000180013a50     MSVCRT:gs_support.obj
 0004:00000a5c       $pdata$DllMain             0000000180013a5c     MSVCRT:dll_dllmain_stub.obj
 0004:00000a68       $pdata$__scrt_initialize_default_local_stdio_options 0000000180013a68     MSVCRT:default_local_stdio_options.obj
 0004:00000a74       $pdata$__scrt_fastfail     0000000180013a74     MSVCRT:utility_desktop.obj
 0004:00000a80       $pdata$_RTC_Initialize     0000000180013a80     MSVCRT:_initsect_.obj
 0004:00000a8c       $pdata$_RTC_Terminate      0000000180013a8c     MSVCRT:_initsect_.obj
 0004:00000a98       $pdata$??_Gtype_info@@UEAAPEAXI@Z 0000000180013a98     MSVCRT:std_type_info_static.obj
 0004:00000aa4       $pdata$__isa_available_init 0000000180013aa4     MSVCRT:_cpu_disp_.obj
 0004:00000abc       $pdata$?catch$0@?0???$_Buynode@AEBUpiecewise_construct_t@std@@V?$tuple@AEBH@2@V?$tuple@$$V@2@@?$_Tree_comp_alloc@V?$_Tmap_traits@HIU?$less@H@std@@V?$allocator@U?$pair@$$CBHI@std@@@2@$0A@@std@@@std@@QEAAPEAU?$_Tree_node@U?$pair@$$CBHI@std@@PEAX@1@AEBUpiecewise_construct_t@1@$$QEAV?$tuple@AEBH@1@$$QEAV?$tuple@$$V@1@@Z@4HA 0000000180013abc     game.obj
 0004:00000ac8       $pdata$?catch$0@?0???$_Buynode@AEBUpiecewise_construct_t@std@@V?$tuple@AEBH@2@V?$tuple@$$V@2@@?$_Tree_comp_alloc@V?$_Tmap_traits@H_NU?$less@H@std@@V?$allocator@U?$pair@$$CBH_N@std@@@2@$0A@@std@@@std@@QEAAPEAU?$_Tree_node@U?$pair@$$CBH_N@std@@PEAX@1@AEBUpiecewise_construct_t@1@$$QEAV?$tuple@AEBH@1@$$QEAV?$tuple@$$V@1@@Z@4HA 0000000180013ac8     game.obj
 0004:00000ad4       $pdata$?catch$0@?0???$_Insert_hint@AEAU?$pair@$$CBHI@std@@PEAU?$_Tree_node@U?$pair@$$CBHI@std@@PEAX@2@@?$_Tree@V?$_Tmap_traits@HIU?$less@H@std@@V?$allocator@U?$pair@$$CBHI@std@@@2@$0A@@std@@@std@@IEAA?AV?$_Tree_iterator@V?$_Tree_val@U?$_Tree_simple_types@U?$pair@$$CBHI@std@@@std@@@std@@@1@V?$_Tree_const_iterator@V?$_Tree_val@U?$_Tree_simple_types@U?$pair@$$CBHI@std@@@std@@@std@@@1@AEAU?$pair@$$CBHI@1@PEAU?$_Tree_node@U?$pair@$$CBHI@std@@PEAX@1@@Z@4HA 0000000180013ad4     game.obj
 0004:00000ae0       $pdata$?catch$0@?0???$_Insert_hint@AEAU?$pair@$$CBH_N@std@@PEAU?$_Tree_node@U?$pair@$$CBH_N@std@@PEAX@2@@?$_Tree@V?$_Tmap_traits@H_NU?$less@H@std@@V?$allocator@U?$pair@$$CBH_N@std@@@2@$0A@@std@@@std@@IEAA?AV?$_Tree_iterator@V?$_Tree_val@U?$_Tree_simple_types@U?$pair@$$CBH_N@std@@@std@@@std@@@1@V?$_Tree_const_iterator@V?$_Tree_val@U?$_Tree_simple_types@U?$pair@$$CBH_N@std@@@std@@@std@@@1@AEAU?$pair@$$CBH_N@1@PEAU?$_Tree_node@U?$pair@$$CBH_N@std@@PEAX@1@@Z@4HA 0000000180013ae0     game.obj
 0004:00000aec       $pdata$?catch$0@?0???$_Insert_nohint@AEAU?$pair@$$CBHI@std@@PEAU?$_Tree_node@U?$pair@$$CBHI@std@@PEAX@2@@?$_Tree@V?$_Tmap_traits@HIU?$less@H@std@@V?$allocator@U?$pair@$$CBHI@std@@@2@$0A@@std@@@std@@IEAA?AU?$pair@V?$_Tree_iterator@V?$_Tree_val@U?$_Tree_simple_types@U?$pair@$$CBHI@std@@@std@@@std@@@std@@_N@1@_NAEAU?$pair@$$CBHI@1@PEAU?$_Tree_node@U?$pair@$$CBHI@std@@PEAX@1@@Z@4HA 0000000180013aec     game.obj
 0004:00000af8       $pdata$?catch$0@?0???$_Insert_nohint@AEAU?$pair@$$CBH_N@std@@PEAU?$_Tree_node@U?$pair@$$CBH_N@std@@PEAX@2@@?$_Tree@V?$_Tmap_traits@H_NU?$less@H@std@@V?$allocator@U?$pair@$$CBH_N@std@@@2@$0A@@std@@@std@@IEAA?AU?$pair@V?$_Tree_iterator@V?$_Tree_val@U?$_Tree_simple_types@U?$pair@$$CBH_N@std@@@std@@@std@@@std@@_N@1@_NAEAU?$pair@$$CBH_N@1@PEAU?$_Tree_node@U?$pair@$$CBH_N@std@@PEAX@1@@Z@4HA 0000000180013af8     game.obj
 0004:00000b04       $pdata$?dtor$0@?0???$construct@U?$pair@$$CBH_N@std@@AEBUpiecewise_construct_t@2@V?$tuple@AEBH@2@V?$tuple@$$V@2@@?$allocator@U?$_Tree_node@U?$pair@$$CBH_N@std@@PEAX@std@@@std@@QEAAXPEAU?$pair@$$CBH_N@1@AEBUpiecewise_construct_t@1@$$QEAV?$tuple@AEBH@1@$$QEAV?$tuple@$$V@1@@Z@4HA 0000000180013b04     game.obj
 0004:00000b04       $pdata$?dtor$0@?0???$construct@U?$pair@$$CBHI@std@@AEBUpiecewise_construct_t@2@V?$tuple@AEBH@2@V?$tuple@$$V@2@@?$allocator@U?$_Tree_node@U?$pair@$$CBHI@std@@PEAX@std@@@std@@QEAAXPEAU?$pair@$$CBHI@1@AEBUpiecewise_construct_t@1@$$QEAV?$tuple@AEBH@1@$$QEAV?$tuple@$$V@1@@Z@4HA 0000000180013b04     game.obj
 0004:00000b10       $pdata$?catch$0@?0??_Buynode0@?$_Tree_comp_alloc@V?$_Tmap_traits@HIU?$less@H@std@@V?$allocator@U?$pair@$$CBHI@std@@@2@$0A@@std@@@std@@QEAAPEAU?$_Tree_node@U?$pair@$$CBHI@std@@PEAX@2@XZ@4HA 0000000180013b10     game.obj
 0004:00000b1c       $pdata$?catch$0@?0??_Buynode0@?$_Tree_comp_alloc@V?$_Tmap_traits@H_NU?$less@H@std@@V?$allocator@U?$pair@$$CBH_N@std@@@2@$0A@@std@@@std@@QEAAPEAU?$_Tree_node@U?$pair@$$CBH_N@std@@PEAX@2@XZ@4HA 0000000180013b1c     game.obj
 0004:00000b28       $pdata$?fin$0@?0??dllmain_crt_process_attach@@YAHQEAUHINSTANCE__@@QEAX@Z@4HA 0000000180013b28     MSVCRT:dll_dllmain.obj
 0004:00000b34       $pdata$?fin$0@?0??dllmain_crt_process_detach@@YAH_N@Z@4HA 0000000180013b34     MSVCRT:dll_dllmain.obj
 0004:00000b40       $pdata$?filt$0@?0??dllmain_dispatch@@YAHQEAUHINSTANCE__@@KQEAX@Z@4HA 0000000180013b40     MSVCRT:dll_dllmain.obj
 0004:00000b4c       $pdata$__scrt_is_nonwritable_in_current_image$filt$0 0000000180013b4c     MSVCRT:utility.obj
 0005:00000000       __guard_fids_?dllmain_crt_process_attach@@YAHQEAUHINSTANCE__@@QEAX@Z 0000000180014000     MSVCRT:dll_dllmain.obj
 0005:00000008       __guard_fids_?dllmain_dispatch@@YAHQEAUHINSTANCE__@@KQEAX@Z 0000000180014008     MSVCRT:dll_dllmain.obj
 0005:0000000c       __guard_fids__             000000018001400c     MSVCRT:throw_bad_alloc.obj
 0005:00000014       __guard_fids__             0000000180014014     MSVCRT:throw_bad_alloc.obj
 0005:0000001c       __guard_fids__             000000018001401c     MSVCRT:throw_bad_alloc.obj
 0005:00000024       __guard_fids__             0000000180014024     MSVCRT:std_type_info_static.obj
 0005:00000028       __guard_fids__             0000000180014028     MSVCRT:guard_support.obj
