 game

 Timestamp is 58f4f647 (Mon Apr 17 19:07:19 2017)

 Preferred load address is 0000000180000000

 Start         Length     Name                   Class
 0001:00000000 000201a0H .text$mn                CODE
 0001:000201a0 00000020H .text$mn$00             CODE
 0001:000201c0 000002b4H .text$x                 CODE
 0002:00000000 000002b0H .idata$5                DATA
 0002:000002b0 00000010H .00cfg                  DATA
 0002:000002c0 00000008H .CRT$XCA                DATA
 0002:000002c8 00000008H .CRT$XCZ                DATA
 0002:000002d0 00000008H .CRT$XIA                DATA
 0002:000002d8 00000008H .CRT$XIZ                DATA
 0002:000002e0 00000008H .CRT$XPA                DATA
 0002:000002e8 00000008H .CRT$XPZ                DATA
 0002:000002f0 00000008H .CRT$XTA                DATA
 0002:000002f8 00000008H .CRT$XTZ                DATA
 0002:00000300 00000d48H .rdata                  DATA
 0002:00001048 000002fcH .rdata$r                DATA
 0002:00001344 000002ccH .rdata$zzzdbg           DATA
 0002:00001610 00000008H .rtc$IAA                DATA
 0002:00001618 00000008H .rtc$IZZ                DATA
 0002:00001620 00000008H .rtc$TAA                DATA
 0002:00001628 00000008H .rtc$TZZ                DATA
 0002:00001630 000012a0H .xdata                  DATA
 0002:000028d0 00000180H .xdata$x                DATA
 0002:00002a50 00000044H .edata                  DATA
 0002:00002a94 000000c8H .idata$2                DATA
 0002:00002b5c 00000014H .idata$3                DATA
 0002:00002b70 000002b0H .idata$4                DATA
 0002:00002e20 0000065cH .idata$6                DATA
 0003:00000000 000177b8H .data                   DATA
 0003:000177b8 00000108H .data$r                 DATA
 0003:000178c0 00007478H .bss                    DATA
 0004:00000000 00001998H .pdata                  DATA
 0005:00000000 0000003cH .gfids$y                DATA

  Address         Publics by Value              Rva+Base               Lib:Object

 0000:00000000       __guard_fids_count         0000000000000000     <absolute>
 0000:00000000       ___safe_se_handler_table   0000000000000000     <absolute>
 0000:00000000       ___safe_se_handler_count   0000000000000000     <absolute>
 0000:00000000       __guard_iat_table          0000000000000000     <absolute>
 0000:00000000       __guard_longjmp_table      0000000000000000     <absolute>
 0000:00000000       __guard_iat_count          0000000000000000     <absolute>
 0000:00000000       __guard_longjmp_count      0000000000000000     <absolute>
 0000:00000000       __dynamic_value_reloc_table 0000000000000000     <absolute>
 0000:00000000       __guard_fids_table         0000000000000000     <absolute>
 0000:00000100       __guard_flags              0000000000000100     <absolute>
 0000:00000000       __ImageBase                0000000180000000     <linker-defined>
 0001:00000000       stb_perlin_noise3          0000000180001000 f   game.obj
 0001:00000670       stb_perlin_ridge_noise3    0000000180001670 f   game.obj
 0001:00000810       stb_perlin_fbm_noise3      0000000180001810 f   game.obj
 0001:00000930       stb_perlin_turbulence_noise3 0000000180001930 f   game.obj
 0001:00000ba0       ?UpdateStub@@YAXNPEAUgame_state@@@Z 0000000180001ba0 f   game.obj
 0001:00000bc0       ?CharacterCallback@@YAXPEAUGLFWwindow@@I@Z 0000000180001bc0 f   game.obj
 0001:00000c60       ?PlaySound@@YAXPEAUloaded_sound@@@Z 0000000180001c60 f   game.obj
 0001:00000db0       ?PlaySoundOnce@@YAXPEAUloaded_sound@@@Z 0000000180001db0 f   game.obj
 0001:00000e10       ?PauseSound@@YAXPEAUloaded_sound@@@Z 0000000180001e10 f   game.obj
 0001:00000e40       ?StopSound@@YAXPEAUloaded_sound@@@Z 0000000180001e40 f   game.obj
 0001:00000e70       ?ExecuteCommand@@YAXPEAUgame_state@@@Z 0000000180001e70 f   game.obj
 0001:00000ed0       Update                     0000000180001ed0 f   game.obj
 0001:000015b0       ??$?0AEBH$$Z$$V@?$pair@$$CBHI@std@@QEAA@Upiecewise_construct_t@1@V?$tuple@AEBH@1@V?$tuple@$$V@1@@Z 00000001800025b0 f i game.obj
 0001:00001600       ??$?0AEBH$$Z$$V@?$pair@$$CBH_N@std@@QEAA@Upiecewise_construct_t@1@V?$tuple@AEBH@1@V?$tuple@$$V@1@@Z 0000000180002600 f i game.obj
 0001:00001650       ??$?0AEBH$0A@@?$tuple@AEBH@std@@QEAA@AEBH@Z 0000000180002650 f i game.obj
 0001:000016a0       ??$?0AEBH@?$_Tuple_val@AEBH@std@@QEAA@AEBH@Z 00000001800026a0 f i game.obj
 0001:000016d0       ??$?0HHHH@?$tvec4@M$0A@@glm@@QEAA@HHHH@Z 00000001800026d0 f i game.obj
 0001:00001730       ??$?0HHHM@?$tvec4@M$0A@@glm@@QEAA@HHHM@Z 0000000180002730 f i game.obj
 0001:00001790       ??$?0HHM@?$tvec3@M$0A@@glm@@QEAA@HHM@Z 0000000180002790 f i game.obj
 0001:000017e0       ??$?0HHMH@?$tvec4@M$0A@@glm@@QEAA@HHMH@Z 00000001800027e0 f i game.obj
 0001:00001840       ??$?0HMHH@?$tvec4@M$0A@@glm@@QEAA@HMHH@Z 0000000180002840 f i game.obj
 0001:000018a0       ??$?0M$0A@@?$tvec3@M$0A@@glm@@QEAA@AEBU?$tvec4@M$0A@@1@@Z 00000001800028a0 f i game.obj
 0001:000018f0       ??$?0MHHH@?$tvec4@M$0A@@glm@@QEAA@MHHH@Z 00000001800028f0 f i game.obj
 0001:00001950       ??$?0MM$0A@@?$tvec4@M$0A@@glm@@QEAA@AEBU?$tvec3@M$0A@@1@M@Z 0000000180002950 f i game.obj
 0001:000019b0       ??$?0MMH@?$tvec3@M$0A@@glm@@QEAA@MMH@Z 00000001800029b0 f i game.obj
 0001:00001a00       ??$?0NNH@?$tvec3@M$0A@@glm@@QEAA@NNH@Z 0000000180002a00 f i game.obj
 0001:00001a50       ??$?0U_Exact_args_t@std@@$0A@@?$tuple@$$V@std@@QEAA@U_Exact_args_t@1@@Z 0000000180002a50 f i game.obj
 0001:00001a60       ??$?0AEAV?$_Tree_iterator@V?$_Tree_val@U?$_Tree_simple_types@U?$pair@$$CBH_N@std@@@std@@@std@@@std@@_NX$0A@@?$pair@V?$_Tree_iterator@V?$_Tree_val@U?$_Tree_simple_types@U?$pair@$$CBH_N@std@@@std@@@std@@@std@@_N@std@@QEAA@AEAV?$_Tree_iterator@V?$_Tree_val@U?$_Tree_simple_types@U?$pair@$$CBH_N@std@@@std@@@std@@@1@$$QEA_N@Z 0000000180002a60 f i game.obj
 0001:00001a60       ??$?0V?$_Tree_iterator@V?$_Tree_val@U?$_Tree_simple_types@U?$pair@$$CBH_N@std@@@std@@@std@@@std@@_NX$0A@@?$pair@V?$_Tree_iterator@V?$_Tree_val@U?$_Tree_simple_types@U?$pair@$$CBH_N@std@@@std@@@std@@@std@@_N@std@@QEAA@$$QEAV?$_Tree_iterator@V?$_Tree_val@U?$_Tree_simple_types@U?$pair@$$CBH_N@std@@@std@@@std@@@1@$$QEA_N@Z 0000000180002a60 f i game.obj
 0001:00001a60       ??$?0AEAV?$_Tree_iterator@V?$_Tree_val@U?$_Tree_simple_types@U?$pair@$$CBHI@std@@@std@@@std@@@std@@_NX$0A@@?$pair@V?$_Tree_iterator@V?$_Tree_val@U?$_Tree_simple_types@U?$pair@$$CBHI@std@@@std@@@std@@@std@@_N@std@@QEAA@AEAV?$_Tree_iterator@V?$_Tree_val@U?$_Tree_simple_types@U?$pair@$$CBHI@std@@@std@@@std@@@1@$$QEA_N@Z 0000000180002a60 f i game.obj
 0001:00001a60       ??$?0V?$_Tree_iterator@V?$_Tree_val@U?$_Tree_simple_types@U?$pair@$$CBHI@std@@@std@@@std@@@std@@_NX$0A@@?$pair@V?$_Tree_iterator@V?$_Tree_val@U?$_Tree_simple_types@U?$pair@$$CBHI@std@@@std@@@std@@@std@@_N@std@@QEAA@$$QEAV?$_Tree_iterator@V?$_Tree_val@U?$_Tree_simple_types@U?$pair@$$CBHI@std@@@std@@@std@@@1@$$QEA_N@Z 0000000180002a60 f i game.obj
 0001:00001ab0       ??$?0V?$tuple@AEBH@std@@V?$tuple@$$V@1@$0A@$$Z$S@?$pair@$$CBHI@std@@QEAA@AEAV?$tuple@AEBH@1@AEAV?$tuple@$$V@1@U?$integer_sequence@_K$0A@@1@U?$integer_sequence@_K$S@1@@Z 0000000180002ab0 f i game.obj
 0001:00001b00       ??$?0V?$tuple@AEBH@std@@V?$tuple@$$V@1@$0A@$$Z$S@?$pair@$$CBH_N@std@@QEAA@AEAV?$tuple@AEBH@1@AEAV?$tuple@$$V@1@U?$integer_sequence@_K$0A@@1@U?$integer_sequence@_K$S@1@@Z 0000000180002b00 f i game.obj
 0001:00001b50       ??$?DM$0A@@glm@@YA?AU?$tmat4x4@M$0A@@0@AEBU10@0@Z 0000000180002b50 f i game.obj
 0001:000021a0       ??$?DM$0A@@glm@@YA?AU?$tmat4x4@M$0A@@0@AEBU10@AEBM@Z 00000001800031a0 f i game.obj
 0001:000022b0       ??$?DM$0A@@glm@@YA?AU?$tvec2@M$0A@@0@AEBU10@0@Z 00000001800032b0 f i game.obj
 0001:00002300       ??$?DM$0A@@glm@@YA?AU?$tvec2@M$0A@@0@AEBU10@M@Z 0000000180003300 f i game.obj
 0001:00002350       ??$?DM$0A@@glm@@YA?AU?$tvec4@M$0A@@0@AEBU10@0@Z 0000000180003350 f i game.obj
 0001:000023b0       ??$?DM$0A@@glm@@YA?AU?$tvec4@M$0A@@0@AEBU10@M@Z 00000001800033b0 f i game.obj
 0001:00002410       ??$?DM$0A@@glm@@YA?AU?$tvec4@M$0A@@0@AEBU?$tmat4x4@M$0A@@0@AEBU10@@Z 0000000180003410 f i game.obj
 0001:000025c0       ??$?GM$0A@@glm@@YA?AU?$tvec2@M$0A@@0@AEBU10@0@Z 00000001800035c0 f i game.obj
 0001:00002610       ??$?GM$0A@@glm@@YA?AU?$tvec4@M$0A@@0@AEBU10@0@Z 0000000180003610 f i game.obj
 0001:00002670       ??$?GM$0A@@glm@@YA?AU?$tvec4@M$0A@@0@AEBU10@M@Z 0000000180003670 f i game.obj
 0001:000026d0       ??$?HM$0A@@glm@@YA?AU?$tvec4@M$0A@@0@AEBU10@0@Z 00000001800036d0 f i game.obj
 0001:00002730       ??$?XM@?$tvec4@M$0A@@glm@@QEAAAEAU01@AEBU01@@Z 0000000180003730 f i game.obj
 0001:00002790       ??$?XM@?$tvec4@M$0A@@glm@@QEAAAEAU01@M@Z 0000000180003790 f i game.obj
 0001:000027e0       ??$?YM@?$tvec4@M$0A@@glm@@QEAAAEAU01@AEBU01@@Z 00000001800037e0 f i game.obj
 0001:00002840       ??$?ZM@?$tvec4@M$0A@@glm@@QEAAAEAU01@AEBU01@@Z 0000000180003840 f i game.obj
 0001:000028a0       ??$?ZM@?$tvec4@M$0A@@glm@@QEAAAEAU01@M@Z 00000001800038a0 f i game.obj
 0001:000028f0       ??$?_0M@?$tvec4@M$0A@@glm@@QEAAAEAU01@M@Z 00000001800038f0 f i game.obj
 0001:00002940       ??$_Buynode@AEBUpiecewise_construct_t@std@@V?$tuple@AEBH@2@V?$tuple@$$V@2@@?$_Tree_comp_alloc@V?$_Tmap_traits@HIU?$less@H@std@@V?$allocator@U?$pair@$$CBHI@std@@@2@$0A@@std@@@std@@QEAAPEAU?$_Tree_node@U?$pair@$$CBHI@std@@PEAX@1@AEBUpiecewise_construct_t@1@$$QEAV?$tuple@AEBH@1@$$QEAV?$tuple@$$V@1@@Z 0000000180003940 f i game.obj
 0001:00002a30       ??$_Buynode@AEBUpiecewise_construct_t@std@@V?$tuple@AEBH@2@V?$tuple@$$V@2@@?$_Tree_comp_alloc@V?$_Tmap_traits@H_NU?$less@H@std@@V?$allocator@U?$pair@$$CBH_N@std@@@2@$0A@@std@@@std@@QEAAPEAU?$_Tree_node@U?$pair@$$CBH_N@std@@PEAX@1@AEBUpiecewise_construct_t@1@$$QEAV?$tuple@AEBH@1@$$QEAV?$tuple@$$V@1@@Z 0000000180003a30 f i game.obj
 0001:00002b20       ??$_Buynode_if_nil@AEAU?$pair@$$CBHI@std@@@?$_Tree@V?$_Tmap_traits@HIU?$less@H@std@@V?$allocator@U?$pair@$$CBHI@std@@@2@$0A@@std@@@std@@IEAAPEAU?$_Tree_node@U?$pair@$$CBHI@std@@PEAX@1@PEAU21@AEAU?$pair@$$CBHI@1@@Z 0000000180003b20 f i game.obj
 0001:00002b20       ??$_Buynode_if_nil@AEAU?$pair@$$CBH_N@std@@@?$_Tree@V?$_Tmap_traits@H_NU?$less@H@std@@V?$allocator@U?$pair@$$CBH_N@std@@@2@$0A@@std@@@std@@IEAAPEAU?$_Tree_node@U?$pair@$$CBH_N@std@@PEAX@1@PEAU21@AEAU?$pair@$$CBH_N@1@@Z 0000000180003b20 f i game.obj
 0001:00002b40       ??$_Insert_at@AEAU?$pair@$$CBH_N@std@@PEAU?$_Tree_node@U?$pair@$$CBH_N@std@@PEAX@2@@?$_Tree@V?$_Tmap_traits@H_NU?$less@H@std@@V?$allocator@U?$pair@$$CBH_N@std@@@2@$0A@@std@@@std@@IEAA?AV?$_Tree_iterator@V?$_Tree_val@U?$_Tree_simple_types@U?$pair@$$CBH_N@std@@@std@@@std@@@1@_NPEAU?$_Tree_node@U?$pair@$$CBH_N@std@@PEAX@1@AEAU?$pair@$$CBH_N@1@1@Z 0000000180003b40 f i game.obj
 0001:00002b40       ??$_Insert_at@AEAU?$pair@$$CBHI@std@@PEAU?$_Tree_node@U?$pair@$$CBHI@std@@PEAX@2@@?$_Tree@V?$_Tmap_traits@HIU?$less@H@std@@V?$allocator@U?$pair@$$CBHI@std@@@2@$0A@@std@@@std@@IEAA?AV?$_Tree_iterator@V?$_Tree_val@U?$_Tree_simple_types@U?$pair@$$CBHI@std@@@std@@@std@@@1@_NPEAU?$_Tree_node@U?$pair@$$CBHI@std@@PEAX@1@AEAU?$pair@$$CBHI@1@1@Z 0000000180003b40 f i game.obj
 0001:00002fa0       ??$_Insert_hint@AEAU?$pair@$$CBHI@std@@PEAU?$_Tree_node@U?$pair@$$CBHI@std@@PEAX@2@@?$_Tree@V?$_Tmap_traits@HIU?$less@H@std@@V?$allocator@U?$pair@$$CBHI@std@@@2@$0A@@std@@@std@@IEAA?AV?$_Tree_iterator@V?$_Tree_val@U?$_Tree_simple_types@U?$pair@$$CBHI@std@@@std@@@std@@@1@V?$_Tree_const_iterator@V?$_Tree_val@U?$_Tree_simple_types@U?$pair@$$CBHI@std@@@std@@@std@@@1@AEAU?$pair@$$CBHI@1@PEAU?$_Tree_node@U?$pair@$$CBHI@std@@PEAX@1@@Z 0000000180003fa0 f i game.obj
 0001:00003e80       ??$_Insert_hint@AEAU?$pair@$$CBH_N@std@@PEAU?$_Tree_node@U?$pair@$$CBH_N@std@@PEAX@2@@?$_Tree@V?$_Tmap_traits@H_NU?$less@H@std@@V?$allocator@U?$pair@$$CBH_N@std@@@2@$0A@@std@@@std@@IEAA?AV?$_Tree_iterator@V?$_Tree_val@U?$_Tree_simple_types@U?$pair@$$CBH_N@std@@@std@@@std@@@1@V?$_Tree_const_iterator@V?$_Tree_val@U?$_Tree_simple_types@U?$pair@$$CBH_N@std@@@std@@@std@@@1@AEAU?$pair@$$CBH_N@1@PEAU?$_Tree_node@U?$pair@$$CBH_N@std@@PEAX@1@@Z 0000000180004e80 f i game.obj
 0001:00004d60       ??$_Insert_nohint@AEAU?$pair@$$CBHI@std@@PEAU?$_Tree_node@U?$pair@$$CBHI@std@@PEAX@2@@?$_Tree@V?$_Tmap_traits@HIU?$less@H@std@@V?$allocator@U?$pair@$$CBHI@std@@@2@$0A@@std@@@std@@IEAA?AU?$pair@V?$_Tree_iterator@V?$_Tree_val@U?$_Tree_simple_types@U?$pair@$$CBHI@std@@@std@@@std@@@std@@_N@1@_NAEAU?$pair@$$CBHI@1@PEAU?$_Tree_node@U?$pair@$$CBHI@std@@PEAX@1@@Z 0000000180005d60 f i game.obj
 0001:000051d0       ??$_Insert_nohint@AEAU?$pair@$$CBH_N@std@@PEAU?$_Tree_node@U?$pair@$$CBH_N@std@@PEAX@2@@?$_Tree@V?$_Tmap_traits@H_NU?$less@H@std@@V?$allocator@U?$pair@$$CBH_N@std@@@2@$0A@@std@@@std@@IEAA?AU?$pair@V?$_Tree_iterator@V?$_Tree_val@U?$_Tree_simple_types@U?$pair@$$CBH_N@std@@@std@@@std@@@std@@_N@1@_NAEAU?$pair@$$CBH_N@1@PEAU?$_Tree_node@U?$pair@$$CBH_N@std@@PEAX@1@@Z 00000001800061d0 f i game.obj
 0001:00005640       ??$_Lbound@H@?$_Tree@V?$_Tmap_traits@H_NU?$less@H@std@@V?$allocator@U?$pair@$$CBH_N@std@@@2@$0A@@std@@@std@@IEBAPEAU?$_Tree_node@U?$pair@$$CBH_N@std@@PEAX@1@AEBH@Z 0000000180006640 f i game.obj
 0001:00005640       ??$_Lbound@H@?$_Tree@V?$_Tmap_traits@HIU?$less@H@std@@V?$allocator@U?$pair@$$CBHI@std@@@2@$0A@@std@@@std@@IEBAPEAU?$_Tree_node@U?$pair@$$CBHI@std@@PEAX@1@AEBH@Z 0000000180006640 f i game.obj
 0001:000056f0       ??$_Try_emplace@AEBH$$V@?$map@HIU?$less@H@std@@V?$allocator@U?$pair@$$CBHI@std@@@2@@std@@QEAA?AU?$pair@V?$_Tree_iterator@V?$_Tree_val@U?$_Tree_simple_types@U?$pair@$$CBHI@std@@@std@@@std@@@std@@_N@1@AEBH@Z 00000001800066f0 f i game.obj
 0001:00005850       ??$_Try_emplace@AEBH$$V@?$map@H_NU?$less@H@std@@V?$allocator@U?$pair@$$CBH_N@std@@@2@@std@@QEAA?AU?$pair@V?$_Tree_iterator@V?$_Tree_val@U?$_Tree_simple_types@U?$pair@$$CBH_N@std@@@std@@@std@@@std@@_N@1@AEBH@Z 0000000180006850 f i game.obj
 0001:000059b0       ??$construct@PEAU?$_Tree_node@U?$pair@$$CBHI@std@@PEAX@std@@AEAPEAU12@@?$_Wrap_alloc@V?$allocator@U?$_Tree_node@U?$pair@$$CBHI@std@@PEAX@std@@@std@@@std@@QEAAXPEAPEAU?$_Tree_node@U?$pair@$$CBHI@std@@PEAX@1@AEAPEAU21@@Z 00000001800069b0 f i game.obj
 0001:000059b0       ??$construct@PEAU?$_Tree_node@U?$pair@$$CBH_N@std@@PEAX@std@@AEAPEAU12@@?$_Wrap_alloc@V?$allocator@U?$_Tree_node@U?$pair@$$CBH_N@std@@PEAX@std@@@std@@@std@@QEAAXPEAPEAU?$_Tree_node@U?$pair@$$CBH_N@std@@PEAX@1@AEAPEAU21@@Z 00000001800069b0 f i game.obj
 0001:000059f0       ??$construct@PEAU?$_Tree_node@U?$pair@$$CBHI@std@@PEAX@std@@AEAPEAU12@@?$allocator@U?$_Tree_node@U?$pair@$$CBHI@std@@PEAX@std@@@std@@QEAAXPEAPEAU?$_Tree_node@U?$pair@$$CBHI@std@@PEAX@1@AEAPEAU21@@Z 00000001800069f0 f i game.obj
 0001:000059f0       ??$construct@PEAU?$_Tree_node@U?$pair@$$CBH_N@std@@PEAX@std@@AEAPEAU12@@?$allocator@U?$_Tree_node@U?$pair@$$CBH_N@std@@PEAX@std@@@std@@QEAAXPEAPEAU?$_Tree_node@U?$pair@$$CBH_N@std@@PEAX@1@AEAPEAU21@@Z 00000001800069f0 f i game.obj
 0001:00005a50       ??$construct@PEAU?$_Tree_node@U?$pair@$$CBH_N@std@@PEAX@std@@AEAPEAU12@@?$allocator_traits@V?$allocator@U?$_Tree_node@U?$pair@$$CBH_N@std@@PEAX@std@@@std@@@std@@SAXAEAV?$allocator@U?$_Tree_node@U?$pair@$$CBH_N@std@@PEAX@std@@@1@PEAPEAU?$_Tree_node@U?$pair@$$CBH_N@std@@PEAX@1@AEAPEAU31@@Z 0000000180006a50 f i game.obj
 0001:00005a50       ??$construct@PEAU?$_Tree_node@U?$pair@$$CBHI@std@@PEAX@std@@AEAPEAU12@@?$allocator_traits@V?$allocator@U?$_Tree_node@U?$pair@$$CBHI@std@@PEAX@std@@@std@@@std@@SAXAEAV?$allocator@U?$_Tree_node@U?$pair@$$CBHI@std@@PEAX@std@@@1@PEAPEAU?$_Tree_node@U?$pair@$$CBHI@std@@PEAX@1@AEAPEAU31@@Z 0000000180006a50 f i game.obj
 0001:00005a90       ??$construct@U?$pair@$$CBHI@std@@AEBUpiecewise_construct_t@2@V?$tuple@AEBH@2@V?$tuple@$$V@2@@?$_Wrap_alloc@V?$allocator@U?$_Tree_node@U?$pair@$$CBHI@std@@PEAX@std@@@std@@@std@@QEAAXPEAU?$pair@$$CBHI@1@AEBUpiecewise_construct_t@1@$$QEAV?$tuple@AEBH@1@$$QEAV?$tuple@$$V@1@@Z 0000000180006a90 f i game.obj
 0001:00005b00       ??$construct@U?$pair@$$CBHI@std@@AEBUpiecewise_construct_t@2@V?$tuple@AEBH@2@V?$tuple@$$V@2@@?$allocator@U?$_Tree_node@U?$pair@$$CBHI@std@@PEAX@std@@@std@@QEAAXPEAU?$pair@$$CBHI@1@AEBUpiecewise_construct_t@1@$$QEAV?$tuple@AEBH@1@$$QEAV?$tuple@$$V@1@@Z 0000000180006b00 f i game.obj
 0001:00005be0       ??$construct@U?$pair@$$CBHI@std@@AEBUpiecewise_construct_t@2@V?$tuple@AEBH@2@V?$tuple@$$V@2@@?$allocator_traits@V?$allocator@U?$_Tree_node@U?$pair@$$CBHI@std@@PEAX@std@@@std@@@std@@SAXAEAV?$allocator@U?$_Tree_node@U?$pair@$$CBHI@std@@PEAX@std@@@1@PEAU?$pair@$$CBHI@1@AEBUpiecewise_construct_t@1@$$QEAV?$tuple@AEBH@1@$$QEAV?$tuple@$$V@1@@Z 0000000180006be0 f i game.obj
 0001:00005c50       ??$construct@U?$pair@$$CBH_N@std@@AEBUpiecewise_construct_t@2@V?$tuple@AEBH@2@V?$tuple@$$V@2@@?$_Wrap_alloc@V?$allocator@U?$_Tree_node@U?$pair@$$CBH_N@std@@PEAX@std@@@std@@@std@@QEAAXPEAU?$pair@$$CBH_N@1@AEBUpiecewise_construct_t@1@$$QEAV?$tuple@AEBH@1@$$QEAV?$tuple@$$V@1@@Z 0000000180006c50 f i game.obj
 0001:00005cc0       ??$construct@U?$pair@$$CBH_N@std@@AEBUpiecewise_construct_t@2@V?$tuple@AEBH@2@V?$tuple@$$V@2@@?$allocator@U?$_Tree_node@U?$pair@$$CBH_N@std@@PEAX@std@@@std@@QEAAXPEAU?$pair@$$CBH_N@1@AEBUpiecewise_construct_t@1@$$QEAV?$tuple@AEBH@1@$$QEAV?$tuple@$$V@1@@Z 0000000180006cc0 f i game.obj
 0001:00005da0       ??$construct@U?$pair@$$CBH_N@std@@AEBUpiecewise_construct_t@2@V?$tuple@AEBH@2@V?$tuple@$$V@2@@?$allocator_traits@V?$allocator@U?$_Tree_node@U?$pair@$$CBH_N@std@@PEAX@std@@@std@@@std@@SAXAEAV?$allocator@U?$_Tree_node@U?$pair@$$CBH_N@std@@PEAX@std@@@1@PEAU?$pair@$$CBH_N@1@AEBUpiecewise_construct_t@1@$$QEAV?$tuple@AEBH@1@$$QEAV?$tuple@$$V@1@@Z 0000000180006da0 f i game.obj
 0001:00005e10       ??$destroy@U?$pair@$$CBH_N@std@@@?$_Wrap_alloc@V?$allocator@U?$_Tree_node@U?$pair@$$CBH_N@std@@PEAX@std@@@std@@@std@@QEAAXPEAU?$pair@$$CBH_N@1@@Z 0000000180006e10 f i game.obj
 0001:00005e10       ??$destroy@PEAU?$_Tree_node@U?$pair@$$CBH_N@std@@PEAX@std@@@?$_Wrap_alloc@V?$allocator@U?$_Tree_node@U?$pair@$$CBH_N@std@@PEAX@std@@@std@@@std@@QEAAXPEAPEAU?$_Tree_node@U?$pair@$$CBH_N@std@@PEAX@1@@Z 0000000180006e10 f i game.obj
 0001:00005e10       ??$destroy@PEAU?$_Tree_node@U?$pair@$$CBHI@std@@PEAX@std@@@?$_Wrap_alloc@V?$allocator@U?$_Tree_node@U?$pair@$$CBHI@std@@PEAX@std@@@std@@@std@@QEAAXPEAPEAU?$_Tree_node@U?$pair@$$CBHI@std@@PEAX@1@@Z 0000000180006e10 f i game.obj
 0001:00005e10       ??$destroy@U?$pair@$$CBHI@std@@@?$_Wrap_alloc@V?$allocator@U?$_Tree_node@U?$pair@$$CBHI@std@@PEAX@std@@@std@@@std@@QEAAXPEAU?$pair@$$CBHI@1@@Z 0000000180006e10 f i game.obj
 0001:00005e40       ?_Adopt@_Iterator_base0@std@@QEAAXPEBX@Z 0000000180006e40 f i game.obj
 0001:00005e40       ??$destroy@U?$pair@$$CBHI@std@@@?$allocator@U?$_Tree_node@U?$pair@$$CBHI@std@@PEAX@std@@@std@@QEAAXPEAU?$pair@$$CBHI@1@@Z 0000000180006e40 f i game.obj
 0001:00005e40       ??$destroy@PEAU?$_Tree_node@U?$pair@$$CBH_N@std@@PEAX@std@@@?$allocator@U?$_Tree_node@U?$pair@$$CBH_N@std@@PEAX@std@@@std@@QEAAXPEAPEAU?$_Tree_node@U?$pair@$$CBH_N@std@@PEAX@1@@Z 0000000180006e40 f i game.obj
 0001:00005e40       ??$destroy@PEAU?$_Tree_node@U?$pair@$$CBHI@std@@PEAX@std@@@?$allocator@U?$_Tree_node@U?$pair@$$CBHI@std@@PEAX@std@@@std@@QEAAXPEAPEAU?$_Tree_node@U?$pair@$$CBHI@std@@PEAX@1@@Z 0000000180006e40 f i game.obj
 0001:00005e40       ??3@YAXPEAX0@Z             0000000180006e40 f i game.obj
 0001:00005e40       ??$destroy@U?$pair@$$CBH_N@std@@@?$allocator@U?$_Tree_node@U?$pair@$$CBH_N@std@@PEAX@std@@@std@@QEAAXPEAU?$pair@$$CBH_N@1@@Z 0000000180006e40 f i game.obj
 0001:00005e50       ??$destroy@PEAU?$_Tree_node@U?$pair@$$CBHI@std@@PEAX@std@@@?$allocator_traits@V?$allocator@U?$_Tree_node@U?$pair@$$CBHI@std@@PEAX@std@@@std@@@std@@SAXAEAV?$allocator@U?$_Tree_node@U?$pair@$$CBHI@std@@PEAX@std@@@1@PEAPEAU?$_Tree_node@U?$pair@$$CBHI@std@@PEAX@1@@Z 0000000180006e50 f i game.obj
 0001:00005e50       ??$destroy@U?$pair@$$CBHI@std@@@?$allocator_traits@V?$allocator@U?$_Tree_node@U?$pair@$$CBHI@std@@PEAX@std@@@std@@@std@@SAXAEAV?$allocator@U?$_Tree_node@U?$pair@$$CBHI@std@@PEAX@std@@@1@PEAU?$pair@$$CBHI@1@@Z 0000000180006e50 f i game.obj
 0001:00005e50       ??$destroy@PEAU?$_Tree_node@U?$pair@$$CBH_N@std@@PEAX@std@@@?$allocator_traits@V?$allocator@U?$_Tree_node@U?$pair@$$CBH_N@std@@PEAX@std@@@std@@@std@@SAXAEAV?$allocator@U?$_Tree_node@U?$pair@$$CBH_N@std@@PEAX@std@@@1@PEAPEAU?$_Tree_node@U?$pair@$$CBH_N@std@@PEAX@1@@Z 0000000180006e50 f i game.obj
 0001:00005e50       ??$destroy@U?$pair@$$CBH_N@std@@@?$allocator_traits@V?$allocator@U?$_Tree_node@U?$pair@$$CBH_N@std@@PEAX@std@@@std@@@std@@SAXAEAV?$allocator@U?$_Tree_node@U?$pair@$$CBH_N@std@@PEAX@std@@@1@PEAU?$pair@$$CBH_N@1@@Z 0000000180006e50 f i game.obj
 0001:00005e80       ??$dot@M$0A@Utvec2@glm@@@glm@@YAMAEBU?$tvec2@M$0A@@0@0@Z 0000000180006e80 f i game.obj
 0001:00005eb0       ??$emplace_hint@AEBUpiecewise_construct_t@std@@V?$tuple@AEBH@2@V?$tuple@$$V@2@@?$_Tree@V?$_Tmap_traits@HIU?$less@H@std@@V?$allocator@U?$pair@$$CBHI@std@@@2@$0A@@std@@@std@@QEAA?AV?$_Tree_iterator@V?$_Tree_val@U?$_Tree_simple_types@U?$pair@$$CBHI@std@@@std@@@std@@@1@V?$_Tree_const_iterator@V?$_Tree_val@U?$_Tree_simple_types@U?$pair@$$CBHI@std@@@std@@@std@@@1@AEBUpiecewise_construct_t@1@$$QEAV?$tuple@AEBH@1@$$QEAV?$tuple@$$V@1@@Z 0000000180006eb0 f i game.obj
 0001:00005f50       ??$emplace_hint@AEBUpiecewise_construct_t@std@@V?$tuple@AEBH@2@V?$tuple@$$V@2@@?$_Tree@V?$_Tmap_traits@H_NU?$less@H@std@@V?$allocator@U?$pair@$$CBH_N@std@@@2@$0A@@std@@@std@@QEAA?AV?$_Tree_iterator@V?$_Tree_val@U?$_Tree_simple_types@U?$pair@$$CBH_N@std@@@std@@@std@@@1@V?$_Tree_const_iterator@V?$_Tree_val@U?$_Tree_simple_types@U?$pair@$$CBH_N@std@@@std@@@std@@@1@AEBUpiecewise_construct_t@1@$$QEAV?$tuple@AEBH@1@$$QEAV?$tuple@$$V@1@@Z 0000000180006f50 f i game.obj
 0001:00005ff0       ??$forward_as_tuple@$$V@std@@YA?AV?$tuple@$$V@0@XZ 0000000180006ff0 f i game.obj
 0001:00006010       ??$forward_as_tuple@AEBH@std@@YA?AV?$tuple@AEBH@0@AEBH@Z 0000000180007010 f i game.obj
 0001:00006050       ??$get@$0A@AEBH@std@@YAAEBH$$QEAV?$tuple@AEBH@0@@Z 0000000180007050 f i game.obj
 0001:00006070       ??$inverse@M$0A@Utmat4x4@glm@@@glm@@YA?AU?$tmat4x4@M$0A@@0@AEBU10@@Z 0000000180007070 f i game.obj
 0001:000060a0       ??$inversesqrt@M@glm@@YAMM@Z 00000001800070a0 f i game.obj
 0001:000060d0       ??$normalize@M$0A@Utvec2@glm@@@glm@@YA?AU?$tvec2@M$0A@@0@AEBU10@@Z 00000001800070d0 f i game.obj
 0001:00006100       ??$ortho@M@glm@@YA?AU?$tmat4x4@M$0A@@0@MMMMMM@Z 0000000180007100 f i game.obj
 0001:00006170       ??$orthoRH@M@glm@@YA?AU?$tmat4x4@M$0A@@0@MMMMMM@Z 0000000180007170 f i game.obj
 0001:000063f0       ??$translate@M$0A@@glm@@YA?AU?$tmat4x4@M$0A@@0@AEBU10@AEBU?$tvec3@M$0A@@0@@Z 00000001800073f0 f i game.obj
 0001:000065c0       ??$try_emplace@$$V@?$map@HIU?$less@H@std@@V?$allocator@U?$pair@$$CBHI@std@@@2@@std@@QEAA?AU?$pair@V?$_Tree_iterator@V?$_Tree_val@U?$_Tree_simple_types@U?$pair@$$CBHI@std@@@std@@@std@@@std@@_N@1@AEBH@Z 00000001800075c0 f i game.obj
 0001:00006600       ??$try_emplace@$$V@?$map@H_NU?$less@H@std@@V?$allocator@U?$pair@$$CBH_N@std@@@2@@std@@QEAA?AU?$pair@V?$_Tree_iterator@V?$_Tree_val@U?$_Tree_simple_types@U?$pair@$$CBH_N@std@@@std@@@std@@@std@@_N@1@AEBH@Z 0000000180007600 f i game.obj
 0001:00006640       ??$unProject@MM$0A@@glm@@YA?AU?$tvec3@M$0A@@0@AEBU10@AEBU?$tmat4x4@M$0A@@0@1AEBU?$tvec4@M$0A@@0@@Z 0000000180007640 f i game.obj
 0001:000067d0       ??0?$_Tree_const_iterator@V?$_Tree_val@U?$_Tree_simple_types@U?$pair@$$CBH_N@std@@@std@@@std@@@std@@QEAA@PEAU?$_Tree_node@U?$pair@$$CBH_N@std@@PEAX@1@PEBV?$_Tree_val@U?$_Tree_simple_types@U?$pair@$$CBH_N@std@@@std@@@1@@Z 00000001800077d0 f i game.obj
 0001:000067d0       ??0?$_Tree_const_iterator@V?$_Tree_val@U?$_Tree_simple_types@U?$pair@$$CBHI@std@@@std@@@std@@@std@@QEAA@PEAU?$_Tree_node@U?$pair@$$CBHI@std@@PEAX@1@PEBV?$_Tree_val@U?$_Tree_simple_types@U?$pair@$$CBHI@std@@@std@@@1@@Z 00000001800077d0 f i game.obj
 0001:00006810       ??0?$_Tree_const_iterator@V?$_Tree_val@U?$_Tree_simple_types@U?$pair@$$CBH_N@std@@@std@@@std@@@std@@QEAA@XZ 0000000180007810 f i game.obj
 0001:00006810       ??0?$_Tree_const_iterator@V?$_Tree_val@U?$_Tree_simple_types@U?$pair@$$CBHI@std@@@std@@@std@@@std@@QEAA@XZ 0000000180007810 f i game.obj
 0001:00006830       ??0?$_Tree_iterator@V?$_Tree_val@U?$_Tree_simple_types@U?$pair@$$CBH_N@std@@@std@@@std@@@std@@QEAA@PEAU?$_Tree_node@U?$pair@$$CBH_N@std@@PEAX@1@PEBV?$_Tree_val@U?$_Tree_simple_types@U?$pair@$$CBH_N@std@@@std@@@1@@Z 0000000180007830 f i game.obj
 0001:00006830       ??0?$_Tree_iterator@V?$_Tree_val@U?$_Tree_simple_types@U?$pair@$$CBHI@std@@@std@@@std@@@std@@QEAA@PEAU?$_Tree_node@U?$pair@$$CBHI@std@@PEAX@1@PEBV?$_Tree_val@U?$_Tree_simple_types@U?$pair@$$CBHI@std@@@std@@@1@@Z 0000000180007830 f i game.obj
 0001:00006870       ??0?$_Tree_unchecked_const_iterator@V?$_Tree_val@U?$_Tree_simple_types@U?$pair@$$CBH_N@std@@@std@@@std@@U_Iterator_base0@2@@std@@QEAA@XZ 0000000180007870 f i game.obj
 0001:00006870       ??0?$_Tree_unchecked_const_iterator@V?$_Tree_val@U?$_Tree_simple_types@U?$pair@$$CBHI@std@@@std@@@std@@U_Iterator_base0@2@@std@@QEAA@XZ 0000000180007870 f i game.obj
 0001:00006890       ??0?$_Tree_unchecked_const_iterator@V?$_Tree_val@U?$_Tree_simple_types@U?$pair@$$CBHI@std@@@std@@@std@@U_Iterator_base0@2@@std@@QEAA@PEAU?$_Tree_node@U?$pair@$$CBHI@std@@PEAX@1@PEBV?$_Tree_val@U?$_Tree_simple_types@U?$pair@$$CBHI@std@@@std@@@1@@Z 0000000180007890 f i game.obj
 0001:00006890       ??0?$_Tree_unchecked_const_iterator@V?$_Tree_val@U?$_Tree_simple_types@U?$pair@$$CBH_N@std@@@std@@@std@@U_Iterator_base0@2@@std@@QEAA@PEAU?$_Tree_node@U?$pair@$$CBH_N@std@@PEAX@1@PEBV?$_Tree_val@U?$_Tree_simple_types@U?$pair@$$CBH_N@std@@@std@@@1@@Z 0000000180007890 f i game.obj
 0001:000068d0       ??0?$tmat4x4@M$0A@@glm@@QEAA@AEBM@Z 00000001800078d0 f i game.obj
 0001:00006a20       ??0?$tmat4x4@M$0A@@glm@@QEAA@AEBU?$tvec4@M$0A@@1@000@Z 0000000180007a20 f i game.obj
 0001:00006ae0       ??0?$tmat4x4@M$0A@@glm@@QEAA@W4ctor@1@@Z 0000000180007ae0 f i game.obj
 0001:00006b20       ??0?$tuple@$$V@std@@QEAA@AEBV01@@Z 0000000180007b20 f i game.obj
 0001:00006b30       ??0?$tuple@AEBH@std@@QEAA@$$QEAV01@@Z 0000000180007b30 f i game.obj
 0001:00006b70       ??0?$tvec2@M$0A@@glm@@QEAA@MM@Z 0000000180007b70 f i game.obj
 0001:00006bb0       ??0?$tvec4@M$0A@@glm@@QEAA@M@Z 0000000180007bb0 f i game.obj
 0001:00006c00       ??0?$tvec4@M$0A@@glm@@QEAA@MMMM@Z 0000000180007c00 f i game.obj
 0001:00006c60       ??0?$tvec4@M$0A@@glm@@QEAA@XZ 0000000180007c60 f i game.obj
 0001:00006ca0       ??2@YAPEAX_KPEAX@Z         0000000180007ca0 f i game.obj
 0001:00006cb0       ??8?$_Tree_const_iterator@V?$_Tree_val@U?$_Tree_simple_types@U?$pair@$$CBHI@std@@@std@@@std@@@std@@QEBA_NAEBV01@@Z 0000000180007cb0 f i game.obj
 0001:00006cb0       ??8?$_Tree_const_iterator@V?$_Tree_val@U?$_Tree_simple_types@U?$pair@$$CBH_N@std@@@std@@@std@@@std@@QEBA_NAEBV01@@Z 0000000180007cb0 f i game.obj
 0001:00006cf0       ??A?$map@HIU?$less@H@std@@V?$allocator@U?$pair@$$CBHI@std@@@2@@std@@QEAAAEAIAEBH@Z 0000000180007cf0 f i game.obj
 0001:00006d30       ??A?$map@H_NU?$less@H@std@@V?$allocator@U?$pair@$$CBH_N@std@@@2@@std@@QEAAAEA_NAEBH@Z 0000000180007d30 f i game.obj
 0001:00006d70       ??A?$tmat4x4@M$0A@@glm@@QEAAAEAU?$tvec4@M$0A@@1@H@Z 0000000180007d70 f i game.obj
 0001:00006dc0       ??A?$tmat4x4@M$0A@@glm@@QEBAAEBU?$tvec4@M$0A@@1@H@Z 0000000180007dc0 f i game.obj
 0001:00006e10       ??A?$tvec3@M$0A@@glm@@QEBAAEBMH@Z 0000000180007e10 f i game.obj
 0001:00006e60       ??A?$tvec4@M$0A@@glm@@QEAAAEAMH@Z 0000000180007e60 f i game.obj
 0001:00006eb0       ??A?$tvec4@M$0A@@glm@@QEBAAEBMH@Z 0000000180007eb0 f i game.obj
 0001:00006f00       ??C?$_Tree_iterator@V?$_Tree_val@U?$_Tree_simple_types@U?$pair@$$CBH_N@std@@@std@@@std@@@std@@QEBAPEAU?$pair@$$CBH_N@1@XZ 0000000180007f00 f i game.obj
 0001:00006f00       ??C?$_Tree_iterator@V?$_Tree_val@U?$_Tree_simple_types@U?$pair@$$CBHI@std@@@std@@@std@@@std@@QEBAPEAU?$pair@$$CBHI@1@XZ 0000000180007f00 f i game.obj
 0001:00006f20       ??D?$_Tree_const_iterator@V?$_Tree_val@U?$_Tree_simple_types@U?$pair@$$CBH_N@std@@@std@@@std@@@std@@QEBAAEBU?$pair@$$CBH_N@1@XZ 0000000180007f20 f i game.obj
 0001:00006f20       ??D?$_Tree_const_iterator@V?$_Tree_val@U?$_Tree_simple_types@U?$pair@$$CBHI@std@@@std@@@std@@@std@@QEBAAEBU?$pair@$$CBHI@1@XZ 0000000180007f20 f i game.obj
 0001:00006f40       ??D?$_Tree_iterator@V?$_Tree_val@U?$_Tree_simple_types@U?$pair@$$CBH_N@std@@@std@@@std@@@std@@QEBAAEAU?$pair@$$CBH_N@1@XZ 0000000180007f40 f i game.obj
 0001:00006f40       ??D?$_Tree_iterator@V?$_Tree_val@U?$_Tree_simple_types@U?$pair@$$CBHI@std@@@std@@@std@@@std@@QEBAAEAU?$pair@$$CBHI@1@XZ 0000000180007f40 f i game.obj
 0001:00006f60       ??E?$_Tree_const_iterator@V?$_Tree_val@U?$_Tree_simple_types@U?$pair@$$CBH_N@std@@@std@@@std@@@std@@QEAAAEAV01@XZ 0000000180007f60 f i game.obj
 0001:00006f60       ??E?$_Tree_const_iterator@V?$_Tree_val@U?$_Tree_simple_types@U?$pair@$$CBHI@std@@@std@@@std@@@std@@QEAAAEAV01@XZ 0000000180007f60 f i game.obj
 0001:00006f80       ??E?$_Tree_unchecked_const_iterator@V?$_Tree_val@U?$_Tree_simple_types@U?$pair@$$CBHI@std@@@std@@@std@@U_Iterator_base0@2@@std@@QEAAAEAV01@XZ 0000000180007f80 f i game.obj
 0001:00006f80       ??E?$_Tree_unchecked_const_iterator@V?$_Tree_val@U?$_Tree_simple_types@U?$pair@$$CBH_N@std@@@std@@@std@@U_Iterator_base0@2@@std@@QEAAAEAV01@XZ 0000000180007f80 f i game.obj
 0001:00007040       ??F?$_Tree_const_iterator@V?$_Tree_val@U?$_Tree_simple_types@U?$pair@$$CBH_N@std@@@std@@@std@@@std@@QEAAAEAV01@XZ 0000000180008040 f i game.obj
 0001:00007040       ??F?$_Tree_const_iterator@V?$_Tree_val@U?$_Tree_simple_types@U?$pair@$$CBHI@std@@@std@@@std@@@std@@QEAAAEAV01@XZ 0000000180008040 f i game.obj
 0001:00007060       ??F?$_Tree_iterator@V?$_Tree_val@U?$_Tree_simple_types@U?$pair@$$CBH_N@std@@@std@@@std@@@std@@QEAAAEAV01@XZ 0000000180008060 f i game.obj
 0001:00007060       ??F?$_Tree_iterator@V?$_Tree_val@U?$_Tree_simple_types@U?$pair@$$CBHI@std@@@std@@@std@@@std@@QEAAAEAV01@XZ 0000000180008060 f i game.obj
 0001:00007080       ??F?$_Tree_unchecked_const_iterator@V?$_Tree_val@U?$_Tree_simple_types@U?$pair@$$CBH_N@std@@@std@@@std@@U_Iterator_base0@2@@std@@QEAAAEAV01@XZ 0000000180008080 f i game.obj
 0001:00007080       ??F?$_Tree_unchecked_const_iterator@V?$_Tree_val@U?$_Tree_simple_types@U?$pair@$$CBHI@std@@@std@@@std@@U_Iterator_base0@2@@std@@QEAAAEAV01@XZ 0000000180008080 f i game.obj
 0001:00007170       ??R?$less@H@std@@QEBA_NAEBH0@Z 0000000180008170 f i game.obj
 0001:000071b0       ??_H@YAXPEAX_K1P6APEAX0@Z@Z 00000001800081b0 f i game.obj
 0001:00007210       ?_Allocate@std@@YAPEAX_K0_N@Z 0000000180008210 f i game.obj
 0001:00007310       ?_Buynode0@?$_Tree_comp_alloc@V?$_Tmap_traits@HIU?$less@H@std@@V?$allocator@U?$pair@$$CBHI@std@@@2@$0A@@std@@@std@@QEAAPEAU?$_Tree_node@U?$pair@$$CBHI@std@@PEAX@2@XZ 0000000180008310 f i game.obj
 0001:00007460       ?_Buynode0@?$_Tree_comp_alloc@V?$_Tmap_traits@H_NU?$less@H@std@@V?$allocator@U?$pair@$$CBH_N@std@@@2@$0A@@std@@@std@@QEAAPEAU?$_Tree_node@U?$pair@$$CBH_N@std@@PEAX@2@XZ 0000000180008460 f i game.obj
 0001:000075b0       ?_Color@?$_Tree_comp_alloc@V?$_Tmap_traits@HIU?$less@H@std@@V?$allocator@U?$pair@$$CBHI@std@@@2@$0A@@std@@@std@@SAAEADPEAU?$_Tree_node@U?$pair@$$CBHI@std@@PEAX@2@@Z 00000001800085b0 f i game.obj
 0001:000075b0       ?_Color@?$_Tree_comp_alloc@V?$_Tmap_traits@H_NU?$less@H@std@@V?$allocator@U?$pair@$$CBH_N@std@@@2@$0A@@std@@@std@@SAAEADPEAU?$_Tree_node@U?$pair@$$CBH_N@std@@PEAX@2@@Z 00000001800085b0 f i game.obj
 0001:000075d0       ?_Color@?$_Tree_val@U?$_Tree_simple_types@U?$pair@$$CBHI@std@@@std@@@std@@SAAEADPEAU?$_Tree_node@U?$pair@$$CBHI@std@@PEAX@2@@Z 00000001800085d0 f i game.obj
 0001:000075d0       ?_Color@?$_Tree_val@U?$_Tree_simple_types@U?$pair@$$CBH_N@std@@@std@@@std@@SAAEADPEAU?$_Tree_node@U?$pair@$$CBH_N@std@@PEAX@2@@Z 00000001800085d0 f i game.obj
 0001:000075e0       ?_Compare@?$_Tree@V?$_Tmap_traits@HIU?$less@H@std@@V?$allocator@U?$pair@$$CBHI@std@@@2@$0A@@std@@@std@@IEBA_NAEBH0@Z 00000001800085e0 f i game.obj
 0001:000075e0       ?_Compare@?$_Tree@V?$_Tmap_traits@H_NU?$less@H@std@@V?$allocator@U?$pair@$$CBH_N@std@@@2@$0A@@std@@@std@@IEBA_NAEBH0@Z 00000001800085e0 f i game.obj
 0001:00007620       ?_Deallocate@std@@YAXPEAX_K1@Z 0000000180008620 f i game.obj
 0001:00007710       ?_Destroy_if_not_nil@?$_Tree@V?$_Tmap_traits@H_NU?$less@H@std@@V?$allocator@U?$pair@$$CBH_N@std@@@2@$0A@@std@@@std@@IEAAXPEAU?$_Tree_node@U?$pair@$$CBH_N@std@@PEAX@2@@Z 0000000180008710 f i game.obj
 0001:00007710       ?_Destroy_if_not_nil@?$_Tree@V?$_Tmap_traits@HIU?$less@H@std@@V?$allocator@U?$pair@$$CBHI@std@@@2@$0A@@std@@@std@@IEAAXPEAU?$_Tree_node@U?$pair@$$CBHI@std@@PEAX@2@@Z 0000000180008710 f i game.obj
 0001:00007780       ?_Freenode0@?$_Tree_comp_alloc@V?$_Tmap_traits@H_NU?$less@H@std@@V?$allocator@U?$pair@$$CBH_N@std@@@2@$0A@@std@@@std@@QEAAXPEAU?$_Tree_node@U?$pair@$$CBH_N@std@@PEAX@2@@Z 0000000180008780 f i game.obj
 0001:00007780       ?_Freenode0@?$_Tree_comp_alloc@V?$_Tmap_traits@HIU?$less@H@std@@V?$allocator@U?$pair@$$CBHI@std@@@2@$0A@@std@@@std@@QEAAXPEAU?$_Tree_node@U?$pair@$$CBHI@std@@PEAX@2@@Z 0000000180008780 f i game.obj
 0001:00007850       ?_Get_data@?$_Tree_comp_alloc@V?$_Tmap_traits@HIU?$less@H@std@@V?$allocator@U?$pair@$$CBHI@std@@@2@$0A@@std@@@std@@QEAAAEAV?$_Tree_val@U?$_Tree_simple_types@U?$pair@$$CBHI@std@@@std@@@2@XZ 0000000180008850 f i game.obj
 0001:00007850       ?_Getal@?$_Tree_comp_alloc@V?$_Tmap_traits@HIU?$less@H@std@@V?$allocator@U?$pair@$$CBHI@std@@@2@$0A@@std@@@std@@QEAAAEAU?$_Wrap_alloc@V?$allocator@U?$_Tree_node@U?$pair@$$CBHI@std@@PEAX@std@@@std@@@2@XZ 0000000180008850 f i game.obj
 0001:00007850       ?_Get_data@?$_Tree_comp_alloc@V?$_Tmap_traits@H_NU?$less@H@std@@V?$allocator@U?$pair@$$CBH_N@std@@@2@$0A@@std@@@std@@QEBAAEBV?$_Tree_val@U?$_Tree_simple_types@U?$pair@$$CBH_N@std@@@std@@@2@XZ 0000000180008850 f i game.obj
 0001:00007850       ?_Getal@?$_Tree_comp_alloc@V?$_Tmap_traits@H_NU?$less@H@std@@V?$allocator@U?$pair@$$CBH_N@std@@@2@$0A@@std@@@std@@QEBAAEBU?$_Wrap_alloc@V?$allocator@U?$_Tree_node@U?$pair@$$CBH_N@std@@PEAX@std@@@std@@@2@XZ 0000000180008850 f i game.obj
 0001:00007850       ?_Get_data@?$_Tree_comp_alloc@V?$_Tmap_traits@H_NU?$less@H@std@@V?$allocator@U?$pair@$$CBH_N@std@@@2@$0A@@std@@@std@@QEAAAEAV?$_Tree_val@U?$_Tree_simple_types@U?$pair@$$CBH_N@std@@@std@@@2@XZ 0000000180008850 f i game.obj
 0001:00007850       ?_Getal@?$_Tree_comp_alloc@V?$_Tmap_traits@HIU?$less@H@std@@V?$allocator@U?$pair@$$CBHI@std@@@2@$0A@@std@@@std@@QEBAAEBU?$_Wrap_alloc@V?$allocator@U?$_Tree_node@U?$pair@$$CBHI@std@@PEAX@std@@@std@@@2@XZ 0000000180008850 f i game.obj
 0001:00007850       ?_Get_data@?$_Tree_comp_alloc@V?$_Tmap_traits@HIU?$less@H@std@@V?$allocator@U?$pair@$$CBHI@std@@@2@$0A@@std@@@std@@QEBAAEBV?$_Tree_val@U?$_Tree_simple_types@U?$pair@$$CBHI@std@@@std@@@2@XZ 0000000180008850 f i game.obj
 0001:00007850       ?_Getal@?$_Tree_comp_alloc@V?$_Tmap_traits@H_NU?$less@H@std@@V?$allocator@U?$pair@$$CBH_N@std@@@2@$0A@@std@@@std@@QEAAAEAU?$_Wrap_alloc@V?$allocator@U?$_Tree_node@U?$pair@$$CBH_N@std@@PEAX@std@@@std@@@2@XZ 0000000180008850 f i game.obj
 0001:00007880       ?_Get_first@?$_Compressed_pair@U?$less@H@std@@V?$_Compressed_pair@U?$_Wrap_alloc@V?$allocator@U?$_Tree_node@U?$pair@$$CBH_N@std@@PEAX@std@@@std@@@std@@V?$_Tree_val@U?$_Tree_simple_types@U?$pair@$$CBH_N@std@@@std@@@2@$00@2@$00@std@@QEAAAEAU?$less@H@2@XZ 0000000180008880 f i game.obj
 0001:00007880       ??$forward@_N@std@@YA$$QEA_NAEA_N@Z 0000000180008880 f i game.obj
 0001:00007880       ?_Get_second@?$_Compressed_pair@U?$less@H@std@@V?$_Compressed_pair@U?$_Wrap_alloc@V?$allocator@U?$_Tree_node@U?$pair@$$CBH_N@std@@PEAX@std@@@std@@@std@@V?$_Tree_val@U?$_Tree_simple_types@U?$pair@$$CBH_N@std@@@std@@@2@$00@2@$00@std@@QEBAAEBV?$_Compressed_pair@U?$_Wrap_alloc@V?$allocator@U?$_Tree_node@U?$pair@$$CBH_N@std@@PEAX@std@@@std@@@std@@V?$_Tree_val@U?$_Tree_simple_types@U?$pair@$$CBH_N@std@@@std@@@2@$00@2@XZ 0000000180008880 f i game.obj
 0001:00007880       ??$addressof@U?$pair@$$CBH_N@std@@@std@@YAPEAU?$pair@$$CBH_N@0@AEAU10@@Z 0000000180008880 f i game.obj
 0001:00007880       ?_Get_first@?$_Compressed_pair@U?$less@H@std@@V?$_Compressed_pair@U?$_Wrap_alloc@V?$allocator@U?$_Tree_node@U?$pair@$$CBHI@std@@PEAX@std@@@std@@@std@@V?$_Tree_val@U?$_Tree_simple_types@U?$pair@$$CBHI@std@@@std@@@2@$00@2@$00@std@@QEBAAEBU?$less@H@2@XZ 0000000180008880 f i game.obj
 0001:00007880       ?_Get_first@?$_Compressed_pair@U?$_Wrap_alloc@V?$allocator@U?$_Tree_node@U?$pair@$$CBHI@std@@PEAX@std@@@std@@@std@@V?$_Tree_val@U?$_Tree_simple_types@U?$pair@$$CBHI@std@@@std@@@2@$00@std@@QEBAAEBU?$_Wrap_alloc@V?$allocator@U?$_Tree_node@U?$pair@$$CBHI@std@@PEAX@std@@@std@@@2@XZ 0000000180008880 f i game.obj
 0001:00007880       ??$addressof@U?$pair@$$CBHI@std@@@std@@YAPEAU?$pair@$$CBHI@0@AEAU10@@Z 0000000180008880 f i game.obj
 0001:00007880       ??$addressof@PEAU?$_Tree_node@U?$pair@$$CBH_N@std@@PEAX@std@@@std@@YAPEAPEAU?$_Tree_node@U?$pair@$$CBH_N@std@@PEAX@0@AEAPEAU10@@Z 0000000180008880 f i game.obj
 0001:00007880       ??$_Kfn@$$CBH_N@?$_Tmap_traits@H_NU?$less@H@std@@V?$allocator@U?$pair@$$CBH_N@std@@@2@$0A@@std@@SAAEBHAEBU?$pair@$$CBH_N@1@@Z 0000000180008880 f i game.obj
 0001:00007880       ??$forward@V?$_Tree_iterator@V?$_Tree_val@U?$_Tree_simple_types@U?$pair@$$CBH_N@std@@@std@@@std@@@std@@@std@@YA$$QEAV?$_Tree_iterator@V?$_Tree_val@U?$_Tree_simple_types@U?$pair@$$CBH_N@std@@@std@@@std@@@0@AEAV10@@Z 0000000180008880 f i game.obj
 0001:00007880       ?_Get_second@?$_Compressed_pair@U?$less@H@std@@V?$_Compressed_pair@U?$_Wrap_alloc@V?$allocator@U?$_Tree_node@U?$pair@$$CBHI@std@@PEAX@std@@@std@@@std@@V?$_Tree_val@U?$_Tree_simple_types@U?$pair@$$CBHI@std@@@std@@@2@$00@2@$00@std@@QEAAAEAV?$_Compressed_pair@U?$_Wrap_alloc@V?$allocator@U?$_Tree_node@U?$pair@$$CBHI@std@@PEAX@std@@@std@@@std@@V?$_Tree_val@U?$_Tree_simple_types@U?$pair@$$CBHI@std@@@std@@@2@$00@2@XZ 0000000180008880 f i game.obj
 0001:00007880       ??$forward@AEBUpiecewise_construct_t@std@@@std@@YAAEBUpiecewise_construct_t@0@AEBU10@@Z 0000000180008880 f i game.obj
 0001:00007880       ?_Get_second@?$_Compressed_pair@U?$_Wrap_alloc@V?$allocator@U?$_Tree_node@U?$pair@$$CBH_N@std@@PEAX@std@@@std@@@std@@V?$_Tree_val@U?$_Tree_simple_types@U?$pair@$$CBH_N@std@@@std@@@2@$00@std@@QEBAAEBV?$_Tree_val@U?$_Tree_simple_types@U?$pair@$$CBH_N@std@@@std@@@2@XZ 0000000180008880 f i game.obj
 0001:00007880       ??$forward@V?$_Tree_iterator@V?$_Tree_val@U?$_Tree_simple_types@U?$pair@$$CBHI@std@@@std@@@std@@@std@@@std@@YA$$QEAV?$_Tree_iterator@V?$_Tree_val@U?$_Tree_simple_types@U?$pair@$$CBHI@std@@@std@@@std@@@0@AEAV10@@Z 0000000180008880 f i game.obj
 0001:00007880       ?_Get_second@?$_Compressed_pair@U?$_Wrap_alloc@V?$allocator@U?$_Tree_node@U?$pair@$$CBHI@std@@PEAX@std@@@std@@@std@@V?$_Tree_val@U?$_Tree_simple_types@U?$pair@$$CBHI@std@@@std@@@2@$00@std@@QEBAAEBV?$_Tree_val@U?$_Tree_simple_types@U?$pair@$$CBHI@std@@@std@@@2@XZ 0000000180008880 f i game.obj
 0001:00007880       ?_Get_second@?$_Compressed_pair@U?$_Wrap_alloc@V?$allocator@U?$_Tree_node@U?$pair@$$CBHI@std@@PEAX@std@@@std@@@std@@V?$_Tree_val@U?$_Tree_simple_types@U?$pair@$$CBHI@std@@@std@@@2@$00@std@@QEAAAEAV?$_Tree_val@U?$_Tree_simple_types@U?$pair@$$CBHI@std@@@std@@@2@XZ 0000000180008880 f i game.obj
 0001:00007880       ??$forward@AEAU?$pair@$$CBH_N@std@@@std@@YAAEAU?$pair@$$CBH_N@0@AEAU10@@Z 0000000180008880 f i game.obj
 0001:00007880       ?_Get_first@?$_Compressed_pair@U?$less@H@std@@V?$_Compressed_pair@U?$_Wrap_alloc@V?$allocator@U?$_Tree_node@U?$pair@$$CBHI@std@@PEAX@std@@@std@@@std@@V?$_Tree_val@U?$_Tree_simple_types@U?$pair@$$CBHI@std@@@std@@@2@$00@2@$00@std@@QEAAAEAU?$less@H@2@XZ 0000000180008880 f i game.obj
 0001:00007880       ??$forward@V?$tuple@$$V@std@@@std@@YA$$QEAV?$tuple@$$V@0@AEAV10@@Z 0000000180008880 f i game.obj
 0001:00007880       ?_Get_first@?$_Compressed_pair@U?$less@H@std@@V?$_Compressed_pair@U?$_Wrap_alloc@V?$allocator@U?$_Tree_node@U?$pair@$$CBH_N@std@@PEAX@std@@@std@@@std@@V?$_Tree_val@U?$_Tree_simple_types@U?$pair@$$CBH_N@std@@@std@@@2@$00@2@$00@std@@QEBAAEBU?$less@H@2@XZ 0000000180008880 f i game.obj
 0001:00007880       ?_Get_second@?$_Compressed_pair@U?$less@H@std@@V?$_Compressed_pair@U?$_Wrap_alloc@V?$allocator@U?$_Tree_node@U?$pair@$$CBH_N@std@@PEAX@std@@@std@@@std@@V?$_Tree_val@U?$_Tree_simple_types@U?$pair@$$CBH_N@std@@@std@@@2@$00@2@$00@std@@QEAAAEAV?$_Compressed_pair@U?$_Wrap_alloc@V?$allocator@U?$_Tree_node@U?$pair@$$CBH_N@std@@PEAX@std@@@std@@@std@@V?$_Tree_val@U?$_Tree_simple_types@U?$pair@$$CBH_N@std@@@std@@@2@$00@2@XZ 0000000180008880 f i game.obj
 0001:00007880       ?_Get_second@?$_Compressed_pair@U?$_Wrap_alloc@V?$allocator@U?$_Tree_node@U?$pair@$$CBH_N@std@@PEAX@std@@@std@@@std@@V?$_Tree_val@U?$_Tree_simple_types@U?$pair@$$CBH_N@std@@@std@@@2@$00@std@@QEAAAEAV?$_Tree_val@U?$_Tree_simple_types@U?$pair@$$CBH_N@std@@@std@@@2@XZ 0000000180008880 f i game.obj
 0001:00007880       ??$forward@AEAV?$_Tree_iterator@V?$_Tree_val@U?$_Tree_simple_types@U?$pair@$$CBH_N@std@@@std@@@std@@@std@@@std@@YAAEAV?$_Tree_iterator@V?$_Tree_val@U?$_Tree_simple_types@U?$pair@$$CBH_N@std@@@std@@@std@@@0@AEAV10@@Z 0000000180008880 f i game.obj
 0001:00007880       ??$forward@AEAU?$pair@$$CBHI@std@@@std@@YAAEAU?$pair@$$CBHI@0@AEAU10@@Z 0000000180008880 f i game.obj
 0001:00007880       ?_Get_first@?$_Compressed_pair@U?$_Wrap_alloc@V?$allocator@U?$_Tree_node@U?$pair@$$CBHI@std@@PEAX@std@@@std@@@std@@V?$_Tree_val@U?$_Tree_simple_types@U?$pair@$$CBHI@std@@@std@@@2@$00@std@@QEAAAEAU?$_Wrap_alloc@V?$allocator@U?$_Tree_node@U?$pair@$$CBHI@std@@PEAX@std@@@std@@@2@XZ 0000000180008880 f i game.obj
 0001:00007880       ??$forward@V?$tuple@AEBH@std@@@std@@YA$$QEAV?$tuple@AEBH@0@AEAV10@@Z 0000000180008880 f i game.obj
 0001:00007880       ?_Left@?$_Tree_val@U?$_Tree_simple_types@U?$pair@$$CBHI@std@@@std@@@std@@SAAEAPEAU?$_Tree_node@U?$pair@$$CBHI@std@@PEAX@2@PEAU32@@Z 0000000180008880 f i game.obj
 0001:00007880       ??$_Kfn@$$CBHI@?$_Tmap_traits@HIU?$less@H@std@@V?$allocator@U?$pair@$$CBHI@std@@@2@$0A@@std@@SAAEBHAEBU?$pair@$$CBHI@1@@Z 0000000180008880 f i game.obj
 0001:00007880       ?_Get_first@?$_Compressed_pair@U?$_Wrap_alloc@V?$allocator@U?$_Tree_node@U?$pair@$$CBH_N@std@@PEAX@std@@@std@@@std@@V?$_Tree_val@U?$_Tree_simple_types@U?$pair@$$CBH_N@std@@@std@@@2@$00@std@@QEBAAEBU?$_Wrap_alloc@V?$allocator@U?$_Tree_node@U?$pair@$$CBH_N@std@@PEAX@std@@@std@@@2@XZ 0000000180008880 f i game.obj
 0001:00007880       ??$addressof@PEAU?$_Tree_node@U?$pair@$$CBHI@std@@PEAX@std@@@std@@YAPEAPEAU?$_Tree_node@U?$pair@$$CBHI@std@@PEAX@0@AEAPEAU10@@Z 0000000180008880 f i game.obj
 0001:00007880       ??$forward@AEBH@std@@YAAEBHAEBH@Z 0000000180008880 f i game.obj
 0001:00007880       ?_Get_second@?$_Compressed_pair@U?$less@H@std@@V?$_Compressed_pair@U?$_Wrap_alloc@V?$allocator@U?$_Tree_node@U?$pair@$$CBHI@std@@PEAX@std@@@std@@@std@@V?$_Tree_val@U?$_Tree_simple_types@U?$pair@$$CBHI@std@@@std@@@2@$00@2@$00@std@@QEBAAEBV?$_Compressed_pair@U?$_Wrap_alloc@V?$allocator@U?$_Tree_node@U?$pair@$$CBHI@std@@PEAX@std@@@std@@@std@@V?$_Tree_val@U?$_Tree_simple_types@U?$pair@$$CBHI@std@@@std@@@2@$00@2@XZ 0000000180008880 f i game.obj
 0001:00007880       ?_Get_first@?$_Compressed_pair@U?$_Wrap_alloc@V?$allocator@U?$_Tree_node@U?$pair@$$CBH_N@std@@PEAX@std@@@std@@@std@@V?$_Tree_val@U?$_Tree_simple_types@U?$pair@$$CBH_N@std@@@std@@@2@$00@std@@QEAAAEAU?$_Wrap_alloc@V?$allocator@U?$_Tree_node@U?$pair@$$CBH_N@std@@PEAX@std@@@std@@@2@XZ 0000000180008880 f i game.obj
 0001:00007880       ??$forward@AEAV?$_Tree_iterator@V?$_Tree_val@U?$_Tree_simple_types@U?$pair@$$CBHI@std@@@std@@@std@@@std@@@std@@YAAEAV?$_Tree_iterator@V?$_Tree_val@U?$_Tree_simple_types@U?$pair@$$CBHI@std@@@std@@@std@@@0@AEAV10@@Z 0000000180008880 f i game.obj
 0001:00007880       ?_Left@?$_Tree_val@U?$_Tree_simple_types@U?$pair@$$CBH_N@std@@@std@@@std@@SAAEAPEAU?$_Tree_node@U?$pair@$$CBH_N@std@@PEAX@2@PEAU32@@Z 0000000180008880 f i game.obj
 0001:00007880       ??$move@AEAV?$tuple@AEBH@std@@@std@@YA$$QEAV?$tuple@AEBH@0@AEAV10@@Z 0000000180008880 f i game.obj
 0001:00007880       ??$forward@AEAPEAU?$_Tree_node@U?$pair@$$CBH_N@std@@PEAX@std@@@std@@YAAEAPEAU?$_Tree_node@U?$pair@$$CBH_N@std@@PEAX@0@AEAPEAU10@@Z 0000000180008880 f i game.obj
 0001:00007880       ??$forward@AEAPEAU?$_Tree_node@U?$pair@$$CBHI@std@@PEAX@std@@@std@@YAAEAPEAU?$_Tree_node@U?$pair@$$CBHI@std@@PEAX@0@AEAPEAU10@@Z 0000000180008880 f i game.obj
 0001:00007880       ??0?$tuple@$$V@std@@QEAA@XZ 0000000180008880 f i game.obj
 0001:00007890       ?_Getcomp@?$_Tree_comp_alloc@V?$_Tmap_traits@H_NU?$less@H@std@@V?$allocator@U?$pair@$$CBH_N@std@@@2@$0A@@std@@@std@@QEBAAEBU?$less@H@2@XZ 0000000180008890 f i game.obj
 0001:00007890       ?_Getcomp@?$_Tree_comp_alloc@V?$_Tmap_traits@HIU?$less@H@std@@V?$allocator@U?$pair@$$CBHI@std@@@2@$0A@@std@@@std@@QEBAAEBU?$less@H@2@XZ 0000000180008890 f i game.obj
 0001:00007890       ?_Getcomp@?$_Tree_comp_alloc@V?$_Tmap_traits@H_NU?$less@H@std@@V?$allocator@U?$pair@$$CBH_N@std@@@2@$0A@@std@@@std@@QEAAAEAU?$less@H@2@XZ 0000000180008890 f i game.obj
 0001:00007890       ?_Getcomp@?$_Tree_comp_alloc@V?$_Tmap_traits@HIU?$less@H@std@@V?$allocator@U?$pair@$$CBHI@std@@@2@$0A@@std@@@std@@QEAAAEAU?$less@H@2@XZ 0000000180008890 f i game.obj
 0001:000078b0       ?_Isnil@?$_Tree_comp_alloc@V?$_Tmap_traits@H_NU?$less@H@std@@V?$allocator@U?$pair@$$CBH_N@std@@@2@$0A@@std@@@std@@SAAEADPEAU?$_Tree_node@U?$pair@$$CBH_N@std@@PEAX@2@@Z 00000001800088b0 f i game.obj
 0001:000078b0       ?_Isnil@?$_Tree_comp_alloc@V?$_Tmap_traits@HIU?$less@H@std@@V?$allocator@U?$pair@$$CBHI@std@@@2@$0A@@std@@@std@@SAAEADPEAU?$_Tree_node@U?$pair@$$CBHI@std@@PEAX@2@@Z 00000001800088b0 f i game.obj
 0001:000078d0       ?_Isnil@?$_Tree_val@U?$_Tree_simple_types@U?$pair@$$CBHI@std@@@std@@@std@@SAAEADPEAU?$_Tree_node@U?$pair@$$CBHI@std@@PEAX@2@@Z 00000001800088d0 f i game.obj
 0001:000078d0       ?_Isnil@?$_Tree_val@U?$_Tree_simple_types@U?$pair@$$CBH_N@std@@@std@@@std@@SAAEADPEAU?$_Tree_node@U?$pair@$$CBH_N@std@@PEAX@2@@Z 00000001800088d0 f i game.obj
 0001:000078e0       ?_Key@?$_Tree@V?$_Tmap_traits@H_NU?$less@H@std@@V?$allocator@U?$pair@$$CBH_N@std@@@2@$0A@@std@@@std@@IEBAAEBHPEAU?$_Tree_node@U?$pair@$$CBH_N@std@@PEAX@2@@Z 00000001800088e0 f i game.obj
 0001:000078e0       ?_Key@?$_Tree@V?$_Tmap_traits@HIU?$less@H@std@@V?$allocator@U?$pair@$$CBHI@std@@@2@$0A@@std@@@std@@IEBAAEBHPEAU?$_Tree_node@U?$pair@$$CBHI@std@@PEAX@2@@Z 00000001800088e0 f i game.obj
 0001:00007910       ?_Kfn@?$_Tree@V?$_Tmap_traits@HIU?$less@H@std@@V?$allocator@U?$pair@$$CBHI@std@@@2@$0A@@std@@@std@@IEBAAEBHAEBU?$pair@$$CBHI@2@@Z 0000000180008910 f i game.obj
 0001:00007910       ?_Kfn@?$_Tree@V?$_Tmap_traits@H_NU?$less@H@std@@V?$allocator@U?$pair@$$CBH_N@std@@@2@$0A@@std@@@std@@IEBAAEBHAEBU?$pair@$$CBH_N@2@@Z 0000000180008910 f i game.obj
 0001:00007930       ?_Lmost@?$_Tree@V?$_Tmap_traits@HIU?$less@H@std@@V?$allocator@U?$pair@$$CBHI@std@@@2@$0A@@std@@@std@@IEBAAEAPEAU?$_Tree_node@U?$pair@$$CBHI@std@@PEAX@2@XZ 0000000180008930 f i game.obj
 0001:00007930       ?_Lmost@?$_Tree@V?$_Tmap_traits@H_NU?$less@H@std@@V?$allocator@U?$pair@$$CBH_N@std@@@2@$0A@@std@@@std@@IEBAAEAPEAU?$_Tree_node@U?$pair@$$CBH_N@std@@PEAX@2@XZ 0000000180008930 f i game.obj
 0001:00007950       ?_Lrotate@?$_Tree@V?$_Tmap_traits@HIU?$less@H@std@@V?$allocator@U?$pair@$$CBHI@std@@@2@$0A@@std@@@std@@IEAAXPEAU?$_Tree_node@U?$pair@$$CBHI@std@@PEAX@2@@Z 0000000180008950 f i game.obj
 0001:00007950       ?_Lrotate@?$_Tree@V?$_Tmap_traits@H_NU?$less@H@std@@V?$allocator@U?$pair@$$CBH_N@std@@@2@$0A@@std@@@std@@IEAAXPEAU?$_Tree_node@U?$pair@$$CBH_N@std@@PEAX@2@@Z 0000000180008950 f i game.obj
 0001:00007a90       ?_Max@?$_Tree_val@U?$_Tree_simple_types@U?$pair@$$CBH_N@std@@@std@@@std@@SAPEAU?$_Tree_node@U?$pair@$$CBH_N@std@@PEAX@2@PEAU32@@Z 0000000180008a90 f i game.obj
 0001:00007a90       ?_Max@?$_Tree_val@U?$_Tree_simple_types@U?$pair@$$CBHI@std@@@std@@@std@@SAPEAU?$_Tree_node@U?$pair@$$CBHI@std@@PEAX@2@PEAU32@@Z 0000000180008a90 f i game.obj
 0001:00007ad0       ?_Min@?$_Tree_val@U?$_Tree_simple_types@U?$pair@$$CBH_N@std@@@std@@@std@@SAPEAU?$_Tree_node@U?$pair@$$CBH_N@std@@PEAX@2@PEAU32@@Z 0000000180008ad0 f i game.obj
 0001:00007ad0       ?_Min@?$_Tree_val@U?$_Tree_simple_types@U?$pair@$$CBHI@std@@@std@@@std@@SAPEAU?$_Tree_node@U?$pair@$$CBHI@std@@PEAX@2@PEAU32@@Z 0000000180008ad0 f i game.obj
 0001:00007b10       ?_Myhead@?$_Tree_comp_alloc@V?$_Tmap_traits@H_NU?$less@H@std@@V?$allocator@U?$pair@$$CBH_N@std@@@2@$0A@@std@@@std@@QEBAAEBQEAU?$_Tree_node@U?$pair@$$CBH_N@std@@PEAX@2@XZ 0000000180008b10 f i game.obj
 0001:00007b10       ?_Myhead@?$_Tree_comp_alloc@V?$_Tmap_traits@HIU?$less@H@std@@V?$allocator@U?$pair@$$CBHI@std@@@2@$0A@@std@@@std@@QEBAAEBQEAU?$_Tree_node@U?$pair@$$CBHI@std@@PEAX@2@XZ 0000000180008b10 f i game.obj
 0001:00007b10       ?_Myhead@?$_Tree_comp_alloc@V?$_Tmap_traits@H_NU?$less@H@std@@V?$allocator@U?$pair@$$CBH_N@std@@@2@$0A@@std@@@std@@QEAAAEAPEAU?$_Tree_node@U?$pair@$$CBH_N@std@@PEAX@2@XZ 0000000180008b10 f i game.obj
 0001:00007b10       ?_Myhead@?$_Tree_comp_alloc@V?$_Tmap_traits@HIU?$less@H@std@@V?$allocator@U?$pair@$$CBHI@std@@@2@$0A@@std@@@std@@QEAAAEAPEAU?$_Tree_node@U?$pair@$$CBHI@std@@PEAX@2@XZ 0000000180008b10 f i game.obj
 0001:00007b30       ?_Mynode@?$_Tree_unchecked_const_iterator@V?$_Tree_val@U?$_Tree_simple_types@U?$pair@$$CBH_N@std@@@std@@@std@@U_Iterator_base0@2@@std@@QEBAPEAU?$_Tree_node@U?$pair@$$CBH_N@std@@PEAX@2@XZ 0000000180008b30 f i game.obj
 0001:00007b30       ?_Mynode@?$_Tree_unchecked_const_iterator@V?$_Tree_val@U?$_Tree_simple_types@U?$pair@$$CBHI@std@@@std@@@std@@U_Iterator_base0@2@@std@@QEBAPEAU?$_Tree_node@U?$pair@$$CBHI@std@@PEAX@2@XZ 0000000180008b30 f i game.obj
 0001:00007b40       ?_Mysize@?$_Tree_comp_alloc@V?$_Tmap_traits@H_NU?$less@H@std@@V?$allocator@U?$pair@$$CBH_N@std@@@2@$0A@@std@@@std@@QEBAAEB_KXZ 0000000180008b40 f i game.obj
 0001:00007b40       ?_Mysize@?$_Tree_comp_alloc@V?$_Tmap_traits@HIU?$less@H@std@@V?$allocator@U?$pair@$$CBHI@std@@@2@$0A@@std@@@std@@QEAAAEA_KXZ 0000000180008b40 f i game.obj
 0001:00007b40       ?_Mysize@?$_Tree_comp_alloc@V?$_Tmap_traits@HIU?$less@H@std@@V?$allocator@U?$pair@$$CBHI@std@@@2@$0A@@std@@@std@@QEBAAEB_KXZ 0000000180008b40 f i game.obj
 0001:00007b40       ?_Mysize@?$_Tree_comp_alloc@V?$_Tmap_traits@H_NU?$less@H@std@@V?$allocator@U?$pair@$$CBH_N@std@@@2@$0A@@std@@@std@@QEAAAEA_KXZ 0000000180008b40 f i game.obj
 0001:00007b60       ?_Myval@?$_Tree_comp_alloc@V?$_Tmap_traits@HIU?$less@H@std@@V?$allocator@U?$pair@$$CBHI@std@@@2@$0A@@std@@@std@@SAAEAU?$pair@$$CBHI@2@PEAU?$_Tree_node@U?$pair@$$CBHI@std@@PEAX@2@@Z 0000000180008b60 f i game.obj
 0001:00007b60       ?_Myval@?$_Tree_comp_alloc@V?$_Tmap_traits@H_NU?$less@H@std@@V?$allocator@U?$pair@$$CBH_N@std@@@2@$0A@@std@@@std@@SAAEAU?$pair@$$CBH_N@2@PEAU?$_Tree_node@U?$pair@$$CBH_N@std@@PEAX@2@@Z 0000000180008b60 f i game.obj
 0001:00007b80       ?_Myval@?$_Tree_val@U?$_Tree_simple_types@U?$pair@$$CBHI@std@@@std@@@std@@SAAEAU?$pair@$$CBHI@2@PEAU?$_Tree_node@U?$pair@$$CBHI@std@@PEAX@2@@Z 0000000180008b80 f i game.obj
 0001:00007b80       ?_Myval@?$_Tree_val@U?$_Tree_simple_types@U?$pair@$$CBH_N@std@@@std@@@std@@SAAEAU?$pair@$$CBH_N@2@PEAU?$_Tree_node@U?$pair@$$CBH_N@std@@PEAX@2@@Z 0000000180008b80 f i game.obj
 0001:00007b90       ?_Parent@?$_Tree_comp_alloc@V?$_Tmap_traits@H_NU?$less@H@std@@V?$allocator@U?$pair@$$CBH_N@std@@@2@$0A@@std@@@std@@SAAEAPEAU?$_Tree_node@U?$pair@$$CBH_N@std@@PEAX@2@PEAU32@@Z 0000000180008b90 f i game.obj
 0001:00007b90       ?_Parent@?$_Tree_comp_alloc@V?$_Tmap_traits@HIU?$less@H@std@@V?$allocator@U?$pair@$$CBHI@std@@@2@$0A@@std@@@std@@SAAEAPEAU?$_Tree_node@U?$pair@$$CBHI@std@@PEAX@2@PEAU32@@Z 0000000180008b90 f i game.obj
 0001:00007bb0       ?_Parent@?$_Tree_val@U?$_Tree_simple_types@U?$pair@$$CBHI@std@@@std@@@std@@SAAEAPEAU?$_Tree_node@U?$pair@$$CBHI@std@@PEAX@2@PEAU32@@Z 0000000180008bb0 f i game.obj
 0001:00007bb0       ?_Parent@?$_Tree_val@U?$_Tree_simple_types@U?$pair@$$CBH_N@std@@@std@@@std@@SAAEAPEAU?$_Tree_node@U?$pair@$$CBH_N@std@@PEAX@2@PEAU32@@Z 0000000180008bb0 f i game.obj
 0001:00007bc0       ?_Right@?$_Tree_comp_alloc@V?$_Tmap_traits@H_NU?$less@H@std@@V?$allocator@U?$pair@$$CBH_N@std@@@2@$0A@@std@@@std@@SAAEAPEAU?$_Tree_node@U?$pair@$$CBH_N@std@@PEAX@2@PEAU32@@Z 0000000180008bc0 f i game.obj
 0001:00007bc0       ?_Right@?$_Tree_comp_alloc@V?$_Tmap_traits@HIU?$less@H@std@@V?$allocator@U?$pair@$$CBHI@std@@@2@$0A@@std@@@std@@SAAEAPEAU?$_Tree_node@U?$pair@$$CBHI@std@@PEAX@2@PEAU32@@Z 0000000180008bc0 f i game.obj
 0001:00007be0       ?_Right@?$_Tree_val@U?$_Tree_simple_types@U?$pair@$$CBHI@std@@@std@@@std@@SAAEAPEAU?$_Tree_node@U?$pair@$$CBHI@std@@PEAX@2@PEAU32@@Z 0000000180008be0 f i game.obj
 0001:00007be0       ?_Right@?$_Tree_val@U?$_Tree_simple_types@U?$pair@$$CBH_N@std@@@std@@@std@@SAAEAPEAU?$_Tree_node@U?$pair@$$CBH_N@std@@PEAX@2@PEAU32@@Z 0000000180008be0 f i game.obj
 0001:00007bf0       ?_Rmost@?$_Tree@V?$_Tmap_traits@H_NU?$less@H@std@@V?$allocator@U?$pair@$$CBH_N@std@@@2@$0A@@std@@@std@@IEBAAEAPEAU?$_Tree_node@U?$pair@$$CBH_N@std@@PEAX@2@XZ 0000000180008bf0 f i game.obj
 0001:00007bf0       ?_Rmost@?$_Tree@V?$_Tmap_traits@HIU?$less@H@std@@V?$allocator@U?$pair@$$CBHI@std@@@2@$0A@@std@@@std@@IEBAAEAPEAU?$_Tree_node@U?$pair@$$CBHI@std@@PEAX@2@XZ 0000000180008bf0 f i game.obj
 0001:00007c10       ?_Root@?$_Tree@V?$_Tmap_traits@HIU?$less@H@std@@V?$allocator@U?$pair@$$CBHI@std@@@2@$0A@@std@@@std@@IEBAAEAPEAU?$_Tree_node@U?$pair@$$CBHI@std@@PEAX@2@XZ 0000000180008c10 f i game.obj
 0001:00007c10       ?_Root@?$_Tree@V?$_Tmap_traits@H_NU?$less@H@std@@V?$allocator@U?$pair@$$CBH_N@std@@@2@$0A@@std@@@std@@IEBAAEAPEAU?$_Tree_node@U?$pair@$$CBH_N@std@@PEAX@2@XZ 0000000180008c10 f i game.obj
 0001:00007c30       ?_Rrotate@?$_Tree@V?$_Tmap_traits@HIU?$less@H@std@@V?$allocator@U?$pair@$$CBHI@std@@@2@$0A@@std@@@std@@IEAAXPEAU?$_Tree_node@U?$pair@$$CBHI@std@@PEAX@2@@Z 0000000180008c30 f i game.obj
 0001:00007c30       ?_Rrotate@?$_Tree@V?$_Tmap_traits@H_NU?$less@H@std@@V?$allocator@U?$pair@$$CBH_N@std@@@2@$0A@@std@@@std@@IEAAXPEAU?$_Tree_node@U?$pair@$$CBH_N@std@@PEAX@2@@Z 0000000180008c30 f i game.obj
 0001:00007d70       ?allocate@?$_Wrap_alloc@V?$allocator@U?$_Tree_node@U?$pair@$$CBHI@std@@PEAX@std@@@std@@@std@@QEAAPEAU?$_Tree_node@U?$pair@$$CBHI@std@@PEAX@2@_K@Z 0000000180008d70 f i game.obj
 0001:00007d70       ?allocate@?$_Wrap_alloc@V?$allocator@U?$_Tree_node@U?$pair@$$CBH_N@std@@PEAX@std@@@std@@@std@@QEAAPEAU?$_Tree_node@U?$pair@$$CBH_N@std@@PEAX@2@_K@Z 0000000180008d70 f i game.obj
 0001:00007da0       ?allocate@?$allocator@U?$_Tree_node@U?$pair@$$CBH_N@std@@PEAX@std@@@std@@QEAAPEAU?$_Tree_node@U?$pair@$$CBH_N@std@@PEAX@2@_K@Z 0000000180008da0 f i game.obj
 0001:00007da0       ?allocate@?$allocator@U?$_Tree_node@U?$pair@$$CBHI@std@@PEAX@std@@@std@@QEAAPEAU?$_Tree_node@U?$pair@$$CBHI@std@@PEAX@2@_K@Z 0000000180008da0 f i game.obj
 0001:00007dd0       ?atan2@@YAMMM@Z            0000000180008dd0 f i game.obj
 0001:00007e00       ?begin@?$_Tree@V?$_Tmap_traits@HIU?$less@H@std@@V?$allocator@U?$pair@$$CBHI@std@@@2@$0A@@std@@@std@@QEAA?AV?$_Tree_iterator@V?$_Tree_val@U?$_Tree_simple_types@U?$pair@$$CBHI@std@@@std@@@std@@@2@XZ 0000000180008e00 f i game.obj
 0001:00007e60       ?begin@?$_Tree@V?$_Tmap_traits@H_NU?$less@H@std@@V?$allocator@U?$pair@$$CBH_N@std@@@2@$0A@@std@@@std@@QEAA?AV?$_Tree_iterator@V?$_Tree_val@U?$_Tree_simple_types@U?$pair@$$CBH_N@std@@@std@@@std@@@2@XZ 0000000180008e60 f i game.obj
 0001:00007ec0       ?call@?$compute_dot@Utvec2@glm@@M$0A@$0A@@detail@glm@@SAMAEBU?$tvec2@M$0A@@3@0@Z 0000000180008ec0 f i game.obj
 0001:00007f00       ?call@?$compute_inverse@Utmat4x4@glm@@M$0A@$0A@@detail@glm@@SA?AU?$tmat4x4@M$0A@@3@AEBU43@@Z 0000000180008f00 f i game.obj
 0001:00009630       ?call@?$compute_normalize@M$0A@Utvec2@glm@@$0A@@detail@glm@@SA?AU?$tvec2@M$0A@@3@AEBU43@@Z 000000018000a630 f i game.obj
 0001:00009670       ?call@?$compute_vec4_add@M$0A@$0A@@detail@glm@@SA?AU?$tvec4@M$0A@@3@AEBU43@0@Z 000000018000a670 f i game.obj
 0001:00009700       ?call@?$compute_vec4_div@M$0A@$0A@@detail@glm@@SA?AU?$tvec4@M$0A@@3@AEBU43@0@Z 000000018000a700 f i game.obj
 0001:00009790       ?call@?$compute_vec4_mul@M$0A@$0A@@detail@glm@@SA?AU?$tvec4@M$0A@@3@AEBU43@0@Z 000000018000a790 f i game.obj
 0001:00009820       ?call@?$compute_vec4_sub@M$0A@$0A@@detail@glm@@SA?AU?$tvec4@M$0A@@3@AEBU43@0@Z 000000018000a820 f i game.obj
 0001:000098b0       ?deallocate@?$_Wrap_alloc@V?$allocator@U?$_Tree_node@U?$pair@$$CBH_N@std@@PEAX@std@@@std@@@std@@QEAAXPEAU?$_Tree_node@U?$pair@$$CBH_N@std@@PEAX@2@_K@Z 000000018000a8b0 f i game.obj
 0001:000098b0       ?deallocate@?$_Wrap_alloc@V?$allocator@U?$_Tree_node@U?$pair@$$CBHI@std@@PEAX@std@@@std@@@std@@QEAAXPEAU?$_Tree_node@U?$pair@$$CBHI@std@@PEAX@2@_K@Z 000000018000a8b0 f i game.obj
 0001:000098e0       ?deallocate@?$allocator@U?$_Tree_node@U?$pair@$$CBHI@std@@PEAX@std@@@std@@QEAAXPEAU?$_Tree_node@U?$pair@$$CBHI@std@@PEAX@2@_K@Z 000000018000a8e0 f i game.obj
 0001:000098e0       ?deallocate@?$allocator@U?$_Tree_node@U?$pair@$$CBH_N@std@@PEAX@std@@@std@@QEAAXPEAU?$_Tree_node@U?$pair@$$CBH_N@std@@PEAX@2@_K@Z 000000018000a8e0 f i game.obj
 0001:00009910       ?end@?$_Tree@V?$_Tmap_traits@HIU?$less@H@std@@V?$allocator@U?$pair@$$CBHI@std@@@2@$0A@@std@@@std@@QEAA?AV?$_Tree_iterator@V?$_Tree_val@U?$_Tree_simple_types@U?$pair@$$CBHI@std@@@std@@@std@@@2@XZ 000000018000a910 f i game.obj
 0001:00009970       ?end@?$_Tree@V?$_Tmap_traits@H_NU?$less@H@std@@V?$allocator@U?$pair@$$CBH_N@std@@@2@$0A@@std@@@std@@QEAA?AV?$_Tree_iterator@V?$_Tree_val@U?$_Tree_simple_types@U?$pair@$$CBH_N@std@@@std@@@std@@@2@XZ 000000018000a970 f i game.obj
 0001:000099d0       ?length@?$tvec3@M$0A@@glm@@SAHXZ 000000018000a9d0 f i game.obj
 0001:000099e0       ?length@?$tvec4@M$0A@@glm@@SAHXZ 000000018000a9e0 f i game.obj
 0001:000099e0       ?length@?$tmat4x4@M$0A@@glm@@SAHXZ 000000018000a9e0 f i game.obj
 0001:000099f0       ?lower_bound@?$_Tree@V?$_Tmap_traits@HIU?$less@H@std@@V?$allocator@U?$pair@$$CBHI@std@@@2@$0A@@std@@@std@@QEAA?AV?$_Tree_iterator@V?$_Tree_val@U?$_Tree_simple_types@U?$pair@$$CBHI@std@@@std@@@std@@@2@AEBH@Z 000000018000a9f0 f i game.obj
 0001:000099f0       ?lower_bound@?$_Tree@V?$_Tmap_traits@H_NU?$less@H@std@@V?$allocator@U?$pair@$$CBH_N@std@@@2@$0A@@std@@@std@@QEAA?AV?$_Tree_iterator@V?$_Tree_val@U?$_Tree_simple_types@U?$pair@$$CBH_N@std@@@std@@@std@@@2@AEBH@Z 000000018000a9f0 f i game.obj
 0001:00009a40       ?max_size@?$_Tree@V?$_Tmap_traits@HIU?$less@H@std@@V?$allocator@U?$pair@$$CBHI@std@@@2@$0A@@std@@@std@@QEBA_KXZ 000000018000aa40 f i game.obj
 0001:00009a40       ?max_size@?$_Tree@V?$_Tmap_traits@H_NU?$less@H@std@@V?$allocator@U?$pair@$$CBH_N@std@@@2@$0A@@std@@@std@@QEBA_KXZ 000000018000aa40 f i game.obj
 0001:00009a70       ?max_size@?$_Wrap_alloc@V?$allocator@U?$_Tree_node@U?$pair@$$CBHI@std@@PEAX@std@@@std@@@std@@QEBA_KU_Nil@2@@Z 000000018000aa70 f i game.obj
 0001:00009a70       ?max_size@?$_Wrap_alloc@V?$allocator@U?$_Tree_node@U?$pair@$$CBH_N@std@@PEAX@std@@@std@@@std@@QEBA_KU_Nil@2@@Z 000000018000aa70 f i game.obj
 0001:00009a90       ?max_size@?$allocator@U?$_Tree_node@U?$pair@$$CBHI@std@@PEAX@std@@@std@@QEBA_KXZ 000000018000aa90 f i game.obj
 0001:00009a90       ?max_size@?$allocator@U?$_Tree_node@U?$pair@$$CBH_N@std@@PEAX@std@@@std@@QEBA_KXZ 000000018000aa90 f i game.obj
 0001:00009aa0       ?max_size@?$allocator_traits@V?$allocator@U?$_Tree_node@U?$pair@$$CBH_N@std@@PEAX@std@@@std@@@std@@SA_KAEBV?$allocator@U?$_Tree_node@U?$pair@$$CBH_N@std@@PEAX@std@@@2@@Z 000000018000aaa0 f i game.obj
 0001:00009aa0       ?max_size@?$allocator_traits@V?$allocator@U?$_Tree_node@U?$pair@$$CBHI@std@@PEAX@std@@@std@@@std@@SA_KAEBV?$allocator@U?$_Tree_node@U?$pair@$$CBHI@std@@PEAX@std@@@2@@Z 000000018000aaa0 f i game.obj
 0001:00009ac0       ?_Left@?$_Tree_comp_alloc@V?$_Tmap_traits@HIU?$less@H@std@@V?$allocator@U?$pair@$$CBHI@std@@@2@$0A@@std@@@std@@SAAEAPEAU?$_Tree_node@U?$pair@$$CBHI@std@@PEAX@2@PEAU32@@Z 000000018000aac0 f i game.obj
 0001:00009ac0       ?pointer_to@?$pointer_traits@PEAU?$pair@$$CBHI@std@@@std@@SAPEAU?$pair@$$CBHI@2@AEAU32@@Z 000000018000aac0 f i game.obj
 0001:00009ac0       ?pointer_to@?$pointer_traits@PEAU?$pair@$$CBH_N@std@@@std@@SAPEAU?$pair@$$CBH_N@2@AEAU32@@Z 000000018000aac0 f i game.obj
 0001:00009ac0       ?_Left@?$_Tree_comp_alloc@V?$_Tmap_traits@H_NU?$less@H@std@@V?$allocator@U?$pair@$$CBH_N@std@@@2@$0A@@std@@@std@@SAAEAPEAU?$_Tree_node@U?$pair@$$CBH_N@std@@PEAX@2@PEAU32@@Z 000000018000aac0 f i game.obj
 0001:00009ae0       ?size@?$_Tree@V?$_Tmap_traits@H_NU?$less@H@std@@V?$allocator@U?$pair@$$CBH_N@std@@@2@$0A@@std@@@std@@QEBA_KXZ 000000018000aae0 f i game.obj
 0001:00009ae0       ?size@?$_Tree@V?$_Tmap_traits@HIU?$less@H@std@@V?$allocator@U?$pair@$$CBHI@std@@@2@$0A@@std@@@std@@QEBA_KXZ 000000018000aae0 f i game.obj
 0001:00009b00       ?sqrt@@YAMM@Z              000000018000ab00 f i game.obj
 0001:00009b20       gladLoadGL                 000000018000ab20 f   glad.obj
 0001:00009b60       gladLoadGLLoader           000000018000ab60 f   glad.obj
 0001:0001e0e0       __local_stdio_scanf_options 000000018001f0e0 f i glad.obj
 0001:0001e0f0       _vsscanf_s_l               000000018001f0f0 f i glad.obj
 0001:0001e150       sscanf_s                   000000018001f150 f i glad.obj
 0001:0001e1a0       vsscanf_s                  000000018001f1a0 f i glad.obj
 0001:0001e1d0       __local_stdio_printf_options 000000018001f1d0 f i glfw3:init.c.obj
 0001:0001e1e0       _glfwInputError            000000018001f1e0 f   glfw3:init.c.obj
 0001:0001e370       glfwTerminate              000000018001f370 f   glfw3:init.c.obj
 0001:0001e480       glfwDestroyWindow          000000018001f480 f   glfw3:window.c.obj
 0001:0001e510       glfwGetFramebufferSize     000000018001f510 f   glfw3:window.c.obj
 0001:0001e540       _glfwInputJoystickChange   000000018001f540 f   glfw3:input.c.obj
 0001:0001e550       glfwDestroyCursor          000000018001f550 f   glfw3:input.c.obj
 0001:0001e610       _glfwPlatformTerminate     000000018001f610 f   glfw3:win32_init.c.obj
 0001:0001e6f0       _glfwPlatformSetGammaRamp  000000018001f6f0 f   glfw3:win32_monitor.c.obj
 0001:0001e8d0       _glfwRestoreVideoModeWin32 000000018001f8d0 f   glfw3:win32_monitor.c.obj
 0001:0001e910       _glfwFreeMonitors          000000018001f910 f   glfw3:monitor.c.obj
 0001:0001e9f0       _glfwInputMonitorWindowChange 000000018001f9f0 f   glfw3:monitor.c.obj
 0001:0001ea00       _glfwTerminateVulkan       000000018001fa00 f   glfw3:vulkan.c.obj
 0001:0001ea60       glfwMakeContextCurrent     000000018001fa60 f   glfw3:context.c.obj
 0001:0001eaf0       _glfwPlatformDestroyCursor 000000018001faf0 f   glfw3:win32_window.c.obj
 0001:0001eb10       _glfwPlatformDestroyWindow 000000018001fb10 f   glfw3:win32_window.c.obj
 0001:0001ebc0       _glfwPlatformGetFramebufferSize 000000018001fbc0 f   glfw3:win32_window.c.obj
 0001:0001ec20       _glfwPlatformSetCursor     000000018001fc20 f   glfw3:win32_window.c.obj
 0001:0001ec90       _glfwUnregisterWindowClassWin32 000000018001fc90 f   glfw3:win32_window.c.obj
 0001:0001ed80       _glfwPlatformGetCurrentContext 000000018001fd80 f   glfw3:win32_tls.c.obj
 0001:0001ed90       _glfwTerminateThreadLocalStorageWin32 000000018001fd90 f   glfw3:win32_tls.c.obj
 0001:0001edb0       _glfwTerminateJoysticksWin32 000000018001fdb0 f   glfw3:win32_joystick.c.obj
 0001:0001ee80       _glfwTerminateWGL          000000018001fe80 f   glfw3:wgl_context.c.obj
 0001:0001eea0       _glfwTerminateEGL          000000018001fea0 f   glfw3:egl_context.c.obj
 0001:0001eee4       ??0bad_alloc@std@@QEAA@AEBV01@@Z 000000018001fee4 f i libcpmt:xthrow.obj
 0001:0001ef24       ??0bad_alloc@std@@QEAA@XZ  000000018001ff24 f i libcpmt:xthrow.obj
 0001:0001ef44       ??0exception@std@@QEAA@AEBV01@@Z 000000018001ff44 f i libcpmt:xthrow.obj
 0001:0001ef7c       ??0length_error@std@@QEAA@AEBV01@@Z 000000018001ff7c f i libcpmt:xthrow.obj
 0001:0001efbc       ??0length_error@std@@QEAA@PEBD@Z 000000018001ffbc f i libcpmt:xthrow.obj
 0001:0001f008       ??0logic_error@std@@QEAA@AEBV01@@Z 0000000180020008 f i libcpmt:xthrow.obj
 0001:0001f048       ??_Gbad_array_new_length@std@@UEAAPEAXI@Z 0000000180020048 f i MSVCRT:throw_bad_alloc.obj
 0001:0001f048       ??_Elength_error@std@@UEAAPEAXI@Z 0000000180020048 f i libcpmt:xthrow.obj
 0001:0001f048       ??_Glogic_error@std@@UEAAPEAXI@Z 0000000180020048 f i libcpmt:xthrow.obj
 0001:0001f048       ??_Eexception@std@@UEAAPEAXI@Z 0000000180020048 f i libcpmt:xthrow.obj
 0001:0001f048       ??_Gbad_alloc@std@@UEAAPEAXI@Z 0000000180020048 f i libcpmt:xthrow.obj
 0001:0001f048       ??_Glength_error@std@@UEAAPEAXI@Z 0000000180020048 f i libcpmt:xthrow.obj
 0001:0001f048       ??_Elogic_error@std@@UEAAPEAXI@Z 0000000180020048 f i libcpmt:xthrow.obj
 0001:0001f048       ??_Gexception@std@@UEAAPEAXI@Z 0000000180020048 f i libcpmt:xthrow.obj
 0001:0001f048       ??_Ebad_array_new_length@std@@UEAAPEAXI@Z 0000000180020048 f i MSVCRT:throw_bad_alloc.obj
 0001:0001f048       ??_Ebad_alloc@std@@UEAAPEAXI@Z 0000000180020048 f i libcpmt:xthrow.obj
 0001:0001f08c       ?__scrt_throw_std_bad_alloc@@YAXXZ 000000018002008c f   MSVCRT:throw_bad_alloc.obj
 0001:0001f08c       ?_Xbad_alloc@std@@YAXXZ    000000018002008c f   libcpmt:xthrow.obj
 0001:0001f0ac       ?_Xlength_error@std@@YAXPEBD@Z 00000001800200ac f   libcpmt:xthrow.obj
 0001:0001f0d0       ?what@exception@std@@UEBAPEBDXZ 00000001800200d0 f i libcpmt:xthrow.obj
 0001:0001f0e4       ??2@YAPEAX_K@Z             00000001800200e4 f   MSVCRT:new_scalar.obj
 0001:0001f120       ??3@YAXPEAX@Z              0000000180020120 f   MSVCRT:delete_scalar.obj
 0001:0001f128       __GSHandlerCheck           0000000180020128 f   MSVCRT:_gshandler_.obj
 0001:0001f148       __GSHandlerCheckCommon     0000000180020148 f   MSVCRT:_gshandler_.obj
 0001:0001f1c0       __security_check_cookie    00000001800201c0 f   MSVCRT:_amdsecgs_.obj
 0001:0001f530       _DllMainCRTStartup         0000000180020530 f   MSVCRT:dll_dllmain.obj
 0001:0001f580       _alloca_probe              0000000180020580 f   MSVCRT:_chkstk_.obj
 0001:0001f580       __chkstk                   0000000180020580 f   MSVCRT:_chkstk_.obj
 0001:0001f5d4       ??3@YAXPEAX_K@Z            00000001800205d4 f   MSVCRT:delete_scalar_size.obj
 0001:0001f5dc       ??_Gtype_info@@UEAAPEAXI@Z 00000001800205dc f i MSVCRT:std_type_info_static.obj
 0001:0001f5dc       ??_Etype_info@@UEAAPEAXI@Z 00000001800205dc f i MSVCRT:std_type_info_static.obj
 0001:0001f608       ??0bad_array_new_length@std@@QEAA@AEBV01@@Z 0000000180020608 f i MSVCRT:throw_bad_alloc.obj
 0001:0001f648       ??0bad_array_new_length@std@@QEAA@XZ 0000000180020648 f i MSVCRT:throw_bad_alloc.obj
 0001:0001f668       ??1length_error@std@@UEAA@XZ 0000000180020668 f i libcpmt:xthrow.obj
 0001:0001f668       ??1bad_array_new_length@std@@UEAA@XZ 0000000180020668 f i MSVCRT:throw_bad_alloc.obj
 0001:0001f668       ??1bad_alloc@std@@UEAA@XZ  0000000180020668 f i libcpmt:xthrow.obj
 0001:0001f67c       ?__scrt_throw_std_bad_array_new_length@@YAXXZ 000000018002067c f   MSVCRT:throw_bad_alloc.obj
 0001:0001f69c       __raise_securityfailure    000000018002069c f   MSVCRT:gs_report.obj
 0001:0001f6d0       __report_gsfailure         00000001800206d0 f   MSVCRT:gs_report.obj
 0001:0001f818       __scrt_acquire_startup_lock 0000000180020818 f   MSVCRT:utility.obj
 0001:0001f854       __scrt_dllmain_after_initialize_c 0000000180020854 f   MSVCRT:utility.obj
 0001:0001f888       __scrt_dllmain_before_initialize_c 0000000180020888 f   MSVCRT:utility.obj
 0001:0001f8a0       __scrt_dllmain_crt_thread_attach 00000001800208a0 f   MSVCRT:utility.obj
 0001:0001f8c8       __scrt_dllmain_crt_thread_detach 00000001800208c8 f   MSVCRT:utility.obj
 0001:0001f8e0       __scrt_dllmain_exception_filter 00000001800208e0 f   MSVCRT:utility.obj
 0001:0001f944       __scrt_dllmain_uninitialize_c 0000000180020944 f   MSVCRT:utility.obj
 0001:0001f974       __scrt_dllmain_uninitialize_critical 0000000180020974 f   MSVCRT:utility.obj
 0001:0001f988       __scrt_initialize_crt      0000000180020988 f   MSVCRT:utility.obj
 0001:0001f9d4       __scrt_initialize_onexit_tables 00000001800209d4 f   MSVCRT:utility.obj
 0001:0001faa0       __scrt_is_nonwritable_in_current_image 0000000180020aa0 f   MSVCRT:utility.obj
 0001:0001fb3c       __scrt_release_startup_lock 0000000180020b3c f   MSVCRT:utility.obj
 0001:0001fb60       __scrt_uninitialize_crt    0000000180020b60 f   MSVCRT:utility.obj
 0001:0001fb8c       _onexit                    0000000180020b8c f   MSVCRT:utility.obj
 0001:0001fbdc       atexit                     0000000180020bdc f   MSVCRT:utility.obj
 0001:0001fbf4       __security_init_cookie     0000000180020bf4 f   MSVCRT:gs_support.obj
 0001:0001fca0       DllMain                    0000000180020ca0 f   MSVCRT:dll_dllmain_stub.obj
 0001:0001fcc4       ?__scrt_initialize_type_info@@YAXXZ 0000000180020cc4 f   MSVCRT:tncleanup.obj
 0001:0001fcd4       ?__scrt_uninitialize_type_info@@YAXXZ 0000000180020cd4 f   MSVCRT:tncleanup.obj
 0001:0001fce0       __scrt_initialize_default_local_stdio_options 0000000180020ce0 f   MSVCRT:default_local_stdio_options.obj
 0001:0001fcfc       __scrt_get_dyn_tls_init_callback 0000000180020cfc f   MSVCRT:dyn_tls_init.obj
 0001:0001fd04       __scrt_fastfail            0000000180020d04 f   MSVCRT:utility_desktop.obj
 0001:0001fe4c       _RTC_Initialize            0000000180020e4c f   MSVCRT:_initsect_.obj
 0001:0001fe98       _RTC_Terminate             0000000180020e98 f   MSVCRT:_initsect_.obj
 0001:0001fee4       _guard_check_icall         0000000180020ee4 f i MSVCRT:checkcfg.obj
 0001:0001feec       __isa_available_init       0000000180020eec f   MSVCRT:_cpu_disp_.obj
 0001:000200b4       _get_startup_argv_mode     00000001800210b4 f   MSVCRT:argv_mode.obj
 0001:000200bc       __scrt_is_ucrt_dll_in_use  00000001800210bc f   MSVCRT:ucrt_detection.obj
 0001:000200c8       _guard_check_icall_nop     00000001800210c8 f i MSVCRT:guard_support.obj
 0001:000200d0       _CxxThrowException         00000001800210d0 f   vcruntime:VCRUNTIME140.dll
 0001:000200d6       __CxxFrameHandler3         00000001800210d6 f   vcruntime:VCRUNTIME140.dll
 0001:000200dc       strstr                     00000001800210dc f   vcruntime:VCRUNTIME140.dll
 0001:000200e2       memset                     00000001800210e2 f   vcruntime:VCRUNTIME140.dll
 0001:000200e8       __std_exception_copy       00000001800210e8 f   vcruntime:VCRUNTIME140.dll
 0001:000200ee       __std_exception_destroy    00000001800210ee f   vcruntime:VCRUNTIME140.dll
 0001:000200f4       __C_specific_handler       00000001800210f4 f   vcruntime:VCRUNTIME140.dll
 0001:000200fa       __std_type_info_destroy_list 00000001800210fa f   vcruntime:VCRUNTIME140.dll
 0001:00020100       _invalid_parameter_noinfo_noreturn 0000000180021100 f   ucrt:api-ms-win-crt-runtime-l1-1-0.dll
 0001:00020106       _wassert                   0000000180021106 f   ucrt:api-ms-win-crt-runtime-l1-1-0.dll
 0001:0002010c       exit                       000000018002110c f   ucrt:api-ms-win-crt-runtime-l1-1-0.dll
 0001:00020112       atan2f                     0000000180021112 f   ucrt:api-ms-win-crt-math-l1-1-0.dll
 0001:00020118       sqrtf                      0000000180021118 f   ucrt:api-ms-win-crt-math-l1-1-0.dll
 0001:0002011e       __stdio_common_vsscanf     000000018002111e f   ucrt:api-ms-win-crt-stdio-l1-1-0.dll
 0001:00020124       free                       0000000180021124 f   ucrt:api-ms-win-crt-heap-l1-1-0.dll
 0001:0002012a       realloc                    000000018002112a f   ucrt:api-ms-win-crt-heap-l1-1-0.dll
 0001:00020130       strcmp                     0000000180021130 f   ucrt:api-ms-win-crt-string-l1-1-0.dll
 0001:00020136       strlen                     0000000180021136 f   ucrt:api-ms-win-crt-string-l1-1-0.dll
 0001:0002013c       strncmp                    000000018002113c f   ucrt:api-ms-win-crt-string-l1-1-0.dll
 0001:00020142       _callnewh                  0000000180021142 f   ucrt:api-ms-win-crt-heap-l1-1-0.dll
 0001:00020148       malloc                     0000000180021148 f   ucrt:api-ms-win-crt-heap-l1-1-0.dll
 0001:0002014e       _initterm                  000000018002114e f   ucrt:api-ms-win-crt-runtime-l1-1-0.dll
 0001:00020154       _initterm_e                0000000180021154 f   ucrt:api-ms-win-crt-runtime-l1-1-0.dll
 0001:0002015a       _seh_filter_dll            000000018002115a f   ucrt:api-ms-win-crt-runtime-l1-1-0.dll
 0001:00020160       _configure_narrow_argv     0000000180021160 f   ucrt:api-ms-win-crt-runtime-l1-1-0.dll
 0001:00020166       _initialize_narrow_environment 0000000180021166 f   ucrt:api-ms-win-crt-runtime-l1-1-0.dll
 0001:0002016c       _initialize_onexit_table   000000018002116c f   ucrt:api-ms-win-crt-runtime-l1-1-0.dll
 0001:00020172       _register_onexit_function  0000000180021172 f   ucrt:api-ms-win-crt-runtime-l1-1-0.dll
 0001:00020178       _execute_onexit_table      0000000180021178 f   ucrt:api-ms-win-crt-runtime-l1-1-0.dll
 0001:0002017e       _crt_atexit                000000018002117e f   ucrt:api-ms-win-crt-runtime-l1-1-0.dll
 0001:00020184       _cexit                     0000000180021184 f   ucrt:api-ms-win-crt-runtime-l1-1-0.dll
 0001:0002018a       IsProcessorFeaturePresent  000000018002118a f   kernel32:KERNEL32.dll
 0001:00020190       __scrt_stub_for_acrt_thread_detach 0000000180021190 f   MSVCRT:ucrt_stubs.obj
 0001:00020190       __acrt_thread_attach       0000000180021190 f   MSVCRT:ucrt_stubs.obj
 0001:00020190       __acrt_initialize          0000000180021190 f   MSVCRT:ucrt_stubs.obj
 0001:00020190       __vcrt_uninitialize        0000000180021190 f   MSVCRT:ucrt_stubs.obj
 0001:00020190       __vcrt_uninitialize_critical 0000000180021190 f   MSVCRT:ucrt_stubs.obj
 0001:00020190       __acrt_uninitialize_critical 0000000180021190 f   MSVCRT:ucrt_stubs.obj
 0001:00020190       __scrt_stub_for_acrt_uninitialize 0000000180021190 f   MSVCRT:ucrt_stubs.obj
 0001:00020190       __vcrt_thread_attach       0000000180021190 f   MSVCRT:ucrt_stubs.obj
 0001:00020190       __scrt_stub_for_acrt_initialize 0000000180021190 f   MSVCRT:ucrt_stubs.obj
 0001:00020190       __scrt_stub_for_acrt_thread_attach 0000000180021190 f   MSVCRT:ucrt_stubs.obj
 0001:00020190       __acrt_uninitialize        0000000180021190 f   MSVCRT:ucrt_stubs.obj
 0001:00020190       __vcrt_thread_detach       0000000180021190 f   MSVCRT:ucrt_stubs.obj
 0001:00020190       __acrt_thread_detach       0000000180021190 f   MSVCRT:ucrt_stubs.obj
 0001:00020190       __scrt_stub_for_acrt_uninitialize_critical 0000000180021190 f   MSVCRT:ucrt_stubs.obj
 0001:00020190       __vcrt_initialize          0000000180021190 f   MSVCRT:ucrt_stubs.obj
 0001:00020194       __scrt_stub_for_is_c_termination_complete 0000000180021194 f   MSVCRT:ucrt_stubs.obj
 0001:00020194       _is_c_termination_complete 0000000180021194 f   MSVCRT:ucrt_stubs.obj
 0001:000201b0       _guard_dispatch_icall_nop  00000001800211b0 f   MSVCRT:_guard_dispatch_.obj
 0002:00000000       __imp_CreateDCW            0000000180022000     gdi32:GDI32.dll
 0002:00000008       __imp_SetDeviceGammaRamp   0000000180022008     gdi32:GDI32.dll
 0002:00000010       __imp_DeleteDC             0000000180022010     gdi32:GDI32.dll
 0002:00000018       \177GDI32_NULL_THUNK_DATA  0000000180022018     gdi32:GDI32.dll
 0002:00000020       __imp_QueryPerformanceCounter 0000000180022020     kernel32:KERNEL32.dll
 0002:00000028       __imp_GetModuleHandleW     0000000180022028     kernel32:KERNEL32.dll
 0002:00000030       __imp_LoadLibraryW         0000000180022030     kernel32:KERNEL32.dll
 0002:00000038       __imp_GetProcAddress       0000000180022038     kernel32:KERNEL32.dll
 0002:00000040       __imp_TlsGetValue          0000000180022040     kernel32:KERNEL32.dll
 0002:00000048       __imp_FreeLibrary          0000000180022048     kernel32:KERNEL32.dll
 0002:00000050       __imp_TlsFree              0000000180022050     kernel32:KERNEL32.dll
 0002:00000058       __imp_IsDebuggerPresent    0000000180022058     kernel32:KERNEL32.dll
 0002:00000060       __imp_InitializeSListHead  0000000180022060     kernel32:KERNEL32.dll
 0002:00000068       __imp_DisableThreadLibraryCalls 0000000180022068     kernel32:KERNEL32.dll
 0002:00000070       __imp_GetSystemTimeAsFileTime 0000000180022070     kernel32:KERNEL32.dll
 0002:00000078       __imp_GetCurrentThreadId   0000000180022078     kernel32:KERNEL32.dll
 0002:00000080       __imp_GetCurrentProcessId  0000000180022080     kernel32:KERNEL32.dll
 0002:00000088       __imp_IsProcessorFeaturePresent 0000000180022088     kernel32:KERNEL32.dll
 0002:00000090       __imp_TerminateProcess     0000000180022090     kernel32:KERNEL32.dll
 0002:00000098       __imp_GetCurrentProcess    0000000180022098     kernel32:KERNEL32.dll
 0002:000000a0       __imp_SetUnhandledExceptionFilter 00000001800220a0     kernel32:KERNEL32.dll
 0002:000000a8       __imp_UnhandledExceptionFilter 00000001800220a8     kernel32:KERNEL32.dll
 0002:000000b0       __imp_RtlVirtualUnwind     00000001800220b0     kernel32:KERNEL32.dll
 0002:000000b8       __imp_RtlLookupFunctionEntry 00000001800220b8     kernel32:KERNEL32.dll
 0002:000000c0       __imp_RtlCaptureContext    00000001800220c0     kernel32:KERNEL32.dll
 0002:000000c8       \177KERNEL32_NULL_THUNK_DATA 00000001800220c8     kernel32:KERNEL32.dll
 0002:000000d0       __imp_alSourcef            00000001800220d0     OpenAL32:OpenAL32.dll
 0002:000000d8       __imp_alSource3f           00000001800220d8     OpenAL32:OpenAL32.dll
 0002:000000e0       __imp_alSourcei            00000001800220e0     OpenAL32:OpenAL32.dll
 0002:000000e8       __imp_alGetSourcei         00000001800220e8     OpenAL32:OpenAL32.dll
 0002:000000f0       __imp_alSourcePause        00000001800220f0     OpenAL32:OpenAL32.dll
 0002:000000f8       __imp_alSourceStop         00000001800220f8     OpenAL32:OpenAL32.dll
 0002:00000100       __imp_alSourcePlay         0000000180022100     OpenAL32:OpenAL32.dll
 0002:00000108       \177OpenAL32_NULL_THUNK_DATA 0000000180022108     OpenAL32:OpenAL32.dll
 0002:00000110       __imp_DestroyIcon          0000000180022110     user32:USER32.dll
 0002:00000118       __imp_LoadCursorW          0000000180022118     user32:USER32.dll
 0002:00000120       __imp_PtInRect             0000000180022120     user32:USER32.dll
 0002:00000128       __imp_WindowFromPoint      0000000180022128     user32:USER32.dll
 0002:00000130       __imp_ClientToScreen       0000000180022130     user32:USER32.dll
 0002:00000138       __imp_GetCursorPos         0000000180022138     user32:USER32.dll
 0002:00000140       __imp_SetCursor            0000000180022140     user32:USER32.dll
 0002:00000148       __imp_GetClientRect        0000000180022148     user32:USER32.dll
 0002:00000150       __imp_RemovePropW          0000000180022150     user32:USER32.dll
 0002:00000158       __imp_DestroyWindow        0000000180022158     user32:USER32.dll
 0002:00000160       __imp_SystemParametersInfoW 0000000180022160     user32:USER32.dll
 0002:00000168       __imp_ChangeDisplaySettingsExW 0000000180022168     user32:USER32.dll
 0002:00000170       __imp_UnregisterClassW     0000000180022170     user32:USER32.dll
 0002:00000178       \177USER32_NULL_THUNK_DATA 0000000180022178     user32:USER32.dll
 0002:00000180       __imp___CxxFrameHandler3   0000000180022180     vcruntime:VCRUNTIME140.dll
 0002:00000188       __imp_strstr               0000000180022188     vcruntime:VCRUNTIME140.dll
 0002:00000190       __imp_memset               0000000180022190     vcruntime:VCRUNTIME140.dll
 0002:00000198       __imp___std_exception_copy 0000000180022198     vcruntime:VCRUNTIME140.dll
 0002:000001a0       __imp___std_type_info_destroy_list 00000001800221a0     vcruntime:VCRUNTIME140.dll
 0002:000001a8       __imp___std_exception_destroy 00000001800221a8     vcruntime:VCRUNTIME140.dll
 0002:000001b0       __imp__CxxThrowException   00000001800221b0     vcruntime:VCRUNTIME140.dll
 0002:000001b8       __imp___C_specific_handler 00000001800221b8     vcruntime:VCRUNTIME140.dll
 0002:000001c0       \177VCRUNTIME140_NULL_THUNK_DATA 00000001800221c0     vcruntime:VCRUNTIME140.dll
 0002:000001c8       __imp__callnewh            00000001800221c8     ucrt:api-ms-win-crt-heap-l1-1-0.dll
 0002:000001d0       __imp_free                 00000001800221d0     ucrt:api-ms-win-crt-heap-l1-1-0.dll
 0002:000001d8       __imp_realloc              00000001800221d8     ucrt:api-ms-win-crt-heap-l1-1-0.dll
 0002:000001e0       __imp_malloc               00000001800221e0     ucrt:api-ms-win-crt-heap-l1-1-0.dll
 0002:000001e8       \177api-ms-win-crt-heap-l1-1-0_NULL_THUNK_DATA 00000001800221e8     ucrt:api-ms-win-crt-heap-l1-1-0.dll
 0002:000001f0       __imp_atan2f               00000001800221f0     ucrt:api-ms-win-crt-math-l1-1-0.dll
 0002:000001f8       __imp_sqrtf                00000001800221f8     ucrt:api-ms-win-crt-math-l1-1-0.dll
 0002:00000200       \177api-ms-win-crt-math-l1-1-0_NULL_THUNK_DATA 0000000180022200     ucrt:api-ms-win-crt-math-l1-1-0.dll
 0002:00000208       __imp__cexit               0000000180022208     ucrt:api-ms-win-crt-runtime-l1-1-0.dll
 0002:00000210       __imp__crt_atexit          0000000180022210     ucrt:api-ms-win-crt-runtime-l1-1-0.dll
 0002:00000218       __imp__execute_onexit_table 0000000180022218     ucrt:api-ms-win-crt-runtime-l1-1-0.dll
 0002:00000220       __imp__register_onexit_function 0000000180022220     ucrt:api-ms-win-crt-runtime-l1-1-0.dll
 0002:00000228       __imp__initialize_narrow_environment 0000000180022228     ucrt:api-ms-win-crt-runtime-l1-1-0.dll
 0002:00000230       __imp__configure_narrow_argv 0000000180022230     ucrt:api-ms-win-crt-runtime-l1-1-0.dll
 0002:00000238       __imp__seh_filter_dll      0000000180022238     ucrt:api-ms-win-crt-runtime-l1-1-0.dll
 0002:00000240       __imp__initterm_e          0000000180022240     ucrt:api-ms-win-crt-runtime-l1-1-0.dll
 0002:00000248       __imp__invalid_parameter_noinfo_noreturn 0000000180022248     ucrt:api-ms-win-crt-runtime-l1-1-0.dll
 0002:00000250       __imp__initterm            0000000180022250     ucrt:api-ms-win-crt-runtime-l1-1-0.dll
 0002:00000258       __imp__initialize_onexit_table 0000000180022258     ucrt:api-ms-win-crt-runtime-l1-1-0.dll
 0002:00000260       __imp_exit                 0000000180022260     ucrt:api-ms-win-crt-runtime-l1-1-0.dll
 0002:00000268       __imp__wassert             0000000180022268     ucrt:api-ms-win-crt-runtime-l1-1-0.dll
 0002:00000270       \177api-ms-win-crt-runtime-l1-1-0_NULL_THUNK_DATA 0000000180022270     ucrt:api-ms-win-crt-runtime-l1-1-0.dll
 0002:00000278       __imp___stdio_common_vsprintf 0000000180022278     ucrt:api-ms-win-crt-stdio-l1-1-0.dll
 0002:00000280       __imp___stdio_common_vsscanf 0000000180022280     ucrt:api-ms-win-crt-stdio-l1-1-0.dll
 0002:00000288       \177api-ms-win-crt-stdio-l1-1-0_NULL_THUNK_DATA 0000000180022288     ucrt:api-ms-win-crt-stdio-l1-1-0.dll
 0002:00000290       __imp_strncmp              0000000180022290     ucrt:api-ms-win-crt-string-l1-1-0.dll
 0002:00000298       __imp_strlen               0000000180022298     ucrt:api-ms-win-crt-string-l1-1-0.dll
 0002:000002a0       __imp_strcmp               00000001800222a0     ucrt:api-ms-win-crt-string-l1-1-0.dll
 0002:000002a8       \177api-ms-win-crt-string-l1-1-0_NULL_THUNK_DATA 00000001800222a8     ucrt:api-ms-win-crt-string-l1-1-0.dll
 0002:000002b0       __guard_check_icall_fptr   00000001800222b0     MSVCRT:guard_support.obj
 0002:000002b8       __guard_dispatch_icall_fptr 00000001800222b8     MSVCRT:guard_support.obj
 0002:000002c0       __xc_a                     00000001800222c0     MSVCRT:initializers.obj
 0002:000002c8       __xc_z                     00000001800222c8     MSVCRT:initializers.obj
 0002:000002d0       __xi_a                     00000001800222d0     MSVCRT:initializers.obj
 0002:000002d8       __xi_z                     00000001800222d8     MSVCRT:initializers.obj
 0002:000002e0       __xp_a                     00000001800222e0     MSVCRT:initializers.obj
 0002:000002e8       __xp_z                     00000001800222e8     MSVCRT:initializers.obj
 0002:000002f0       __xt_a                     00000001800222f0     MSVCRT:initializers.obj
 0002:000002f8       __xt_z                     00000001800222f8     MSVCRT:initializers.obj
 0002:00000980       ??_C@_1IM@EPMDHJMO@?$AAc?$AA?3?$AA?2?$AAu?$AAs?$AAe?$AAr?$AAs?$AA?2?$AAn?$AAi?$AAe?$AAl?$AAs?$AA?2?$AAd?$AAo?$AAc?$AAu?$AAm?$AAe?$AAn?$AAt?$AAs?$AA?2?$AAp?$AAo?$AAw?$AAd?$AAe?$AAr?$AAe@ 0000000180022980     game.obj
 0002:00000a10       ??_C@_1CG@KOFHLCJL@?$AAi?$AA?5?$AA?$DM?$AA?5?$AAt?$AAh?$AAi?$AAs?$AA?9?$AA?$DO?$AAl?$AAe?$AAn?$AAg?$AAt?$AAh?$AA?$CI?$AA?$CJ?$AA?$AA@ 0000000180022a10     game.obj
 0002:00000a40       ??_C@_1II@PKHJMLPM@?$AAc?$AA?3?$AA?2?$AAu?$AAs?$AAe?$AAr?$AAs?$AA?2?$AAn?$AAi?$AAe?$AAl?$AAs?$AA?2?$AAd?$AAo?$AAc?$AAu?$AAm?$AAe?$AAn?$AAt?$AAs?$AA?2?$AAp?$AAo?$AAw?$AAd?$AAe?$AAr?$AAe@ 0000000180022a40     game.obj
 0002:00000ac8       ??_C@_1DK@BGNCJAPL@?$AAi?$AA?5?$AA?$DO?$AA?$DN?$AA?5?$AA0?$AA?5?$AA?$CG?$AA?$CG?$AA?5?$AAi?$AA?5?$AA?$DM?$AA?5?$AAt?$AAh?$AAi?$AAs?$AA?9?$AA?$DO?$AAl?$AAe?$AAn?$AAg?$AAt?$AAh?$AA?$CI?$AA?$CJ?$AA?$AA@ 0000000180022ac8     game.obj
 0002:00000b10       ??_C@_1II@IOOBCCHD@?$AAc?$AA?3?$AA?2?$AAu?$AAs?$AAe?$AAr?$AAs?$AA?2?$AAn?$AAi?$AAe?$AAl?$AAs?$AA?2?$AAd?$AAo?$AAc?$AAu?$AAm?$AAe?$AAn?$AAt?$AAs?$AA?2?$AAp?$AAo?$AAw?$AAd?$AAe?$AAr?$AAe@ 0000000180022b10     game.obj
 0002:00000b98       ??_C@_0BE@JONHPENG@map?1set?$DMT?$DO?5too?5long?$AA@ 0000000180022b98     game.obj
 0002:00000bac       __real@3f000000            0000000180022bac     game.obj
 0002:00000bb0       __real@3f800000            0000000180022bb0     game.obj
 0002:00000bb4       __real@40000000            0000000180022bb4     game.obj
 0002:00000bb8       __real@40c00000            0000000180022bb8     game.obj
 0002:00000bbc       __real@41200000            0000000180022bbc     game.obj
 0002:00000bc0       __real@41700000            0000000180022bc0     game.obj
 0002:00000bc4       __real@bf800000            0000000180022bc4     game.obj
 0002:00000bc8       __real@c0000000            0000000180022bc8     game.obj
 0002:00000bd0       __xmm@80000000800000008000000080000000 0000000180022bd0     game.obj
 0002:00000be0       ??_C@_0CE@BEELAIPG@The?5GLFW?5library?5is?5not?5initiali@ 0000000180022be0     glfw3:init.c.obj
 0002:00000c08       ??_C@_0BM@PKHPFLOM@There?5is?5no?5current?5context?$AA@ 0000000180022c08     glfw3:init.c.obj
 0002:00000c28       ??_C@_0CE@KDBKFLEE@Invalid?5argument?5for?5enum?5parame@ 0000000180022c28     glfw3:init.c.obj
 0002:00000c50       ??_C@_0BM@BADCNPOM@Invalid?5value?5for?5parameter?$AA@ 0000000180022c50     glfw3:init.c.obj
 0002:00000c70       ??_C@_0O@NALGGDJF@Out?5of?5memory?$AA@ 0000000180022c70     glfw3:init.c.obj
 0002:00000c80       ??_C@_0CB@HAFFDHLH@The?5requested?5API?5is?5unavailable@ 0000000180022c80     glfw3:init.c.obj
 0002:00000ca8       ??_C@_0CJ@KOFEFGNB@The?5requested?5API?5version?5is?5una@ 0000000180022ca8     glfw3:init.c.obj
 0002:00000cd8       ??_C@_0CD@HJEBEGLD@A?5platform?9specific?5error?5occurr@ 0000000180022cd8     glfw3:init.c.obj
 0002:00000d00       ??_C@_0CE@PCLEMLLO@The?5requested?5format?5is?5unavaila@ 0000000180022d00     glfw3:init.c.obj
 0002:00000d28       ??_C@_0CE@OJFJMLEI@The?5specified?5window?5has?5no?5cont@ 0000000180022d28     glfw3:init.c.obj
 0002:00000d50       ??_C@_0BK@PMMAHJAK@ERROR?3?5UNKNOWN?5GLFW?5ERROR?$AA@ 0000000180022d50     glfw3:init.c.obj
 0002:00000d70       ??_C@_1O@IBNLCBOC@?$AAG?$AAL?$AAF?$AAW?$AA3?$AA0?$AA?$AA@ 0000000180022d70     glfw3:win32_init.c.obj
 0002:00000d80       ??_C@_1BA@PICGEGJB@?$AAD?$AAI?$AAS?$AAP?$AAL?$AAA?$AAY?$AA?$AA@ 0000000180022d80     glfw3:win32_monitor.c.obj
 0002:00000d90       ??_C@_0CD@EGEEPFHF@Win32?3?5Gamma?5ramp?5size?5must?5be?52@ 0000000180022d90     glfw3:win32_monitor.c.obj
 0002:00000db8       ??_C@_19JBPKICJI@?$AAG?$AAL?$AAF?$AAW?$AA?$AA@ 0000000180022db8     glfw3:win32_window.c.obj
 0002:00000dc8       GUID_XAxis                 0000000180022dc8     glfw3:win32_joystick.c.obj
 0002:00000dd8       GUID_YAxis                 0000000180022dd8     glfw3:win32_joystick.c.obj
 0002:00000de8       GUID_ZAxis                 0000000180022de8     glfw3:win32_joystick.c.obj
 0002:00000df8       GUID_RxAxis                0000000180022df8     glfw3:win32_joystick.c.obj
 0002:00000e08       GUID_RyAxis                0000000180022e08     glfw3:win32_joystick.c.obj
 0002:00000e18       GUID_RzAxis                0000000180022e18     glfw3:win32_joystick.c.obj
 0002:00000e28       GUID_Slider                0000000180022e28     glfw3:win32_joystick.c.obj
 0002:00000e38       GUID_POV                   0000000180022e38     glfw3:win32_joystick.c.obj
 0002:00000e70       ??_7exception@std@@6B@     0000000180022e70     libcpmt:xthrow.obj
 0002:00000e80       ??_C@_0BC@EOODALEL@Unknown?5exception?$AA@ 0000000180022e80     libcpmt:xthrow.obj
 0002:00000ea0       ??_7bad_alloc@std@@6B@     0000000180022ea0     libcpmt:xthrow.obj
 0002:00000eb0       ??_C@_0P@GHFPNOJB@bad?5allocation?$AA@ 0000000180022eb0     libcpmt:xthrow.obj
 0002:00000ec8       ??_7logic_error@std@@6B@   0000000180022ec8     libcpmt:xthrow.obj
 0002:00000ee0       ??_7length_error@std@@6B@  0000000180022ee0     libcpmt:xthrow.obj
 0002:00000ef0       _pRawDllMain               0000000180022ef0     MSVCRT:dll_dllmain.obj
 0002:00000ef0       _pDefaultRawDllMain        0000000180022ef0     MSVCRT:dll_dllmain.obj
 0002:00000f00       ??_7type_info@@6B@         0000000180022f00     MSVCRT:std_type_info_static.obj
 0002:00000f10       ??_7bad_array_new_length@std@@6B@ 0000000180022f10     MSVCRT:throw_bad_alloc.obj
 0002:00000f20       ??_C@_0BF@KINCDENJ@bad?5array?5new?5length?$AA@ 0000000180022f20     MSVCRT:throw_bad_alloc.obj
 0002:00000fb0       _load_config_used          0000000180022fb0     MSVCRT:loadcfg.obj
 0002:00001048       ??_R4exception@std@@6B@    0000000180023048     libcpmt:xthrow.obj
 0002:00001070       ??_R3exception@std@@8      0000000180023070     libcpmt:xthrow.obj
 0002:00001088       ??_R2exception@std@@8      0000000180023088     libcpmt:xthrow.obj
 0002:00001098       ??_R1A@?0A@EA@exception@std@@8 0000000180023098     libcpmt:xthrow.obj
 0002:000010c0       ??_R4bad_alloc@std@@6B@    00000001800230c0     libcpmt:xthrow.obj
 0002:000010e8       ??_R3bad_alloc@std@@8      00000001800230e8     libcpmt:xthrow.obj
 0002:00001100       ??_R2bad_alloc@std@@8      0000000180023100     libcpmt:xthrow.obj
 0002:00001118       ??_R1A@?0A@EA@bad_alloc@std@@8 0000000180023118     libcpmt:xthrow.obj
 0002:00001140       ??_R4logic_error@std@@6B@  0000000180023140     libcpmt:xthrow.obj
 0002:00001168       ??_R3logic_error@std@@8    0000000180023168     libcpmt:xthrow.obj
 0002:00001180       ??_R2logic_error@std@@8    0000000180023180     libcpmt:xthrow.obj
 0002:00001198       ??_R1A@?0A@EA@logic_error@std@@8 0000000180023198     libcpmt:xthrow.obj
 0002:000011c0       ??_R4length_error@std@@6B@ 00000001800231c0     libcpmt:xthrow.obj
 0002:000011e8       ??_R3length_error@std@@8   00000001800231e8     libcpmt:xthrow.obj
 0002:00001200       ??_R2length_error@std@@8   0000000180023200     libcpmt:xthrow.obj
 0002:00001220       ??_R1A@?0A@EA@length_error@std@@8 0000000180023220     libcpmt:xthrow.obj
 0002:00001248       ??_R4type_info@@6B@        0000000180023248     MSVCRT:std_type_info_static.obj
 0002:00001270       ??_R3type_info@@8          0000000180023270     MSVCRT:std_type_info_static.obj
 0002:00001288       ??_R2type_info@@8          0000000180023288     MSVCRT:std_type_info_static.obj
 0002:00001298       ??_R1A@?0A@EA@type_info@@8 0000000180023298     MSVCRT:std_type_info_static.obj
 0002:000012c0       ??_R4bad_array_new_length@std@@6B@ 00000001800232c0     MSVCRT:throw_bad_alloc.obj
 0002:000012e8       ??_R3bad_array_new_length@std@@8 00000001800232e8     MSVCRT:throw_bad_alloc.obj
 0002:00001300       ??_R2bad_array_new_length@std@@8 0000000180023300     MSVCRT:throw_bad_alloc.obj
 0002:00001320       ??_R1A@?0A@EA@bad_array_new_length@std@@8 0000000180023320     MSVCRT:throw_bad_alloc.obj
 0002:00001610       __rtc_iaa                  0000000180023610     MSVCRT:_initsect_.obj
 0002:00001618       __rtc_izz                  0000000180023618     MSVCRT:_initsect_.obj
 0002:00001620       __rtc_taa                  0000000180023620     MSVCRT:_initsect_.obj
 0002:00001628       __rtc_tzz                  0000000180023628     MSVCRT:_initsect_.obj
 0002:000028d0       _TI2?AVbad_alloc@std@@     00000001800248d0     libcpmt:xthrow.obj
 0002:000028f0       _CTA2?AVbad_alloc@std@@    00000001800248f0     libcpmt:xthrow.obj
 0002:00002908       _CT??_R0?AVbad_alloc@std@@@8??0bad_alloc@std@@QEAA@AEBV01@@Z24 0000000180024908     libcpmt:xthrow.obj
 0002:00002930       _CT??_R0?AVexception@std@@@8??0exception@std@@QEAA@AEBV01@@Z24 0000000180024930     libcpmt:xthrow.obj
 0002:00002958       _CT??_R0?AVlogic_error@std@@@8??0logic_error@std@@QEAA@AEBV01@@Z24 0000000180024958     libcpmt:xthrow.obj
 0002:00002980       _TI3?AVlength_error@std@@  0000000180024980     libcpmt:xthrow.obj
 0002:000029a0       _CTA3?AVlength_error@std@@ 00000001800249a0     libcpmt:xthrow.obj
 0002:000029c0       _CT??_R0?AVlength_error@std@@@8??0length_error@std@@QEAA@AEBV01@@Z24 00000001800249c0     libcpmt:xthrow.obj
 0002:000029e8       _TI3?AVbad_array_new_length@std@@ 00000001800249e8     MSVCRT:throw_bad_alloc.obj
 0002:00002a08       _CTA3?AVbad_array_new_length@std@@ 0000000180024a08     MSVCRT:throw_bad_alloc.obj
 0002:00002a28       _CT??_R0?AVbad_array_new_length@std@@@8??0bad_array_new_length@std@@QEAA@AEBV01@@Z24 0000000180024a28     MSVCRT:throw_bad_alloc.obj
 0002:00002a94       __IMPORT_DESCRIPTOR_KERNEL32 0000000180024a94     kernel32:KERNEL32.dll
 0002:00002aa8       __IMPORT_DESCRIPTOR_OpenAL32 0000000180024aa8     OpenAL32:OpenAL32.dll
 0002:00002abc       __IMPORT_DESCRIPTOR_VCRUNTIME140 0000000180024abc     vcruntime:VCRUNTIME140.dll
 0002:00002ad0       __IMPORT_DESCRIPTOR_api-ms-win-crt-runtime-l1-1-0 0000000180024ad0     ucrt:api-ms-win-crt-runtime-l1-1-0.dll
 0002:00002ae4       __IMPORT_DESCRIPTOR_api-ms-win-crt-math-l1-1-0 0000000180024ae4     ucrt:api-ms-win-crt-math-l1-1-0.dll
 0002:00002af8       __IMPORT_DESCRIPTOR_api-ms-win-crt-stdio-l1-1-0 0000000180024af8     ucrt:api-ms-win-crt-stdio-l1-1-0.dll
 0002:00002b0c       __IMPORT_DESCRIPTOR_api-ms-win-crt-heap-l1-1-0 0000000180024b0c     ucrt:api-ms-win-crt-heap-l1-1-0.dll
 0002:00002b20       __IMPORT_DESCRIPTOR_api-ms-win-crt-string-l1-1-0 0000000180024b20     ucrt:api-ms-win-crt-string-l1-1-0.dll
 0002:00002b34       __IMPORT_DESCRIPTOR_USER32 0000000180024b34     user32:USER32.dll
 0002:00002b48       __IMPORT_DESCRIPTOR_GDI32  0000000180024b48     gdi32:GDI32.dll
 0002:00002b5c       __NULL_IMPORT_DESCRIPTOR   0000000180024b5c     kernel32:KERNEL32.dll
 0003:00000200       ?ShaderPaths@@3PAPEBDA     0000000180026200     game.obj
 0003:00017770       __security_cookie          000000018003d770     MSVCRT:gs_cookie.obj
 0003:00017778       __security_cookie_complement 000000018003d778     MSVCRT:gs_cookie.obj
 0003:00017780       _fltused                   000000018003d780     MSVCRT:dllsupp.obj
 0003:00017790       __scrt_native_dllmain_reason 000000018003d790     MSVCRT:utility.obj
 0003:00017798       __isa_available            000000018003d798     MSVCRT:_cpu_disp_.obj
 0003:0001779c       __isa_enabled              000000018003d79c     MSVCRT:_cpu_disp_.obj
 0003:000177a0       __memcpy_nt_iters          000000018003d7a0     MSVCRT:_cpu_disp_.obj
 0003:000177b0       __scrt_ucrt_dll_is_in_use  000000018003d7b0     MSVCRT:ucrt_stubs.obj
 0003:000177b8       ??_R0?AVbad_alloc@std@@@8  000000018003d7b8     libcpmt:xthrow.obj
 0003:000177e0       ??_R0?AVexception@std@@@8  000000018003d7e0     libcpmt:xthrow.obj
 0003:00017808       ??_R0?AVlogic_error@std@@@8 000000018003d808     libcpmt:xthrow.obj
 0003:00017830       ??_R0?AVlength_error@std@@@8 000000018003d830     libcpmt:xthrow.obj
 0003:00017858       ??_R0?AVtype_info@@@8      000000018003d858     MSVCRT:std_type_info_static.obj
 0003:00017878       ??_R0?AVbad_array_new_length@std@@@8 000000018003d878     MSVCRT:throw_bad_alloc.obj
 0003:000178e8       _glfwInitialized           000000018003d8e8     glfw3:init.c.obj
 0003:00017e70       __scrt_current_native_startup_state 000000018003de70     MSVCRT:utility.obj
 0003:00017e78       __scrt_native_startup_lock 000000018003de78     MSVCRT:utility.obj
 0003:00017ec0       ?__type_info_root_node@@3U__type_info_node@@A 000000018003dec0     MSVCRT:tncleanup.obj
 0003:00017ed0       __scrt_debugger_hook_flag  000000018003ded0     MSVCRT:utility_desktop.obj
 0003:00017ed4       __favor                    000000018003ded4     MSVCRT:_cpu_disp_.obj
 0003:00017ed8       ?_OptionsStorage@?1??__local_stdio_scanf_options@@9@9 000000018003ded8     <common>
 0003:00017ee0       glad_glGetVertexAttribivNV 000000018003dee0     <common>
 0003:00017ee8       GLAD_GL_ARB_texture_env_dot3 000000018003dee8     <common>
 0003:00017eec       GLAD_GL_ARB_texture_env_crossbar 000000018003deec     <common>
 0003:00017ef0       glad_glTexCoord1hvNV       000000018003def0     <common>
 0003:00017ef8       glad_glDrawRangeElementsBaseVertex 000000018003def8     <common>
 0003:00017f00       glad_glUseProgramStages    000000018003df00     <common>
 0003:00017f08       GLAD_GL_ARB_texture_env_combine 000000018003df08     <common>
 0003:00017f0c       GLAD_GL_ARB_texture_env_add 000000018003df0c     <common>
 0003:00017f10       glad_glMultiTexCoord4xOES  000000018003df10     <common>
 0003:00017f18       glad_glProgramUniform1i64vNV 000000018003df18     <common>
 0003:00017f20       glad_glWindowPos3svMESA    000000018003df20     <common>
 0003:00017f28       GLAD_GL_ARB_texture_cube_map_array 000000018003df28     <common>
 0003:00017f30       glad_glGetFragmentLightivSGIX 000000018003df30     <common>
 0003:00017f38       glad_glVertexAttribL1dEXT  000000018003df38     <common>
 0003:00017f40       glad_glGetNamedFramebufferAttachmentParameterivEXT 000000018003df40     <common>
 0003:00017f48       glad_glMultiTexCoord3dvARB 000000018003df48     <common>
 0003:00017f50       glad_glProgramEnvParameter4fvARB 000000018003df50     <common>
 0003:00017f58       GLAD_GL_ARB_texture_cube_map 000000018003df58     <common>
 0003:00017f60       glad_glVertexAttrib3fv     000000018003df60     <common>
 0003:00017f68       glad_glTexCoord1hNV        000000018003df68     <common>
 0003:00017f70       glad_glGetVertexAttribArrayObjectfvATI 000000018003df70     <common>
 0003:00017f78       glad_glTextureParameterfEXT 000000018003df78     <common>
 0003:00017f80       GLAD_GL_ARB_texture_compression_rgtc 000000018003df80     <common>
 0003:00017f84       GLAD_GL_EXT_geometry_shader4 000000018003df84     <common>
 0003:00017f88       GLAD_GL_EXT_framebuffer_sRGB 000000018003df88     <common>
 0003:00017f8c       GLAD_GL_ARB_texture_compression_bptc 000000018003df8c     <common>
 0003:00017f90       glad_glWindowPos3sMESA     000000018003df90     <common>
 0003:00017f98       glad_glGetCompressedTexImageARB 000000018003df98     <common>
 0003:00017fa0       glad_glGetVertexAttribfvNV 000000018003dfa0     <common>
 0003:00017fa8       glad_glGenerateMipmapEXT   000000018003dfa8     <common>
 0003:00017fb0       glad_glColor4hvNV          000000018003dfb0     <common>
 0003:00017fb8       glad_glCopyTexSubImage1D   000000018003dfb8     <common>
 0003:00017fc0       GLAD_GL_EXT_vertex_attrib_64bit 000000018003dfc0     <common>
 0003:00017fc8       glad_glMultiTexCoord3dARB  000000018003dfc8     <common>
 0003:00017fd0       glad_glTextureSubImage2D   000000018003dfd0     <common>
 0003:00017fd8       glad_glProgramParameteri   000000018003dfd8     <common>
 0003:00017fe0       GLAD_GL_EXT_vertex_array_bgra 000000018003dfe0     <common>
 0003:00017fe8       glad_glVertexAttrib3f      000000018003dfe8     <common>
 0003:00017ff0       glad_glGetFragmentLightfvSGIX 000000018003dff0     <common>
 0003:00017ff8       glad_glGetCompressedTextureImageEXT 000000018003dff8     <common>
 0003:00018000       glad_glVertexPointerEXT    000000018003e000     <common>
 0003:00018008       glad_glGetFramebufferAttachmentParameterivEXT 000000018003e008     <common>
 0003:00018010       glad_glProgramEnvParameter4fARB 000000018003e010     <common>
 0003:00018018       glad_glProgramUniform4i64NV 000000018003e018     <common>
 0003:00018020       glad_glColor4hNV           000000018003e020     <common>
 0003:00018028       glad_glVertexAttribArrayObjectATI 000000018003e028     <common>
 0003:00018030       glad_glNamedFramebufferRenderbufferEXT 000000018003e030     <common>
 0003:00018038       glad_glGetInternalformati64v 000000018003e038     <common>
 0003:00018040       GLAD_GL_NV_present_video   000000018003e040     <common>
 0003:00018048       glad_glMultMatrixxOES      000000018003e048     <common>
 0003:00018050       glad_glWindowPos3ivMESA    000000018003e050     <common>
 0003:00018058       glad_glPointParameterivNV  000000018003e058     <common>
 0003:00018060       glad_glGetVertexAttribdvNV 000000018003e060     <common>
 0003:00018068       glad_glPushClientAttribDefaultEXT 000000018003e068     <common>
 0003:00018070       glad_glCompressedTexSubImage1DARB 000000018003e070     <common>
 0003:00018078       glad_glDrawElementsBaseVertex 000000018003e078     <common>
 0003:00018080       glad_glProgramBinary       000000018003e080     <common>
 0003:00018088       glad_glMaterialxvOES       000000018003e088     <common>
 0003:00018090       glad_glWindowPos3iMESA     000000018003e090     <common>
 0003:00018098       glad_glClientAttribDefaultEXT 000000018003e098     <common>
 0003:000180a0       glad_glMultiTexCoord2svARB 000000018003e0a0     <common>
 0003:000180a8       glad_glFragmentMaterialivSGIX 000000018003e0a8     <common>
 0003:000180b0       glad_glVertexAttrib3dv     000000018003e0b0     <common>
 0003:000180b8       glad_glPointParameteriNV   000000018003e0b8     <common>
 0003:000180c0       glad_glFramebufferRenderbufferEXT 000000018003e0c0     <common>
 0003:000180c8       glad_glCompressedTextureSubImage1DEXT 000000018003e0c8     <common>
 0003:000180d0       glad_glColor3hvNV          000000018003e0d0     <common>
 0003:000180d8       glad_glGetTrackMatrixivNV  000000018003e0d8     <common>
 0003:000180e0       glad_glTexCoordPointerEXT  000000018003e0e0     <common>
 0003:000180e8       glad_glNamedFramebufferTexture3DEXT 000000018003e0e8     <common>
 0003:000180f0       glad_glMatrixPushEXT       000000018003e0f0     <common>
 0003:000180f8       glad_glCopyTexImage2D      000000018003e0f8     <common>
 0003:00018100       glad_glMultiTexCoord2sARB  000000018003e100     <common>
 0003:00018108       glad_glGetFramebufferParameteriv 000000018003e108     <common>
 0003:00018110       glad_glWindowPos3fvMESA    000000018003e110     <common>
 0003:00018118       glad_glProgramUniform3i64NV 000000018003e118     <common>
 0003:00018120       glad_glMaterialxOES        000000018003e120     <common>
 0003:00018128       glad_glVertexAttrib3d      000000018003e128     <common>
 0003:00018130       GLAD_GL_NV_point_sprite    000000018003e130     <common>
 0003:00018138       glad_glProgramEnvParameter4dvARB 000000018003e138     <common>
 0003:00018140       glad_glColor3hNV           000000018003e140     <common>
 0003:00018148       glad_glMatrixPopEXT        000000018003e148     <common>
 0003:00018150       glad_glFlushPixelDataRangeNV 000000018003e150     <common>
 0003:00018158       glad_glFragmentMaterialiSGIX 000000018003e158     <common>
 0003:00018160       glad_glGetProgramBinary    000000018003e160     <common>
 0003:00018168       GLAD_GL_VERSION_3_2        000000018003e168     <common>
 0003:0001816c       GLAD_GL_ATI_vertex_attrib_array_object 000000018003e16c     <common>
 0003:00018170       glad_glGetVariantArrayObjectivATI 000000018003e170     <common>
 0003:00018178       glad_glUniformBlockBinding 000000018003e178     <common>
 0003:00018180       glad_glTextureSubImage1D   000000018003e180     <common>
 0003:00018188       glad_glWindowPos3fMESA     000000018003e188     <common>
 0003:00018190       glad_glMatrixOrthoEXT      000000018003e190     <common>
 0003:00018198       glad_glFramebufferTexture3DEXT 000000018003e198     <common>
 0003:000181a0       glad_glCompressedTexSubImage2DARB 000000018003e1a0     <common>
 0003:000181a8       glad_glPixelDataRangeNV    000000018003e1a8     <common>
 0003:000181b0       glad_glMultiTexCoord2ivARB 000000018003e1b0     <common>
 0003:000181b8       glad_glFramebufferParameteri 000000018003e1b8     <common>
 0003:000181c0       glad_glGetProgramStringNV  000000018003e1c0     <common>
 0003:000181c8       glad_glNormal3hvNV         000000018003e1c8     <common>
 0003:000181d0       glad_glProgramEnvParameter4dARB 000000018003e1d0     <common>
 0003:000181d8       glad_glLoadMatrixxOES      000000018003e1d8     <common>
 0003:000181e0       glad_glFragmentMaterialfvSGIX 000000018003e1e0     <common>
 0003:000181e8       glad_glNormalPointerEXT    000000018003e1e8     <common>
 0003:000181f0       glad_glVertexAttrib2sv     000000018003e1f0     <common>
 0003:000181f8       glad_glGetVariantArrayObjectfvATI 000000018003e1f8     <common>
 0003:00018200       glad_glNamedFramebufferTexture2DEXT 000000018003e200     <common>
 0003:00018208       glad_glGetActiveUniformBlockName 000000018003e208     <common>
 0003:00018210       glad_glNormal3hNV          000000018003e210     <common>
 0003:00018218       glad_glWindowPos3dvMESA    000000018003e218     <common>
 0003:00018220       glad_glLineWidthxOES       000000018003e220     <common>
 0003:00018228       glad_glProgramUniform2i64NV 000000018003e228     <common>
 0003:00018230       glad_glMultiTexCoord2iARB  000000018003e230     <common>
 0003:00018238       glad_glClearDepthf         000000018003e238     <common>
 0003:00018240       glad_glCompressedTextureSubImage2DEXT 000000018003e240     <common>
 0003:00018248       GLAD_GL_NV_pixel_data_range 000000018003e248     <common>
 0003:0001824c       GLAD_GL_NV_path_rendering_shared_edge 000000018003e24c     <common>
 0003:00018250       glad_glCopyImageSubData    000000018003e250     <common>
 0003:00018258       glad_glGetPathTexGenfvNV   000000018003e258     <common>
 0003:00018260       glad_glGetProgramivNV      000000018003e260     <common>
 0003:00018268       glad_glCopyTexImage1D      000000018003e268     <common>
 0003:00018270       glad_glWindowPos3dMESA     000000018003e270     <common>
 0003:00018278       glad_glLightxvOES          000000018003e278     <common>
 0003:00018280       glad_glVertexAttrib2s      000000018003e280     <common>
 0003:00018288       glad_glDepthRangef         000000018003e288     <common>
 0003:00018290       glad_glFragmentMaterialfSGIX 000000018003e290     <common>
 0003:00018298       glad_glVariantArrayObjectATI 000000018003e298     <common>
 0003:000182a0       glad_glTextureStorage3DMultisample 000000018003e2a0     <common>
 0003:000182a8       glad_glIndexPointerEXT     000000018003e2a8     <common>
 0003:000182b0       glad_glFramebufferTexture2DEXT 000000018003e2b0     <common>
 0003:000182b8       glad_glVertex4hvNV         000000018003e2b8     <common>
 0003:000182c0       glad_glMultiTexCoord2fvARB 000000018003e2c0     <common>
 0003:000182c8       glad_glMatrixFrustumEXT    000000018003e2c8     <common>
 0003:000182d0       glad_glGenProgramsARB      000000018003e2d0     <common>
 0003:000182d8       glad_glProgramUniform1i64NV 000000018003e2d8     <common>
 0003:000182e0       glad_glGetProgramParameterfvNV 000000018003e2e0     <common>
 0003:000182e8       glad_glNamedFramebufferTexture1DEXT 000000018003e2e8     <common>
 0003:000182f0       glad_glGetActiveUniformBlockiv 000000018003e2f0     <common>
 0003:000182f8       glad_glGetPathTexGenivNV   000000018003e2f8     <common>
 0003:00018300       glad_glGetShaderPrecisionFormat 000000018003e300     <common>
 0003:00018308       glad_glWindowPos2svMESA    000000018003e308     <common>
 0003:00018310       glad_glLightxOES           000000018003e310     <common>
 0003:00018318       glad_glVertexAttrib2fv     000000018003e318     <common>
 0003:00018320       glad_glVertex4hNV          000000018003e320     <common>
 0003:00018328       glad_glCompressedTexSubImage3DARB 000000018003e328     <common>
 0003:00018330       glad_glFragmentLightModelivSGIX 000000018003e330     <common>
 0003:00018338       glad_glMultiTexCoord2fARB  000000018003e338     <common>
 0003:00018340       glad_glDeleteProgramsARB   000000018003e340     <common>
 0003:00018348       glad_glWindowPos2sMESA     000000018003e348     <common>
 0003:00018350       glad_glGetPointervEXT      000000018003e350     <common>
 0003:00018358       glad_glGetUniformui64vNV   000000018003e358     <common>
 0003:00018360       glad_glVertexAttrib2f      000000018003e360     <common>
 0003:00018368       glad_glGetArrayObjectivATI 000000018003e368     <common>
 0003:00018370       glad_glFramebufferTexture1DEXT 000000018003e370     <common>
 0003:00018378       glad_glPolygonOffset       000000018003e378     <common>
 0003:00018380       glad_glGetPathColorGenfvNV 000000018003e380     <common>
 0003:00018388       glad_glFragmentLightModeliSGIX 000000018003e388     <common>
 0003:00018390       glad_glLightModelxvOES     000000018003e390     <common>
 0003:00018398       glad_glGetProgramParameterdvNV 000000018003e398     <common>
 0003:000183a0       glad_glShaderBinary        000000018003e3a0     <common>
 0003:000183a8       glad_glGetUniformBlockIndex 000000018003e3a8     <common>
 0003:000183b0       glad_glWindowPos2ivMESA    000000018003e3b0     <common>
 0003:000183b8       glad_glVertex3hvNV         000000018003e3b8     <common>
 0003:000183c0       glad_glBindProgramARB      000000018003e3c0     <common>
 0003:000183c8       glad_glCheckNamedFramebufferStatusEXT 000000018003e3c8     <common>
 0003:000183d0       glad_glMultiTexCoord2dvARB 000000018003e3d0     <common>
 0003:000183d8       glad_glEdgeFlagPointerEXT  000000018003e3d8     <common>
 0003:000183e0       glad_glCompressedTextureSubImage3DEXT 000000018003e3e0     <common>
 0003:000183e8       glad_glTextureStorage2DMultisample 000000018003e3e8     <common>
 0003:000183f0       glad_glMatrixTranslatedEXT 000000018003e3f0     <common>
 0003:000183f8       glad_glDrawElements        000000018003e3f8     <common>
 0003:00018400       glad_glFragmentLightModelfvSGIX 000000018003e400     <common>
 0003:00018408       glad_glVertexAttrib2dv     000000018003e408     <common>
 0003:00018410       glad_glLightModelxOES      000000018003e410     <common>
 0003:00018418       glad_glWindowPos2iMESA     000000018003e418     <common>
 0003:00018420       glad_glGetUniformi64vNV    000000018003e420     <common>
 0003:00018428       glad_glVertex3hNV          000000018003e428     <common>
 0003:00018430       glad_glGetActiveUniformName 000000018003e430     <common>
 0003:00018438       glad_glGetPathColorGenivNV 000000018003e438     <common>
 0003:00018440       glad_glGetArrayObjectfvATI 000000018003e440     <common>
 0003:00018448       glad_glProgramStringARB    000000018003e448     <common>
 0003:00018450       glad_glNamedRenderbufferStorageMultisampleCoverageEXT 000000018003e450     <common>
 0003:00018458       glad_glMultiTexCoord2dARB  000000018003e458     <common>
 0003:00018460       glad_glDrawArraysEXT       000000018003e460     <common>
 0003:00018468       glad_glFragmentLightModelfSGIX 000000018003e468     <common>
 0003:00018470       glad_glCheckFramebufferStatusEXT 000000018003e470     <common>
 0003:00018478       glad_glGenProgramsNV       000000018003e478     <common>
 0003:00018480       glad_glVertexAttrib2d      000000018003e480     <common>
 0003:00018488       glad_glGetTexParameterxvOES 000000018003e488     <common>
 0003:00018490       glad_glWindowPos2fvMESA    000000018003e490     <common>
 0003:00018498       glad_glReleaseShaderCompiler 000000018003e498     <common>
 0003:000184a0       glad_glUniform4ui64vNV     000000018003e4a0     <common>
 0003:000184a8       glad_glVertex2hvNV         000000018003e4a8     <common>
 0003:000184b0       glad_glArrayObjectATI      000000018003e4b0     <common>
 0003:000184b8       glad_glDispatchComputeIndirect 000000018003e4b8     <common>
 0003:000184c0       glad_glDrawArrays          000000018003e4c0     <common>
 0003:000184c8       glad_glMatrixTranslatefEXT 000000018003e4c8     <common>
 0003:000184d0       glad_glGenFramebuffersEXT  000000018003e4d0     <common>
 0003:000184d8       glad_glPathFogGenNV        000000018003e4d8     <common>
 0003:000184e0       GLAD_GL_VERSION_4_1        000000018003e4e0     <common>
 0003:000184e8       glad_glWindowPos2fMESA     000000018003e4e8     <common>
 0003:000184f0       glad_glGetQueryIndexediv   000000018003e4f0     <common>
 0003:000184f8       glad_glFragmentLightivSGIX 000000018003e4f8     <common>
 0003:00018500       glad_glMultiTexCoord1svARB 000000018003e500     <common>
 0003:00018508       glad_glExecuteProgramNV    000000018003e508     <common>
 0003:00018510       glad_glTextureStorage3D    000000018003e510     <common>
 0003:00018518       glad_glCompressedTexImage1DARB 000000018003e518     <common>
 0003:00018520       GLAD_GL_ARB_fragment_program 000000018003e520     <common>
 0003:00018528       glad_glVertex2hNV          000000018003e528     <common>
 0003:00018530       glad_glColorPointerEXT     000000018003e530     <common>
 0003:00018538       glad_glGetActiveUniformsiv 000000018003e538     <common>
 0003:00018540       glad_glPathTexGenNV        000000018003e540     <common>
 0003:00018548       GLAD_GL_ARB_fragment_layer_viewport 000000018003e548     <common>
 0003:00018550       glad_glDispatchCompute     000000018003e550     <common>
 0003:00018558       glad_glVertexAttrib1sv     000000018003e558     <common>
 0003:00018560       GLAD_GL_ARB_fragment_coord_conventions 000000018003e560     <common>
 0003:00018568       glad_glGetTexEnvxvOES      000000018003e568     <common>
 0003:00018570       GLAD_GL_ARB_explicit_uniform_location 000000018003e570     <common>
 0003:00018578       glad_glDeleteFramebuffersEXT 000000018003e578     <common>
 0003:00018580       GLAD_GL_ARB_explicit_attrib_location 000000018003e580     <common>
 0003:00018588       glad_glUniform3ui64vNV     000000018003e588     <common>
 0003:00018590       glad_glWindowPos2dvMESA    000000018003e590     <common>
 0003:00018598       GLAD_GL_VERSION_1_1        000000018003e598     <common>
 0003:000185a0       glad_glMultiTexCoord1sARB  000000018003e5a0     <common>
 0003:000185a8       glad_glNamedRenderbufferStorageMultisampleEXT 000000018003e5a8     <common>
 0003:000185b0       GLAD_GL_ARB_enhanced_layouts 000000018003e5b0     <common>
 0003:000185b8       glad_glViewport            000000018003e5b8     <common>
 0003:000185c0       GLAD_GL_NV_half_float      000000018003e5c0     <common>
 0003:000185c8       glad_glDrawElementsInstancedARB 000000018003e5c8     <common>
 0003:000185d0       glad_glFragmentLightiSGIX  000000018003e5d0     <common>
 0003:000185d8       glad_glMatrixScaledEXT     000000018003e5d8     <common>
 0003:000185e0       GLAD_GL_NV_gpu_shader5     000000018003e5e0     <common>
 0003:000185e8       glad_glDeleteProgramsNV    000000018003e5e8     <common>
 0003:000185f0       glad_glWindowPos2dMESA     000000018003e5f0     <common>
 0003:000185f8       glad_glVertexAttrib1s      000000018003e5f8     <common>
 0003:00018600       glad_glEndQueryIndexed     000000018003e600     <common>
 0003:00018608       GLAD_GL_NV_gpu_program5_mem_extended 000000018003e608     <common>
 0003:00018610       glad_glClearBufferSubData  000000018003e610     <common>
 0003:00018618       glad_glGetProgramSubroutineParameteruivNV 000000018003e618     <common>
 0003:00018620       glad_glBindFramebufferEXT  000000018003e620     <common>
 0003:00018628       glad_glGetFixedvOES        000000018003e628     <common>
 0003:00018630       glad_glFreeObjectBufferATI 000000018003e630     <common>
 0003:00018638       glad_glMultiTexCoord1ivARB 000000018003e638     <common>
 0003:00018640       glad_glPathColorGenNV      000000018003e640     <common>
 0003:00018648       glad_glCompressedTextureImage1DEXT 000000018003e648     <common>
 0003:00018650       glad_glUniform2ui64vNV     000000018003e650     <common>
 0003:00018658       glad_glTextureStorage2D    000000018003e658     <common>
 0003:00018660       glad_glBindProgramNV       000000018003e660     <common>
 0003:00018668       glad_glGetUniformIndices   000000018003e668     <common>
 0003:00018670       glad_glArrayElementEXT     000000018003e670     <common>
 0003:00018678       GLAD_GL_MESA_window_pos    000000018003e678     <common>
 0003:00018680       glad_glBeginQueryIndexed   000000018003e680     <common>
 0003:00018688       glad_glVertexAttrib1fv     000000018003e688     <common>
 0003:00018690       glad_glResizeBuffersMESA   000000018003e690     <common>
 0003:00018698       glad_glCompressedTexImage2DARB 000000018003e698     <common>
 0003:000186a0       glad_glFragmentLightfvSGIX 000000018003e6a0     <common>
 0003:000186a8       glad_glIsFramebufferEXT    000000018003e6a8     <common>
 0003:000186b0       glad_glGetObjectBufferivATI 000000018003e6b0     <common>
 0003:000186b8       glad_glGetClipPlanexOES    000000018003e6b8     <common>
 0003:000186c0       glad_glDepthRange          000000018003e6c0     <common>
 0003:000186c8       GLAD_GL_MESA_resize_buffers 000000018003e6c8     <common>
 0003:000186d0       glad_glMatrixScalefEXT     000000018003e6d0     <common>
 0003:000186d8       glad_glGetNamedRenderbufferParameterivEXT 000000018003e6d8     <common>
 0003:000186e0       glad_glProgramSubroutineParametersuivNV 000000018003e6e0     <common>
 0003:000186e8       glad_glMultiTexCoord1iARB  000000018003e6e8     <common>
 0003:000186f0       GLAD_GL_EXT_vertex_array   000000018003e6f0     <common>
 0003:000186f8       glad_glGetTransformFeedbackVaryingEXT 000000018003e6f8     <common>
 0003:00018700       GLAD_GL_MESA_pack_invert   000000018003e700     <common>
 0003:00018708       glad_glDrawArraysInstancedARB 000000018003e708     <common>
 0003:00018710       glad_glAreProgramsResidentNV 000000018003e710     <common>
 0003:00018718       GLAD_GL_MESAX_texture_stack 000000018003e718     <common>
 0003:00018720       glad_glGetRenderbufferParameterivEXT 000000018003e720     <common>
 0003:00018728       glad_glIsEnabled           000000018003e728     <common>
 0003:00018730       glad_glVertexAttrib1f      000000018003e730     <common>
 0003:00018738       glad_glUniform1ui64vNV     000000018003e738     <common>
 0003:00018740       GLAD_GL_KHR_texture_compression_astc_sliced_3d 000000018003e740     <common>
 0003:00018744       GLAD_GL_KHR_texture_compression_astc_ldr 000000018003e744     <common>
 0003:00018748       glad_glGetProgramResourcefvNV 000000018003e748     <common>
 0003:00018750       glad_glDrawTransformFeedbackStream 000000018003e750     <common>
 0003:00018758       glad_glFrustumxOES         000000018003e758     <common>
 0003:00018760       GLAD_GL_KHR_texture_compression_astc_hdr 000000018003e760     <common>
 0003:00018768       glad_glCopyBufferSubData   000000018003e768     <common>
 0003:00018770       glad_glGetObjectBufferfvATI 000000018003e770     <common>
 0003:00018778       glad_glFragmentLightfSGIX  000000018003e778     <common>
 0003:00018780       glad_glGetnUniformuivKHR   000000018003e780     <common>
 0003:00018788       glad_glMultiTexCoord1fvARB 000000018003e788     <common>
 0003:00018790       glad_glGetTexLevelParameteriv 000000018003e790     <common>
 0003:00018798       GLAD_GL_NV_gpu_program5    000000018003e798     <common>
 0003:000187a0       glad_glNamedRenderbufferStorageEXT 000000018003e7a0     <common>
 0003:000187a8       glad_glTextureStorage1D    000000018003e7a8     <common>
 0003:000187b0       glad_glClearBufferData     000000018003e7b0     <common>
 0003:000187b8       glad_glVertexAttrib1dv     000000018003e7b8     <common>
 0003:000187c0       glad_glGetProgramEnvParameterIuivNV 000000018003e7c0     <common>
 0003:000187c8       glad_glRenderbufferStorageEXT 000000018003e7c8     <common>
 0003:000187d0       GLAD_GL_NV_vertex_program  000000018003e7d0     <common>
 0003:000187d8       glad_glMatrixRotatedEXT    000000018003e7d8     <common>
 0003:000187e0       GLAD_GL_ARB_draw_instanced 000000018003e7e0     <common>
 0003:000187e8       glad_glGetIntegerui64i_vNV 000000018003e7e8     <common>
 0003:000187f0       glad_glUniform4ui64NV      000000018003e7f0     <common>
 0003:000187f8       glad_glCompressedTextureImage2DEXT 000000018003e7f8     <common>
 0003:00018800       glad_glMultiTexCoord1fARB  000000018003e800     <common>
 0003:00018808       GLAD_GL_ARB_draw_indirect  000000018003e808     <common>
 0003:00018810       glad_glDrawTransformFeedback 000000018003e810     <common>
 0003:00018818       GLAD_GL_ARB_draw_elements_base_vertex 000000018003e818     <common>
 0003:00018820       gladGetProcAddressPtr      000000018003e820     <common>
 0003:00018828       glad_glBlendFuncSeparateiARB 000000018003e828     <common>
 0003:00018830       glad_glUpdateObjectBufferATI 000000018003e830     <common>
 0003:00018838       glad_glFragmentColorMaterialSGIX 000000018003e838     <common>
 0003:00018840       glad_glVertexAttrib1d      000000018003e840     <common>
 0003:00018848       glad_glCompressedTexImage3DARB 000000018003e848     <common>
 0003:00018850       glad_glGetnUniformivKHR    000000018003e850     <common>
 0003:00018858       glad_glGetTexLevelParameterfv 000000018003e858     <common>
 0003:00018860       glad_glGetProgramEnvParameterIivNV 000000018003e860     <common>
 0003:00018868       glad_glTransformFeedbackVaryingsEXT 000000018003e868     <common>
 0003:00018870       glad_glMultiTexCoord1dvARB 000000018003e870     <common>
 0003:00018878       glad_glTextureBufferRange  000000018003e878     <common>
 0003:00018880       glad_glGetNamedProgramStringEXT 000000018003e880     <common>
 0003:00018888       glad_glPrimitiveRestartIndex 000000018003e888     <common>
 0003:00018890       glad_glResumeTransformFeedback 000000018003e890     <common>
 0003:00018898       glad_glVertexAttribIFormatNV 000000018003e898     <common>
 0003:000188a0       glad_glFogxvOES            000000018003e8a0     <common>
 0003:000188a8       GLAD_GL_VERSION_4_3        000000018003e8a8     <common>
 0003:000188b0       glad_glGenRenderbuffersEXT 000000018003e8b0     <common>
 0003:000188b8       GLAD_GL_SGIX_fragment_lighting 000000018003e8b8     <common>
 0003:000188bc       GLAD_GL_WIN_specular_fog   000000018003e8bc     <common>
 0003:000188c0       glad_glValidateProgram     000000018003e8c0     <common>
 0003:000188c8       glad_glDrawTransformFeedbackStreamInstanced 000000018003e8c8     <common>
 0003:000188d0       GLAD_GL_SGIX_fog_offset    000000018003e8d0     <common>
 0003:000188d8       glad_glPauseTransformFeedback 000000018003e8d8     <common>
 0003:000188e0       GLAD_GL_WIN_phong_shading  000000018003e8e0     <common>
 0003:000188e8       glad_glFlushRasterSGIX     000000018003e8e8     <common>
 0003:000188f0       glad_glTexBuffer           000000018003e8f0     <common>
 0003:000188f8       glad_glMatrixRotatefEXT    000000018003e8f8     <common>
 0003:00018900       glad_glReplacementCodeuiTexCoord2fColor4fNormal3fVertex3fvSUN 000000018003e900     <common>
 0003:00018908       glad_glProgramPathFragmentInputGenNV 000000018003e908     <common>
 0003:00018910       glad_glUniform3ui64NV      000000018003e910     <common>
 0003:00018918       glad_glIsTransformFeedback 000000018003e918     <common>
 0003:00018920       glad_glMultiTexCoord1dARB  000000018003e920     <common>
 0003:00018928       GLAD_GL_SGIX_flush_raster  000000018003e928     <common>
 0003:0001892c       GLAD_GL_SGIX_depth_texture 000000018003e92c     <common>
 0003:00018930       glad_glFogxOES             000000018003e930     <common>
 0003:00018938       glad_glGetProgramLocalParameterIuivNV 000000018003e938     <common>
 0003:00018940       glad_glUniformMatrix4fv    000000018003e940     <common>
 0003:00018948       glad_glBlendFunciARB       000000018003e948     <common>
 0003:00018950       glad_glIsObjectBufferATI   000000018003e950     <common>
 0003:00018958       glad_glGetnUniformfvKHR    000000018003e958     <common>
 0003:00018960       glad_glDeleteRenderbuffersEXT 000000018003e960     <common>
 0003:00018968       GLAD_GL_SGIX_depth_pass_instrument 000000018003e968     <common>
 0003:00018970       glad_glGetTexParameteriv   000000018003e970     <common>
 0003:00018978       glad_glBindBufferBaseEXT   000000018003e978     <common>
 0003:00018980       glad_glGenTransformFeedbacks 000000018003e980     <common>
 0003:00018988       GLAD_GL_SGIX_convolution_accuracy 000000018003e988     <common>
 0003:00018990       glad_glGetNamedProgramivEXT 000000018003e990     <common>
 0003:00018998       GLAD_GL_SGIX_clipmap       000000018003e998     <common>
 0003:000189a0       glad_glVertexAttribFormatNV 000000018003e9a0     <common>
 0003:000189a8       GLAD_GL_SGIX_calligraphic_fragment 000000018003e9a8     <common>
 0003:000189b0       glad_glClientActiveTextureARB 000000018003e9b0     <common>
 0003:000189b8       glad_glTextureBuffer       000000018003e9b8     <common>
 0003:000189c0       glad_glDrawElementsInstanced 000000018003e9c0     <common>
 0003:000189c8       GLAD_GL_SGIX_blend_alpha_minmax 000000018003e9c8     <common>
 0003:000189d0       glad_glNewObjectBufferATI  000000018003e9d0     <common>
 0003:000189d8       glad_glDrawTransformFeedbackInstanced 000000018003e9d8     <common>
 0003:000189e0       glad_glDepthRangexOES      000000018003e9e0     <common>
 0003:000189e8       GLAD_GL_SGIX_async_pixel   000000018003e9e8     <common>
 0003:000189f0       glad_glBindRenderbufferEXT 000000018003e9f0     <common>
 0003:000189f8       glad_glCompressedTextureImage3DEXT 000000018003e9f8     <common>
 0003:00018a00       GLAD_GL_SGIX_async_histogram 000000018003ea00     <common>
 0003:00018a08       glad_glDeleteTransformFeedbacks 000000018003ea08     <common>
 0003:00018a10       glad_glUniform2ui64NV      000000018003ea10     <common>
 0003:00018a18       glad_glIsAsyncMarkerSGIX   000000018003ea18     <common>
 0003:00018a20       glad_glGetProgramLocalParameterIivNV 000000018003ea20     <common>
 0003:00018a28       glad_glPathMemoryGlyphIndexArrayNV 000000018003ea28     <common>
 0003:00018a30       glad_glMatrixLoadIdentityEXT 000000018003ea30     <common>
 0003:00018a38       glad_glActiveTextureARB    000000018003ea38     <common>
 0003:00018a40       glad_glReplacementCodeuiTexCoord2fColor4fNormal3fVertex3fSUN 000000018003ea40     <common>
 0003:00018a48       glad_glBlendEquationSeparateiARB 000000018003ea48     <common>
 0003:00018a50       glad_glGetTexParameterfv   000000018003ea50     <common>
 0003:00018a58       glad_glBindBufferOffsetEXT 000000018003ea58     <common>
 0003:00018a60       glad_glUniformMatrix3fv    000000018003ea60     <common>
 0003:00018a68       glad_glReadnPixelsKHR      000000018003ea68     <common>
 0003:00018a70       GLAD_GL_ARB_texture_compression 000000018003ea70     <common>
 0003:00018a78       glad_glDeleteAsyncMarkersSGIX 000000018003ea78     <common>
 0003:00018a80       glad_glColor4xOES          000000018003ea80     <common>
 0003:00018a88       GLAD_GL_ARB_texture_buffer_range 000000018003ea88     <common>
 0003:00018a90       glad_glCreateTextures      000000018003ea90     <common>
 0003:00018a98       GLAD_GL_ATI_vertex_array_object 000000018003ea98     <common>
 0003:00018aa0       glad_glMatrixMultdEXT      000000018003eaa0     <common>
 0003:00018aa8       GLAD_GL_ARB_multitexture   000000018003eaa8     <common>
 0003:00018aac       GLAD_GL_ARB_texture_buffer_object_rgb32 000000018003eaac     <common>
 0003:00018ab0       glad_glIsRenderbufferEXT   000000018003eab0     <common>
 0003:00018ab8       glad_glGetNamedProgramLocalParameterfvEXT 000000018003eab8     <common>
 0003:00018ac0       glad_glTexBufferARB        000000018003eac0     <common>
 0003:00018ac8       glad_glSampleCoverageARB   000000018003eac8     <common>
 0003:00018ad0       glad_glTexStorage3D        000000018003ead0     <common>
 0003:00018ad8       GLAD_GL_ATI_texture_mirror_once 000000018003ead8     <common>
 0003:00018ae0       glad_glBindTransformFeedback 000000018003eae0     <common>
 0003:00018ae8       GLAD_GL_ATI_texture_float  000000018003eae8     <common>
 0003:00018af0       glad_glUniform1ui64NV      000000018003eaf0     <common>
 0003:00018af8       glad_glFogCoordFormatNV    000000018003eaf8     <common>
 0003:00018b00       GLAD_GL_ATI_texture_env_combine3 000000018003eb00     <common>
 0003:00018b08       glad_glProgramEnvParametersI4uivNV 000000018003eb08     <common>
 0003:00018b10       GLAD_GL_ATI_text_fragment_shader 000000018003eb10     <common>
 0003:00018b18       glad_glBlendEquationiARB   000000018003eb18     <common>
 0003:00018b20       GLAD_GL_EXT_framebuffer_object 000000018003eb20     <common>
 0003:00018b28       glad_glDrawArraysInstanced 000000018003eb28     <common>
 0003:00018b30       GLAD_GL_EXT_framebuffer_multisample_blit_scaled 000000018003eb30     <common>
 0003:00018b38       glad_glGenAsyncMarkersSGIX 000000018003eb38     <common>
 0003:00018b40       glad_glStencilFuncSeparateATI 000000018003eb40     <common>
 0003:00018b48       glad_glGetTexImage         000000018003eb48     <common>
 0003:00018b50       glad_glRenderbufferStorageMultisampleEXT 000000018003eb50     <common>
 0003:00018b58       glad_glMatrixMultfEXT      000000018003eb58     <common>
 0003:00018b60       glad_glUniformMatrix2fv    000000018003eb60     <common>
 0003:00018b68       glad_glBindBufferRangeEXT  000000018003eb68     <common>
 0003:00018b70       GLAD_GL_ARB_multisample    000000018003eb70     <common>
 0003:00018b78       glad_glPatchParameterfv    000000018003eb78     <common>
 0003:00018b80       glad_glGetNamedRenderbufferParameteriv 000000018003eb80     <common>
 0003:00018b88       GLAD_GL_ARB_multi_draw_indirect 000000018003eb88     <common>
 0003:00018b90       glad_glClipPlanexOES       000000018003eb90     <common>
 0003:00018b98       GLAD_GL_ARB_texture_buffer_object 000000018003eb98     <common>
 0003:00018ba0       glad_glPollAsyncSGIX       000000018003eba0     <common>
 0003:00018ba8       glad_glUniform4i64vNV      000000018003eba8     <common>
 0003:00018bb0       glad_glSecondaryColorFormatNV 000000018003ebb0     <common>
 0003:00018bb8       GLAD_GL_ARB_multi_bind     000000018003ebb8     <common>
 0003:00018bbc       GLAD_GL_ARB_texture_border_clamp 000000018003ebbc     <common>
 0003:00018bc0       glad_glGetNamedProgramLocalParameterdvEXT 000000018003ebc0     <common>
 0003:00018bc8       glad_glMatrixIndexPointerARB 000000018003ebc8     <common>
 0003:00018bd0       GLAD_GL_ARB_draw_buffers_blend 000000018003ebd0     <common>
 0003:00018bd4       GLAD_GL_ARB_texture_barrier 000000018003ebd4     <common>
 0003:00018bd8       glad_glDrawBuffersARB      000000018003ebd8     <common>
 0003:00018be0       glad_glMatrixLoaddEXT      000000018003ebe0     <common>
 0003:00018be8       GLAD_GL_ARB_tessellation_shader 000000018003ebe8     <common>
 0003:00018bf0       glad_glFinishAsyncSGIX     000000018003ebf0     <common>
 0003:00018bf8       glad_glProgramEnvParameterI4uivNV 000000018003ebf8     <common>
 0003:00018c00       GLAD_GL_ARB_sync           000000018003ec00     <common>
 0003:00018c08       glad_glPatchParameteri     000000018003ec08     <common>
 0003:00018c10       GLAD_GL_VERSION_3_1        000000018003ec10     <common>
 0003:00018c14       GLAD_GL_ARB_stencil_texturing 000000018003ec14     <common>
 0003:00018c18       GLAD_GL_ARB_sparse_texture_clamp 000000018003ec18     <common>
 0003:00018c20       glad_glStencilOpSeparateATI 000000018003ec20     <common>
 0003:00018c28       glad_glIsVertexArray       000000018003ec28     <common>
 0003:00018c30       glad_glClearDepthxOES      000000018003ec30     <common>
 0003:00018c38       glad_glTexStorage2D        000000018003ec38     <common>
 0003:00018c40       GLAD_GL_ARB_sparse_texture2 000000018003ec40     <common>
 0003:00018c48       glad_glPathGlyphIndexArrayNV 000000018003ec48     <common>
 0003:00018c50       glad_glGetGraphicsResetStatusKHR 000000018003ec50     <common>
 0003:00018c58       glad_glNamedRenderbufferStorageMultisample 000000018003ec58     <common>
 0003:00018c60       glad_glGetBooleanIndexedvEXT 000000018003ec60     <common>
 0003:00018c68       glad_glAsyncMarkerSGIX     000000018003ec68     <common>
 0003:00018c70       glad_glUniform3i64vNV      000000018003ec70     <common>
 0003:00018c78       glad_glEdgeFlagFormatNV    000000018003ec78     <common>
 0003:00018c80       glad_glTexPageCommitmentARB 000000018003ec80     <common>
 0003:00018c88       glad_glUniform4iv          000000018003ec88     <common>
 0003:00018c90       glad_glGetString           000000018003ec90     <common>
 0003:00018c98       GLAD_GL_ARB_draw_buffers   000000018003ec98     <common>
 0003:00018c9c       GLAD_GL_EXT_framebuffer_multisample 000000018003ec9c     <common>
 0003:00018ca0       GLAD_GL_ARB_direct_state_access 000000018003eca0     <common>
 0003:00018ca4       GLAD_GL_KHR_robustness     000000018003eca4     <common>
 0003:00018ca8       glad_glMatrixLoadfEXT      000000018003eca8     <common>
 0003:00018cb0       glad_glClearColorxOES      000000018003ecb0     <common>
 0003:00018cb8       glad_glEndTransformFeedbackEXT 000000018003ecb8     <common>
 0003:00018cc0       GLAD_GL_ARB_derivative_control 000000018003ecc0     <common>
 0003:00018cc8       glad_glGenVertexArrays     000000018003ecc8     <common>
 0003:00018cd0       glad_glBlitFramebufferEXT  000000018003ecd0     <common>
 0003:00018cd8       glad_glGetProgramStageiv   000000018003ecd8     <common>
 0003:00018ce0       GLAD_GL_KHR_robust_buffer_access_behavior 000000018003ece0     <common>
 0003:00018ce8       glad_glNamedProgramLocalParameter4fvEXT 000000018003ece8     <common>
 0003:00018cf0       GLAD_GL_KHR_no_error       000000018003ecf0     <common>
 0003:00018cf4       GLAD_GL_ARB_depth_texture  000000018003ecf4     <common>
 0003:00018cf8       glad_glMatrixIndexuivARB   000000018003ecf8     <common>
 0003:00018d00       glad_glGetIntegerv         000000018003ed00     <common>
 0003:00018d08       GLAD_GL_ARB_depth_clamp    000000018003ed08     <common>
 0003:00018d10       glad_glBeginTransformFeedbackEXT 000000018003ed10     <common>
 0003:00018d18       glad_glProgramEnvParameterI4uiNV 000000018003ed18     <common>
 0003:00018d20       GLAD_GL_SGIX_async         000000018003ed20     <common>
 0003:00018d28       glad_glGetPointervKHR      000000018003ed28     <common>
 0003:00018d30       glad_glTexCoordFormatNV    000000018003ed30     <common>
 0003:00018d38       GLAD_GL_SGIS_texture_select 000000018003ed38     <common>
 0003:00018d3c       GLAD_GL_ARB_depth_buffer_float 000000018003ed3c     <common>
 0003:00018d40       glad_glGetDebugMessageLogARB 000000018003ed40     <common>
 0003:00018d48       GLAD_GL_SGIS_texture_lod   000000018003ed48     <common>
 0003:00018d4c       GLAD_GL_EXT_direct_state_access 000000018003ed4c     <common>
 0003:00018d50       glad_glTexFilterFuncSGIS   000000018003ed50     <common>
 0003:00018d58       glad_glGetIntegerIndexedvEXT 000000018003ed58     <common>
 0003:00018d60       glad_glReplacementCodeuiTexCoord2fNormal3fVertex3fvSUN 000000018003ed60     <common>
 0003:00018d68       GLAD_GL_ATI_separate_stencil 000000018003ed68     <common>
 0003:00018d70       glad_glDepthBoundsEXT      000000018003ed70     <common>
 0003:00018d78       glad_glUniform2i64vNV      000000018003ed78     <common>
 0003:00018d80       GLAD_GL_EXT_transform_feedback 000000018003ed80     <common>
 0003:00018d88       glad_glUniform3iv          000000018003ed88     <common>
 0003:00018d90       glad_glDeleteVertexArrays  000000018003ed90     <common>
 0003:00018d98       glad_glPNTrianglesfATI     000000018003ed98     <common>
 0003:00018da0       glad_glMatrixIndexusvARB   000000018003eda0     <common>
 0003:00018da8       glad_glGetQueryObjectui64vEXT 000000018003eda8     <common>
 0003:00018db0       glad_glGetObjectPtrLabelKHR 000000018003edb0     <common>
 0003:00018db8       glad_glTexStorage1D        000000018003edb8     <common>
 0003:00018dc0       glad_glGetFloatv           000000018003edc0     <common>
 0003:00018dc8       glad_glNamedRenderbufferStorage 000000018003edc8     <common>
 0003:00018dd0       glad_glGetUniformSubroutineuiv 000000018003edd0     <common>
 0003:00018dd8       glad_glAlphaFuncxOES       000000018003edd8     <common>
 0003:00018de0       glad_glIndexFormatNV       000000018003ede0     <common>
 0003:00018de8       glad_glNamedProgramLocalParameter4fEXT 000000018003ede8     <common>
 0003:00018df0       GLAD_GL_EXT_depth_bounds_test 000000018003edf0     <common>
 0003:00018df8       glad_glBindVertexArray     000000018003edf8     <common>
 0003:00018e00       glad_glPNTrianglesiATI     000000018003ee00     <common>
 0003:00018e08       glad_glIsEnabledIndexedEXT 000000018003ee08     <common>
 0003:00018e10       glad_glPopGroupMarkerEXT   000000018003ee10     <common>
 0003:00018e18       glad_glMatrixIndexubvARB   000000018003ee18     <common>
 0003:00018e20       glad_glGetError            000000018003ee20     <common>
 0003:00018e28       glad_glUniform2iv          000000018003ee28     <common>
 0003:00018e30       glad_glUniform1i64vNV      000000018003ee30     <common>
 0003:00018e38       glad_glGetQueryObjecti64vEXT 000000018003ee38     <common>
 0003:00018e40       glad_glPushGroupMarkerEXT  000000018003ee40     <common>
 0003:00018e48       glad_glPathGlyphIndexRangeNV 000000018003ee48     <common>
 0003:00018e50       glad_glReplacementCodeuiTexCoord2fNormal3fVertex3fSUN 000000018003ee50     <common>
 0003:00018e58       glad_glGetTexFilterFuncSGIS 000000018003ee58     <common>
 0003:00018e60       glad_glGetDoublev          000000018003ee60     <common>
 0003:00018e68       GLAD_GL_OES_fixed_point    000000018003ee68     <common>
 0003:00018e70       glad_glColorFormatNV       000000018003ee70     <common>
 0003:00018e78       glad_glProgramEnvParametersI4ivNV 000000018003ee78     <common>
 0003:00018e80       glad_glFlushMappedBufferRange 000000018003ee80     <common>
 0003:00018e88       GLAD_GL_OES_compressed_paletted_texture 000000018003ee88     <common>
 0003:00018e90       glad_glUniformSubroutinesuiv 000000018003ee90     <common>
 0003:00018e98       glad_glVertex4bvOES        000000018003ee98     <common>
 0003:00018ea0       GLAD_GL_ARB_sparse_texture 000000018003eea0     <common>
 0003:00018ea8       glad_glMemoryBarrier       000000018003eea8     <common>
 0003:00018eb0       glad_glObjectPtrLabelKHR   000000018003eeb0     <common>
 0003:00018eb8       GLAD_GL_ATI_pn_triangles   000000018003eeb8     <common>
 0003:00018ec0       glad_glDisableIndexedEXT   000000018003eec0     <common>
 0003:00018ec8       glad_glCurrentPaletteMatrixARB 000000018003eec8     <common>
 0003:00018ed0       glad_glCreateRenderbuffers 000000018003eed0     <common>
 0003:00018ed8       glad_glNamedBufferPageCommitmentARB 000000018003eed8     <common>
 0003:00018ee0       GLAD_GL_ATI_pixel_format_float 000000018003eee0     <common>
 0003:00018ee4       GLAD_GL_ATI_meminfo        000000018003eee4     <common>
 0003:00018ee8       glad_glInsertEventMarkerEXT 000000018003eee8     <common>
 0003:00018ef0       glad_glUniform4i64NV       000000018003eef0     <common>
 0003:00018ef8       glad_glUnmapObjectBufferATI 000000018003eef8     <common>
 0003:00018f00       glad_glUniform1iv          000000018003ef00     <common>
 0003:00018f08       glad_glBindImageTexture    000000018003ef08     <common>
 0003:00018f10       glad_glGetBooleanv         000000018003ef10     <common>
 0003:00018f18       glad_glDebugMessageCallbackARB 000000018003ef18     <common>
 0003:00018f20       GLAD_GL_EXT_framebuffer_blit 000000018003ef20     <common>
 0003:00018f28       glad_glVertex4bOES         000000018003ef28     <common>
 0003:00018f30       glad_glFogCoordPointerEXT  000000018003ef30     <common>
 0003:00018f38       GLAD_GL_ARB_matrix_palette 000000018003ef38     <common>
 0003:00018f3c       GLAD_GL_EXT_timer_query    000000018003ef3c     <common>
 0003:00018f40       GLAD_GL_SGIS_texture_filter4 000000018003ef40     <common>
 0003:00018f48       glad_glMapBufferRange      000000018003ef48     <common>
 0003:00018f50       GLAD_GL_ARB_map_buffer_range 000000018003ef50     <common>
 0003:00018f58       glad_glNormalFormatNV      000000018003ef58     <common>
 0003:00018f60       GLAD_GL_EXT_texture_swizzle 000000018003ef60     <common>
 0003:00018f64       GLAD_GL_SGIS_texture_edge_clamp 000000018003ef64     <common>
 0003:00018f68       GLAD_GL_ARB_map_buffer_alignment 000000018003ef68     <common>
 0003:00018f70       glad_glTextureColorMaskSGIS 000000018003ef70     <common>
 0003:00018f78       glad_glGetNamedFramebufferAttachmentParameteriv 000000018003ef78     <common>
 0003:00018f80       GLAD_GL_EXT_texture_snorm  000000018003ef80     <common>
 0003:00018f88       glad_glEnableIndexedEXT    000000018003ef88     <common>
 0003:00018f90       glad_glProgramEnvParameterI4ivNV 000000018003ef90     <common>
 0003:00018f98       glad_glMapObjectBufferATI  000000018003ef98     <common>
 0003:00018fa0       GLAD_GL_ARB_invalidate_subdata 000000018003efa0     <common>
 0003:00018fa8       glad_glGetObjectLabelKHR   000000018003efa8     <common>
 0003:00018fb0       GLAD_GL_EXT_texture_shared_exponent 000000018003efb0     <common>
 0003:00018fb8       glad_glGetActiveSubroutineName 000000018003efb8     <common>
 0003:00018fc0       GLAD_GL_EXT_debug_marker   000000018003efc0     <common>
 0003:00018fc4       GLAD_GL_EXT_texture_sRGB_decode 000000018003efc4     <common>
 0003:00018fc8       GLAD_GL_ARB_internalformat_query2 000000018003efc8     <common>
 0003:00018fd0       glad_glNamedProgramLocalParameter4dvEXT 000000018003efd0     <common>
 0003:00018fd8       glad_glGetObjectLabelEXT   000000018003efd8     <common>
 0003:00018fe0       glad_glDebugMessageInsertARB 000000018003efe0     <common>
 0003:00018fe8       GLAD_GL_EXT_texture_sRGB   000000018003efe8     <common>
 0003:00018ff0       glad_glReadPixels          000000018003eff0     <common>
 0003:00018ff8       GLAD_GL_ARB_internalformat_query 000000018003eff8     <common>
 0003:00019000       glad_glVertexAttribDivisorARB 000000018003f000     <common>
 0003:00019008       glad_glNamedBufferPageCommitmentEXT 000000018003f008     <common>
 0003:00019010       glad_glTextureNormalEXT    000000018003f010     <common>
 0003:00019018       glad_glStencilThenCoverStrokePathInstancedNV 000000018003f018     <common>
 0003:00019020       glad_glVertexFormatNV      000000018003f020     <common>
 0003:00019028       glad_glUniform4fv          000000018003f028     <common>
 0003:00019030       GLAD_GL_ATI_map_object_buffer 000000018003f030     <common>
 0003:00019038       glad_glFogCoorddvEXT       000000018003f038     <common>
 0003:00019040       glad_glSetFragmentShaderConstantATI 000000018003f040     <common>
 0003:00019048       glad_glGetPointerIndexedvEXT 000000018003f048     <common>
 0003:00019050       glad_glVertex3bvOES        000000018003f050     <common>
 0003:00019058       GLAD_GL_EXT_texture_perturb_normal 000000018003f058     <common>
 0003:00019060       glad_glFramebufferTextureLayer 000000018003f060     <common>
 0003:00019068       glad_glProgramEnvParameterI4iNV 000000018003f068     <common>
 0003:00019070       glad_glUniform3i64NV       000000018003f070     <common>
 0003:00019078       glad_glPrioritizeTexturesEXT 000000018003f078     <common>
 0003:00019080       GLAD_GL_SGIS_texture_color_mask 000000018003f080     <common>
 0003:00019088       glad_glReplacementCodeuiTexCoord2fVertex3fvSUN 000000018003f088     <common>
 0003:00019090       glad_glFogCoorddEXT        000000018003f090     <common>
 0003:00019098       glad_glGetNamedFramebufferParameteriv 000000018003f098     <common>
 0003:000190a0       GLAD_GL_ARB_instanced_arrays 000000018003f0a0     <common>
 0003:000190a4       GLAD_GL_SGIS_texture_border_clamp 000000018003f0a4     <common>
 0003:000190a8       glad_glMultiDrawElementsIndirectCountARB 000000018003f0a8     <common>
 0003:000190b0       glad_glVertex3bOES         000000018003f0b0     <common>
 0003:000190b8       glad_glAlphaFragmentOp3ATI 000000018003f0b8     <common>
 0003:000190c0       glad_glNamedProgramLocalParameter4dEXT 000000018003f0c0     <common>
 0003:000190c8       glad_glTexSubImage4DSGIS   000000018003f0c8     <common>
 0003:000190d0       glad_glObjectLabelKHR      000000018003f0d0     <common>
 0003:000190d8       glad_glGetActiveAtomicCounterBufferiv 000000018003f0d8     <common>
 0003:000190e0       glad_glBufferAddressRangeNV 000000018003f0e0     <common>
 0003:000190e8       glad_glUniform3fv          000000018003f0e8     <common>
 0003:000190f0       glad_glGetDoubleIndexedvEXT 000000018003f0f0     <common>
 0003:000190f8       glad_glBufferPageCommitmentARB 000000018003f0f8     <common>
 0003:00019100       glad_glFogCoordfvEXT       000000018003f100     <common>
 0003:00019108       glad_glLabelObjectEXT      000000018003f108     <common>
 0003:00019110       glad_glGetActiveSubroutineUniformName 000000018003f110     <common>
 0003:00019118       glad_glIsTextureEXT        000000018003f118     <common>
 0003:00019120       glad_glDebugMessageControlARB 000000018003f120     <common>
 0003:00019128       glad_glReplacementCodeuiTexCoord2fVertex3fSUN 000000018003f128     <common>
 0003:00019130       glad_glCheckNamedFramebufferStatus 000000018003f130     <common>
 0003:00019138       glad_glFogCoordfEXT        000000018003f138     <common>
 0003:00019140       glad_glUniform2i64NV       000000018003f140     <common>
 0003:00019148       glad_glVertex2bvOES        000000018003f148     <common>
 0003:00019150       glad_glReadBuffer          000000018003f150     <common>
 0003:00019158       glad_glRenderbufferStorageMultisample 000000018003f158     <common>
 0003:00019160       glad_glUniform2fv          000000018003f160     <common>
 0003:00019168       glad_glGenTexturesEXT      000000018003f168     <common>
 0003:00019170       GLAD_GL_EXT_fog_coord      000000018003f170     <common>
 0003:00019178       glad_glGetFloatIndexedvEXT 000000018003f178     <common>
 0003:00019180       glad_glPopDebugGroupKHR    000000018003f180     <common>
 0003:00019188       glad_glVertex2bOES         000000018003f188     <common>
 0003:00019190       glad_glGetInternalformativ 000000018003f190     <common>
 0003:00019198       glad_glPixelStorei         000000018003f198     <common>
 0003:000191a0       glad_glProgramLocalParametersI4uivNV 000000018003f1a0     <common>
 0003:000191a8       glad_glDrawRangeElementsEXT 000000018003f1a8     <common>
 0003:000191b0       GLAD_GL_NV_vertex_buffer_unified_memory 000000018003f1b0     <common>
 0003:000191b8       glad_glVertexAttribLFormatNV 000000018003f1b8     <common>
 0003:000191c0       glad_glStencilThenCoverFillPathInstancedNV 000000018003f1c0     <common>
 0003:000191c8       GLAD_GL_ARB_sparse_buffer  000000018003f1c8     <common>
 0003:000191d0       glad_glBlitNamedFramebuffer 000000018003f1d0     <common>
 0003:000191d8       GLAD_GL_EXT_debug_label    000000018003f1d8     <common>
 0003:000191e0       glad_glPushDebugGroupKHR   000000018003f1e0     <common>
 0003:000191e8       GLAD_GL_ARB_shadow_ambient 000000018003f1e8     <common>
 0003:000191f0       glad_glMultiDrawArraysIndirectCountARB 000000018003f1f0     <common>
 0003:000191f8       GLAD_GL_ARB_shadow         000000018003f1f8     <common>
 0003:00019200       glad_glCullParameterfvEXT  000000018003f200     <common>
 0003:00019208       glad_glDeleteTexturesEXT   000000018003f208     <common>
 0003:00019210       glad_glUniform1i64NV       000000018003f210     <common>
 0003:00019218       GLAD_GL_ARB_shading_language_packing 000000018003f218     <common>
 0003:00019220       glad_glNamedProgramStringEXT 000000018003f220     <common>
 0003:00019228       glad_glGetNamedStringivARB 000000018003f228     <common>
 0003:00019230       glad_glGetActiveSubroutineUniformiv 000000018003f230     <common>
 0003:00019238       glad_glTexCoord4bvOES      000000018003f238     <common>
 0003:00019240       glad_glPixelStoref         000000018003f240     <common>
 0003:00019248       glad_glUniform1fv          000000018003f248     <common>
 0003:00019250       glad_glDisableClientStateIndexedEXT 000000018003f250     <common>
 0003:00019258       GLAD_GL_ARB_debug_output   000000018003f258     <common>
 0003:00019260       glad_glCullParameterdvEXT  000000018003f260     <common>
 0003:00019268       glad_glReplacementCodeuiColor4fNormal3fVertex3fvSUN 000000018003f268     <common>
 0003:00019270       GLAD_GL_ARB_cull_distance  000000018003f270     <common>
 0003:00019278       glad_glTexCoord4bOES       000000018003f278     <common>
 0003:00019280       GLAD_GL_ARB_copy_image     000000018003f280     <common>
 0003:00019288       glad_glBindTextureEXT      000000018003f288     <common>
 0003:00019290       GLAD_GL_AMD_gpu_shader_int64 000000018003f290     <common>
 0003:00019298       glad_glBlitFramebuffer     000000018003f298     <common>
 0003:000192a0       glad_glProgramLocalParameterI4uivNV 000000018003f2a0     <common>
 0003:000192a8       GLAD_GL_AMD_gpu_shader_half_float 000000018003f2a8     <common>
 0003:000192ac       GLAD_GL_ARB_copy_buffer    000000018003f2ac     <common>
 0003:000192b0       glad_glGetVertexAttribLui64vNV 000000018003f2b0     <common>
 0003:000192b8       glad_glDepthFunc           000000018003f2b8     <common>
 0003:000192c0       GLAD_GL_AMD_gcn_shader     000000018003f2c0     <common>
 0003:000192c8       glad_glDrawElementsInstancedBaseVertexBaseInstance 000000018003f2c8     <common>
 0003:000192d0       GLAD_GL_ARB_conservative_depth 000000018003f2d0     <common>
 0003:000192d8       glad_glGetDebugMessageLogKHR 000000018003f2d8     <common>
 0003:000192e0       glad_glBlendEquationSeparateIndexedAMD 000000018003f2e0     <common>
 0003:000192e8       glad_glEnableClientStateIndexedEXT 000000018003f2e8     <common>
 0003:000192f0       GLAD_GL_ARB_conditional_render_inverted 000000018003f2f0     <common>
 0003:000192f8       glad_glUniform4i           000000018003f2f8     <common>
 0003:00019300       GLAD_GL_ARB_indirect_parameters 000000018003f300     <common>
 0003:00019304       GLAD_GL_EXT_draw_range_elements 000000018003f304     <common>
 0003:00019308       glad_glDispatchComputeGroupSizeARB 000000018003f308     <common>
 0003:00019310       glad_glAlphaFragmentOp2ATI 000000018003f310     <common>
 0003:00019318       GLAD_GL_EXT_cull_vertex    000000018003f318     <common>
 0003:00019320       glad_glResetMinmax         000000018003f320     <common>
 0003:00019328       glad_glGetNamedStringARB   000000018003f328     <common>
 0003:00019330       glad_glDrawElementsInstancedEXT 000000018003f330     <common>
 0003:00019338       glad_glAreTexturesResidentEXT 000000018003f338     <common>
 0003:00019340       glad_glStencilOp           000000018003f340     <common>
 0003:00019348       glad_glCopyTexSubImage3DEXT 000000018003f348     <common>
 0003:00019350       glad_glTexImage4DSGIS      000000018003f350     <common>
 0003:00019358       glad_glGetPointeri_vEXT    000000018003f358     <common>
 0003:00019360       glad_glGetSubroutineIndex  000000018003f360     <common>
 0003:00019368       glad_glProgramLocalParameterI4uiNV 000000018003f368     <common>
 0003:00019370       glad_glReplacementCodeuiColor4fNormal3fVertex3fSUN 000000018003f370     <common>
 0003:00019378       glad_glResetHistogram      000000018003f378     <common>
 0003:00019380       glad_glCopyMultiTexSubImage3DEXT 000000018003f380     <common>
 0003:00019388       glad_glGetVertexAttribLi64vNV 000000018003f388     <common>
 0003:00019390       glad_glTexCoord3bvOES      000000018003f390     <common>
 0003:00019398       glad_glStencilThenCoverStrokePathNV 000000018003f398     <common>
 0003:000193a0       glad_glBlendEquationIndexedAMD 000000018003f3a0     <common>
 0003:000193a8       glad_glMinmax              000000018003f3a8     <common>
 0003:000193b0       glad_glTexCoord3bOES       000000018003f3b0     <common>
 0003:000193b8       glad_glStencilFunc         000000018003f3b8     <common>
 0003:000193c0       GLAD_GL_EXT_texture_object 000000018003f3c0     <common>
 0003:000193c8       glad_glGetDoublei_vEXT     000000018003f3c8     <common>
 0003:000193d0       GLAD_GL_EXT_texture_mirror_clamp 000000018003f3d0     <common>
 0003:000193d8       glad_glUniform3i           000000018003f3d8     <common>
 0003:000193e0       GLAD_GL_EXT_texture_lod_bias 000000018003f3e0     <common>
 0003:000193e8       glad_glGetSubroutineUniformLocation 000000018003f3e8     <common>
 0003:000193f0       glad_glClearNamedFramebufferfi 000000018003f3f0     <common>
 0003:000193f8       glad_glVertexAttribL4ui64vNV 000000018003f3f8     <common>
 0003:00019400       glad_glBlendFuncSeparateIndexedAMD 000000018003f400     <common>
 0003:00019408       glad_glClearColorIuiEXT    000000018003f408     <common>
 0003:00019410       glad_glIsNamedStringARB    000000018003f410     <common>
 0003:00019418       glad_glDrawArraysInstancedEXT 000000018003f418     <common>
 0003:00019420       glad_glDrawElementsInstancedBaseInstance 000000018003f420     <common>
 0003:00019428       GLAD_GL_ARB_compute_variable_group_size 000000018003f428     <common>
 0003:0001942c       GLAD_GL_ARB_compute_shader 000000018003f42c     <common>
 0003:00019430       GLAD_GL_ARB_compressed_texture_pixel_storage 000000018003f430     <common>
 0003:00019438       glad_glDebugMessageCallbackKHR 000000018003f438     <common>
 0003:00019440       glad_glHistogram           000000018003f440     <common>
 0003:00019448       glad_glStencilThenCoverFillPathNV 000000018003f448     <common>
 0003:00019450       GLAD_GL_ARB_compatibility  000000018003f450     <common>
 0003:00019458       glad_glProgramLocalParametersI4ivNV 000000018003f458     <common>
 0003:00019460       glad_glGenerateMipmap      000000018003f460     <common>
 0003:00019468       glad_glTexCoord2bvOES      000000018003f468     <common>
 0003:00019470       glad_glLogicOp             000000018003f470     <common>
 0003:00019478       glad_glClampColorARB       000000018003f478     <common>
 0003:00019480       glad_glVertexAttribL3ui64vNV 000000018003f480     <common>
 0003:00019488       glad_glGetFloati_vEXT      000000018003f488     <common>
 0003:00019490       glad_glCompileShaderIncludeARB 000000018003f490     <common>
 0003:00019498       glad_glGetUniformdv        000000018003f498     <common>
 0003:000194a0       glad_glAlphaFragmentOp1ATI 000000018003f4a0     <common>
 0003:000194a8       glad_glTexCoord2bOES       000000018003f4a8     <common>
 0003:000194b0       glad_glCopyTexSubImage2DEXT 000000018003f4b0     <common>
 0003:000194b8       glad_glDebugMessageInsertKHR 000000018003f4b8     <common>
 0003:000194c0       glad_glGetFramebufferAttachmentParameteriv 000000018003f4c0     <common>
 0003:000194c8       glad_glBlendFunc           000000018003f4c8     <common>
 0003:000194d0       glad_glUniform2i           000000018003f4d0     <common>
 0003:000194d8       glad_glClearColorIiEXT     000000018003f4d8     <common>
 0003:000194e0       GLAD_GL_EXT_draw_instanced 000000018003f4e0     <common>
 0003:000194e8       glad_glColorMaskIndexedEXT 000000018003f4e8     <common>
 0003:000194f0       GLAD_GL_ARB_color_buffer_float 000000018003f4f0     <common>
 0003:000194f8       glad_glVertexAttribL2ui64vNV 000000018003f4f8     <common>
 0003:00019500       glad_glClearNamedFramebufferfv 000000018003f500     <common>
 0003:00019508       glad_glBlendFuncIndexedAMD 000000018003f508     <common>
 0003:00019510       GLAD_GL_ARB_clip_control   000000018003f510     <common>
 0003:00019514       GLAD_GL_ARB_clear_texture  000000018003f514     <common>
 0003:00019518       GLAD_GL_ARB_clear_buffer_object 000000018003f518     <common>
 0003:0001951c       GLAD_GL_SGIS_texture4D     000000018003f51c     <common>
 0003:00019520       glad_glDisableClientStateiEXT 000000018003f520     <common>
 0003:00019528       glad_glGetMinmaxParameteriv 000000018003f528     <common>
 0003:00019530       glad_glMatrixMultTranspose3x3fNV 000000018003f530     <common>
 0003:00019538       glad_glMultiTexSubImage3DEXT 000000018003f538     <common>
 0003:00019540       glad_glGetSharpenTexFuncSGIS 000000018003f540     <common>
 0003:00019548       glad_glCreateSyncFromCLeventARB 000000018003f548     <common>
 0003:00019550       glad_glUniformMatrix4x3dv  000000018003f550     <common>
 0003:00019558       glad_glFlush               000000018003f558     <common>
 0003:00019560       glad_glTexCoord1bvOES      000000018003f560     <common>
 0003:00019568       glad_glDrawArraysInstancedBaseInstance 000000018003f568     <common>
 0003:00019570       glad_glProgramLocalParameterI4ivNV 000000018003f570     <common>
 0003:00019578       glad_glReplacementCodeuiNormal3fVertex3fvSUN 000000018003f578     <common>
 0003:00019580       glad_glDeleteNamedStringARB 000000018003f580     <common>
 0003:00019588       glad_glUniform1i           000000018003f588     <common>
 0003:00019590       glad_glFinish              000000018003f590     <common>
 0003:00019598       glad_glVertexAttribL1ui64vNV 000000018003f598     <common>
 0003:000195a0       glad_glEnable              000000018003f5a0     <common>
 0003:000195a8       glad_glFramebufferRenderbuffer 000000018003f5a8     <common>
 0003:000195b0       glad_glTexCoord1bOES       000000018003f5b0     <common>
 0003:000195b8       glad_glMatrixMult3x3fNV    000000018003f5b8     <common>
 0003:000195c0       glad_glEnableClientStateiEXT 000000018003f5c0     <common>
 0003:000195c8       glad_glGetTexParameterIuivEXT 000000018003f5c8     <common>
 0003:000195d0       GLAD_GL_AMD_draw_buffers_blend 000000018003f5d0     <common>
 0003:000195d8       glad_glSharpenTexFuncSGIS  000000018003f5d8     <common>
 0003:000195e0       GLAD_GL_AMD_depth_clamp_separate 000000018003f5e0     <common>
 0003:000195e8       glad_glGetMinmaxParameterfv 000000018003f5e8     <common>
 0003:000195f0       glad_glNamedStringARB      000000018003f5f0     <common>
 0003:000195f8       glad_glClearNamedFramebufferuiv 000000018003f5f8     <common>
 0003:00019600       glad_glGetDebugMessageLogAMD 000000018003f600     <common>
 0003:00019608       glad_glColorFragmentOp3ATI 000000018003f608     <common>
 0003:00019610       glad_glMultiTexCoord4bvOES 000000018003f610     <common>
 0003:00019618       GLAD_GL_ARB_cl_event       000000018003f618     <common>
 0003:00019620       glad_glUniform4f           000000018003f620     <common>
 0003:00019628       glad_glDebugMessageControlKHR 000000018003f628     <common>
 0003:00019630       glad_glDisable             000000018003f630     <common>
 0003:00019638       glad_glProgramLocalParameterI4iNV 000000018003f638     <common>
 0003:00019640       GLAD_GL_EXT_draw_buffers2  000000018003f640     <common>
 0003:00019648       glad_glVertexAttribL4ui64NV 000000018003f648     <common>
 0003:00019650       glad_glReplacementCodeuiNormal3fVertex3fSUN 000000018003f650     <common>
 0003:00019658       glad_glVertexArrayVertexAttribDivisorEXT 000000018003f658     <common>
 0003:00019660       GLAD_GL_ARB_buffer_storage 000000018003f660     <common>
 0003:00019668       glad_glUniformMatrix4x2dv  000000018003f668     <common>
 0003:00019670       GLAD_GL_ARB_blend_func_extended 000000018003f670     <common>
 0003:00019678       glad_glGetNamedProgramLocalParameterIuivEXT 000000018003f678     <common>
 0003:00019680       glad_glMatrixMult3x2fNV    000000018003f680     <common>
 0003:00019688       glad_glGetVertexAttribLui64vARB 000000018003f688     <common>
 0003:00019690       glad_glCopyTexSubImage1DEXT 000000018003f690     <common>
 0003:00019698       GLAD_GL_VERSION_4_2        000000018003f698     <common>
 0003:000196a0       glad_glDepthMask           000000018003f6a0     <common>
 0003:000196a8       glad_glGetTexParameterIivEXT 000000018003f6a8     <common>
 0003:000196b0       glad_glGetDoublei_v        000000018003f6b0     <common>
 0003:000196b8       glad_glMultiTexCoord4bOES  000000018003f6b8     <common>
 0003:000196c0       glad_glFramebufferTexture3D 000000018003f6c0     <common>
 0003:000196c8       GLAD_GL_SGIS_sharpen_texture 000000018003f6c8     <common>
 0003:000196d0       glad_glGetMinmax           000000018003f6d0     <common>
 0003:000196d8       glad_glPointParameterfvSGIS 000000018003f6d8     <common>
 0003:000196e0       glad_glColorMask           000000018003f6e0     <common>
 0003:000196e8       glad_glTexturePageCommitmentEXT 000000018003f6e8     <common>
 0003:000196f0       glad_glClearNamedFramebufferiv 000000018003f6f0     <common>
 0003:000196f8       glad_glMatrixLoadTranspose3x3fNV 000000018003f6f8     <common>
 0003:00019700       GLAD_GL_ARB_shading_language_include 000000018003f700     <common>
 0003:00019708       glad_glVertexAttribL1ui64vARB 000000018003f708     <common>
 0003:00019710       glad_glUniformMatrix3x4dv  000000018003f710     <common>
 0003:00019718       glad_glUniform3f           000000018003f718     <common>
 0003:00019720       GLAD_GL_ARB_shading_language_420pack 000000018003f720     <common>
 0003:00019728       glad_glGetNamedProgramLocalParameterIivEXT 000000018003f728     <common>
 0003:00019730       glad_glVertexAttribL3ui64NV 000000018003f730     <common>
 0003:00019738       GLAD_GL_ARB_shading_language_100 000000018003f738     <common>
 0003:00019740       glad_glTexParameterIuivEXT 000000018003f740     <common>
 0003:00019748       glad_glGetFloati_v         000000018003f748     <common>
 0003:00019750       glad_glPointParameterfSGIS 000000018003f750     <common>
 0003:00019758       GLAD_GL_NV_gpu_program4    000000018003f758     <common>
 0003:00019760       glad_glGetPointerv         000000018003f760     <common>
 0003:00019768       GLAD_GL_ARB_shader_viewport_layer_array 000000018003f768     <common>
 0003:0001976c       GLAD_GL_ARB_shader_texture_lod 000000018003f76c     <common>
 0003:00019770       glad_glDebugMessageCallbackAMD 000000018003f770     <common>
 0003:00019778       GLAD_GL_NV_geometry_shader_passthrough 000000018003f778     <common>
 0003:00019780       glad_glMatrixLoad3x3fNV    000000018003f780     <common>
 0003:00019788       GLAD_GL_NV_geometry_shader4 000000018003f788     <common>
 0003:0001978c       GLAD_GL_ARB_shader_texture_image_samples 000000018003f78c     <common>
 0003:00019790       glad_glReplacementCodeuiColor3fVertex3fvSUN 000000018003f790     <common>
 0003:00019798       GLAD_GL_ARB_shader_subroutine 000000018003f798     <common>
 0003:000197a0       glad_glVertexAttribL1ui64ARB 000000018003f7a0     <common>
 0003:000197a8       glad_glMultiTexImage3DEXT  000000018003f7a8     <common>
 0003:000197b0       glad_glFramebufferTextureFaceEXT 000000018003f7b0     <common>
 0003:000197b8       glad_glMultiTexCoord3bvOES 000000018003f7b8     <common>
 0003:000197c0       GLAD_GL_ARB_shader_storage_buffer_object 000000018003f7c0     <common>
 0003:000197c8       glad_glStencilMask         000000018003f7c8     <common>
 0003:000197d0       glad_glCopyTexImage2DEXT   000000018003f7d0     <common>
 0003:000197d8       glad_glInvalidateNamedFramebufferSubData 000000018003f7d8     <common>
 0003:000197e0       GLAD_GL_ARB_shader_stencil_export 000000018003f7e0     <common>
 0003:000197e4       GLAD_GL_SGIS_point_parameters 000000018003f7e4     <common>
 0003:000197e8       glad_glGetHistogramParameteriv 000000018003f7e8     <common>
 0003:000197f0       GLAD_GL_KHR_debug          000000018003f7f0     <common>
 0003:000197f4       GLAD_GL_SGIS_point_line_texgen 000000018003f7f4     <common>
 0003:000197f8       GLAD_GL_ARB_shader_precision 000000018003f7f8     <common>
 0003:00019800       glad_glFramebufferTexture2D 000000018003f800     <common>
 0003:00019808       glad_glDebugMessageInsertAMD 000000018003f808     <common>
 0003:00019810       glad_glMatrixLoad3x2fNV    000000018003f810     <common>
 0003:00019818       glad_glDepthRangeIndexed   000000018003f818     <common>
 0003:00019820       glad_glGetShaderSourceARB  000000018003f820     <common>
 0003:00019828       GLAD_GL_KHR_context_flush_control 000000018003f828     <common>
 0003:00019830       glad_glGetPixelTexGenParameterfvSGIS 000000018003f830     <common>
 0003:00019838       glad_glTexParameterIivEXT  000000018003f838     <common>
 0003:00019840       glad_glUniformMatrix3x2dv  000000018003f840     <common>
 0003:00019848       glad_glClearDepth          000000018003f848     <common>
 0003:00019850       glad_glUniform2f           000000018003f850     <common>
 0003:00019858       GLAD_GL_KHR_blend_equation_advanced_coherent 000000018003f858     <common>
 0003:00019860       glad_glVertexAttribL2ui64NV 000000018003f860     <common>
 0003:00019868       glad_glNamedProgramLocalParametersI4uivEXT 000000018003f868     <common>
 0003:00019870       glad_glIsImageHandleResidentARB 000000018003f870     <common>
 0003:00019878       glad_glBlendBarrierKHR     000000018003f878     <common>
 0003:00019880       glad_glMultiTexCoord3bOES  000000018003f880     <common>
 0003:00019888       GLAD_GL_KHR_blend_equation_advanced 000000018003f888     <common>
 0003:00019890       glad_glReplacementCodeuiColor3fVertex3fSUN 000000018003f890     <common>
 0003:00019898       glad_glGetPerfQueryInfoINTEL 000000018003f898     <common>
 0003:000198a0       glad_glClearStencil        000000018003f8a0     <common>
 0003:000198a8       glad_glColorFragmentOp2ATI 000000018003f8a8     <common>
 0003:000198b0       glad_glPointAlongPathNV    000000018003f8b0     <common>
 0003:000198b8       glad_glGetHistogramParameterfv 000000018003f8b8     <common>
 0003:000198c0       glad_glIsTextureHandleResidentARB 000000018003f8c0     <common>
 0003:000198c8       glad_glGetPixelTexGenParameterivSGIS 000000018003f8c8     <common>
 0003:000198d0       glad_glFramebufferTextureEXT 000000018003f8d0     <common>
 0003:000198d8       GLAD_GL_EXT_texture_integer 000000018003f8d8     <common>
 0003:000198e0       glad_glVertexArrayVertexAttribLOffsetEXT 000000018003f8e0     <common>
 0003:000198e8       glad_glDepthRangeArrayv    000000018003f8e8     <common>
 0003:000198f0       glad_glClearColor          000000018003f8f0     <common>
 0003:000198f8       GLAD_GL_EXT_texture_filter_minmax 000000018003f8f8     <common>
 0003:00019900       glad_glUniform1f           000000018003f900     <common>
 0003:00019908       glad_glProgramUniformHandleui64vARB 000000018003f908     <common>
 0003:00019910       GLAD_GL_EXT_texture_filter_anisotropic 000000018003f910     <common>
 0003:00019918       glad_glVertexAttribL1ui64NV 000000018003f918     <common>
 0003:00019920       glad_glGetUniformivARB     000000018003f920     <common>
 0003:00019928       glad_glFramebufferTexture1D 000000018003f928     <common>
 0003:00019930       GLAD_GL_EXT_texture_env_dot3 000000018003f930     <common>
 0003:00019938       glad_glUniformMatrix2x4dv  000000018003f938     <common>
 0003:00019940       glad_glPixelTexGenParameterfvSGIS 000000018003f940     <common>
 0003:00019948       GLAD_GL_EXT_texture_env_combine 000000018003f948     <common>
 0003:00019950       glad_glDebugMessageEnableAMD 000000018003f950     <common>
 0003:00019958       GLAD_GL_EXT_texture_env_add 000000018003f958     <common>
 0003:00019960       glad_glMultiTexCoord2bvOES 000000018003f960     <common>
 0003:00019968       glad_glNamedProgramLocalParameterI4uivEXT 000000018003f968     <common>
 0003:00019970       GLAD_GL_EXT_texture_cube_map 000000018003f970     <common>
 0003:00019978       glad_glInvalidateNamedFramebufferData 000000018003f978     <common>
 0003:00019980       glad_glGetHistogram        000000018003f980     <common>
 0003:00019988       glad_glCopyTexImage1DEXT   000000018003f988     <common>
 0003:00019990       glad_glUseProgram          000000018003f990     <common>
 0003:00019998       GLAD_GL_EXT_texture_compression_s3tc 000000018003f998     <common>
 0003:000199a0       glad_glScissorIndexedv     000000018003f9a0     <common>
 0003:000199a8       GLAD_GL_EXT_texture_compression_rgtc 000000018003f9a8     <common>
 0003:000199b0       glad_glVertexAttribL4i64vNV 000000018003f9b0     <common>
 0003:000199b8       GLAD_GL_EXT_texture_compression_latc 000000018003f9b8     <common>
 0003:000199c0       glad_glTexBufferEXT        000000018003f9c0     <common>
 0003:000199c8       glad_glPixelTexGenParameterfSGIS 000000018003f9c8     <common>
 0003:000199d0       glad_glProgramVertexLimitNV 000000018003f9d0     <common>
 0003:000199d8       glad_glGetUniformfvARB     000000018003f9d8     <common>
 0003:000199e0       glad_glShaderSource        000000018003f9e0     <common>
 0003:000199e8       glad_glClear               000000018003f9e8     <common>
 0003:000199f0       glad_glMultiTexCoord2bOES  000000018003f9f0     <common>
 0003:000199f8       glad_glGetMultiTexLevelParameterivEXT 000000018003f9f8     <common>
 0003:00019a00       glad_glReplacementCodeuiColor4ubVertex3fvSUN 000000018003fa00     <common>
 0003:00019a08       glad_glProgramUniformHandleui64ARB 000000018003fa08     <common>
 0003:00019a10       glad_glGetPerfQueryIdByNameINTEL 000000018003fa10     <common>
 0003:00019a18       glad_glUniformMatrix2x3dv  000000018003fa18     <common>
 0003:00019a20       glad_glVertexAttribL3i64vNV 000000018003fa20     <common>
 0003:00019a28       glad_glScissorIndexed      000000018003fa28     <common>
 0003:00019a30       glad_glNamedFramebufferReadBuffer 000000018003fa30     <common>
 0003:00019a38       glad_glDrawBuffer          000000018003fa38     <common>
 0003:00019a40       glad_glCheckFramebufferStatus 000000018003fa40     <common>
 0003:00019a48       glad_glNamedProgramLocalParameterI4uiEXT 000000018003fa48     <common>
 0003:00019a50       glad_glVertexArrayVertexBindingDivisorEXT 000000018003fa50     <common>
 0003:00019a58       GLAD_GL_AMD_debug_output   000000018003fa58     <common>
 0003:00019a60       glad_glGetPathLengthNV     000000018003fa60     <common>
 0003:00019a68       GLAD_GL_NV_geometry_program4 000000018003fa68     <common>
 0003:00019a70       glad_glPixelTexGenParameterivSGIS 000000018003fa70     <common>
 0003:00019a78       glad_glRenderbufferStorageMultisampleCoverageNV 000000018003fa78     <common>
 0003:00019a80       GLAD_GL_AMD_conservative_depth 000000018003fa80     <common>
 0003:00019a84       GLAD_GL_EXT_texture_buffer_object 000000018003fa84     <common>
 0003:00019a88       GLAD_GL_AMD_blend_minmax_factor 000000018003fa88     <common>
 0003:00019a90       glad_glGetActiveUniformARB 000000018003fa90     <common>
 0003:00019a98       glad_glSeparableFilter2D   000000018003fa98     <common>
 0003:00019aa0       GLAD_GL_3DFX_texture_compression_FXT1 000000018003faa0     <common>
 0003:00019aa8       glad_glFramebufferTextureLayerEXT 000000018003faa8     <common>
 0003:00019ab0       glad_glTexImage2D          000000018003fab0     <common>
 0003:00019ab8       glad_glGenFramebuffers     000000018003fab8     <common>
 0003:00019ac0       glad_glGetPerfQueryDataINTEL 000000018003fac0     <common>
 0003:00019ac8       glad_glMultiTexCoord1bvOES 000000018003fac8     <common>
 0003:00019ad0       glad_glVertexAttribL2i64vNV 000000018003fad0     <common>
 0003:00019ad8       glad_glUniformHandleui64vARB 000000018003fad8     <common>
 0003:00019ae0       glad_glTbufferMask3DFX     000000018003fae0     <common>
 0003:00019ae8       glad_glColorFragmentOp1ATI 000000018003fae8     <common>
 0003:00019af0       glad_glReplacementCodeuiColor4ubVertex3fSUN 000000018003faf0     <common>
 0003:00019af8       glad_glNamedFramebufferDrawBuffers 000000018003faf8     <common>
 0003:00019b00       glad_glLinkProgram         000000018003fb00     <common>
 0003:00019b08       glad_glPixelTexGenParameteriSGIS 000000018003fb08     <common>
 0003:00019b10       GLAD_GL_EXT_copy_texture   000000018003fb10     <common>
 0003:00019b18       glad_glUniformMatrix4dv    000000018003fb18     <common>
 0003:00019b20       glad_glIsPointInStrokePathNV 000000018003fb20     <common>
 0003:00019b28       GLAD_GL_3DFX_tbuffer       000000018003fb28     <common>
 0003:00019b30       glad_glGetMultiTexLevelParameterfvEXT 000000018003fb30     <common>
 0003:00019b38       glad_glBinormalPointerEXT  000000018003fb38     <common>
 0003:00019b40       glad_glVertexArrayVertexAttribBindingEXT 000000018003fb40     <common>
 0003:00019b48       GLAD_GL_3DFX_multisample   000000018003fb48     <common>
 0003:00019b50       glad_glIsShader            000000018003fb50     <common>
 0003:00019b58       glad_glMultiTexCoord1bOES  000000018003fb58     <common>
 0003:00019b60       glad_glDeleteFramebuffers  000000018003fb60     <common>
 0003:00019b68       glad_glVertexAttribL1i64vNV 000000018003fb68     <common>
 0003:00019b70       glad_glTextureBarrier      000000018003fb70     <common>
 0003:00019b78       glad_glScissorArrayv       000000018003fb78     <common>
 0003:00019b80       glad_glNamedFramebufferDrawBuffer 000000018003fb80     <common>
 0003:00019b88       glad_glUniformHandleui64ARB 000000018003fb88     <common>
 0003:00019b90       GLAD_GL_SGIS_pixel_texture 000000018003fb90     <common>
 0003:00019b98       glad_glGetnMinmax          000000018003fb98     <common>
 0003:00019ba0       glad_glSamplePatternSGIS   000000018003fba0     <common>
 0003:00019ba8       glad_glIsProgram           000000018003fba8     <common>
 0003:00019bb0       GLAD_GL_EXT_texture_array  000000018003fbb0     <common>
 0003:00019bb4       GLAD_GL_OES_byte_coordinates 000000018003fbb4     <common>
 0003:00019bb8       glad_glGetPerfCounterInfoINTEL 000000018003fbb8     <common>
 0003:00019bc0       GLAD_GL_NV_framebuffer_multisample_coverage 000000018003fbc0     <common>
 0003:00019bc8       glad_glBindFramebuffer     000000018003fbc8     <common>
 0003:00019bd0       glad_glNamedProgramLocalParametersI4ivEXT 000000018003fbd0     <common>
 0003:00019bd8       glad_glVertexAttribL4i64NV 000000018003fbd8     <common>
 0003:00019be0       glad_glTangentPointerEXT   000000018003fbe0     <common>
 0003:00019be8       glad_glIsPointInFillPathNV 000000018003fbe8     <common>
 0003:00019bf0       glad_glCoverageModulationNV 000000018003fbf0     <common>
 0003:00019bf8       glad_glVertexArrayVertexAttribLFormatEXT 000000018003fbf8     <common>
 0003:00019c00       glad_glViewportSwizzleNV   000000018003fc00     <common>
 0003:00019c08       glad_glTexSubImage3DEXT    000000018003fc08     <common>
 0003:00019c10       glad_glUniformMatrix3dv    000000018003fc10     <common>
 0003:00019c18       glad_glSampleMaskSGIS      000000018003fc18     <common>
 0003:00019c20       glad_glGetVertexAttribPointerv 000000018003fc20     <common>
 0003:00019c28       glad_glNamedFramebufferTextureLayer 000000018003fc28     <common>
 0003:00019c30       glad_glViewportIndexedfv   000000018003fc30     <common>
 0003:00019c38       glad_glMakeImageHandleNonResidentARB 000000018003fc38     <common>
 0003:00019c40       glad_glGetUniformLocationARB 000000018003fc40     <common>
 0003:00019c48       glad_glSampleMapATI        000000018003fc48     <common>
 0003:00019c50       glad_glGetMultiTexParameterivEXT 000000018003fc50     <common>
 0003:00019c58       glad_glGetCoverageModulationTableNV 000000018003fc58     <common>
 0003:00019c60       glad_glGetSeparableFilter  000000018003fc60     <common>
 0003:00019c68       glad_glIsFramebuffer       000000018003fc68     <common>
 0003:00019c70       glad_glReplacementCodeuiVertex3fvSUN 000000018003fc70     <common>
 0003:00019c78       glad_glMakeImageHandleResidentARB 000000018003fc78     <common>
 0003:00019c80       glad_glTexImage1D          000000018003fc80     <common>
 0003:00019c88       GLAD_GL_SGIS_multisample   000000018003fc88     <common>
 0003:00019c8c       GLAD_GL_SGIS_generate_mipmap 000000018003fc8c     <common>
 0003:00019c90       glad_glBinormal3svEXT      000000018003fc90     <common>
 0003:00019c98       glad_glGetAttachedObjectsARB 000000018003fc98     <common>
 0003:00019ca0       glad_glViewportIndexedf    000000018003fca0     <common>
 0003:00019ca8       glad_glGetRenderbufferParameteriv 000000018003fca8     <common>
 0003:00019cb0       glad_glGetVertexAttribiv   000000018003fcb0     <common>
 0003:00019cb8       glad_glGetFogFuncSGIS      000000018003fcb8     <common>
 0003:00019cc0       glad_glGetPathSpacingNV    000000018003fcc0     <common>
 0003:00019cc8       glad_glCoverageModulationTableNV 000000018003fcc8     <common>
 0003:00019cd0       glad_glGetnHistogram       000000018003fcd0     <common>
 0003:00019cd8       glad_glUniformMatrix2dv    000000018003fcd8     <common>
 0003:00019ce0       glad_glGetImageHandleARB   000000018003fce0     <common>
 0003:00019ce8       glad_glPassTexCoordATI     000000018003fce8     <common>
 0003:00019cf0       glad_glVertexArrayVertexAttribIFormatEXT 000000018003fcf0     <common>
 0003:00019cf8       glad_glBinormal3sEXT       000000018003fcf8     <common>
 0003:00019d00       glad_glNamedProgramLocalParameterI4ivEXT 000000018003fd00     <common>
 0003:00019d08       GLAD_GL_NV_viewport_swizzle 000000018003fd08     <common>
 0003:00019d10       glad_glReplacementCodeuiVertex3fSUN 000000018003fd10     <common>
 0003:00019d18       glad_glVertexAttribL3i64NV 000000018003fd18     <common>
 0003:00019d20       glad_glFogFuncSGIS         000000018003fd20     <common>
 0003:00019d28       GLAD_GL_NV_viewport_array2 000000018003fd28     <common>
 0003:00019d30       glad_glVideoCaptureStreamParameterdvNV 000000018003fd30     <common>
 0003:00019d38       glad_glGetMultiTexParameterfvEXT 000000018003fd38     <common>
 0003:00019d40       glad_glNamedFramebufferTexture 000000018003fd40     <common>
 0003:00019d48       GLAD_GL_NV_framebuffer_mixed_samples 000000018003fd48     <common>
 0003:00019d50       glad_glGetVertexAttribfv   000000018003fd50     <common>
 0003:00019d58       glad_glRenderbufferStorage 000000018003fd58     <common>
 0003:00019d60       GLAD_GL_NV_fragment_shader_interlock 000000018003fd60     <common>
 0003:00019d68       glad_glGetInfoLogARB       000000018003fd68     <common>
 0003:00019d70       GLAD_GL_NV_fragment_program_option 000000018003fd70     <common>
 0003:00019d78       glad_glGetConvolutionParameteriv 000000018003fd78     <common>
 0003:00019d80       GLAD_GL_NV_fragment_program4 000000018003fd80     <common>
 0003:00019d84       GLAD_GL_SGIS_fog_function  000000018003fd84     <common>
 0003:00019d88       GLAD_GL_NV_fragment_program2 000000018003fd88     <common>
 0003:00019d90       glad_glViewportArrayv      000000018003fd90     <common>
 0003:00019d98       glad_glBinormal3ivEXT      000000018003fd98     <common>
 0003:00019da0       glad_glGetDetailTexFuncSGIS 000000018003fda0     <common>
 0003:00019da8       glad_glEndFragmentShaderATI 000000018003fda8     <common>
 0003:00019db0       glad_glGetProgramNamedParameterdvNV 000000018003fdb0     <common>
 0003:00019db8       glad_glUniform4dv          000000018003fdb8     <common>
 0003:00019dc0       glad_glBeginFragmentShaderATI 000000018003fdc0     <common>
 0003:00019dc8       glad_glVertexAttribL2i64NV 000000018003fdc8     <common>
 0003:00019dd0       glad_glNamedProgramLocalParameterI4iEXT 000000018003fdd0     <common>
 0003:00019dd8       glad_glTexCoord4fColor4fNormal3fVertex4fvSUN 000000018003fdd8     <common>
 0003:00019de0       glad_glGetNextPerfQueryIdINTEL 000000018003fde0     <common>
 0003:00019de8       glad_glBinormal3iEXT       000000018003fde8     <common>
 0003:00019df0       glad_glMakeTextureHandleNonResidentARB 000000018003fdf0     <common>
 0003:00019df8       glad_glNamedFramebufferParameteri 000000018003fdf8     <common>
 0003:00019e00       glad_glGetnSeparableFilter 000000018003fe00     <common>
 0003:00019e08       glad_glDeleteFragmentShaderATI 000000018003fe08     <common>
 0003:00019e10       glad_glVertexArrayVertexAttribFormatEXT 000000018003fe10     <common>
 0003:00019e18       glad_glTexImage3DEXT       000000018003fe18     <common>
 0003:00019e20       glad_glGetMultiTexImageEXT 000000018003fe20     <common>
 0003:00019e28       glad_glVideoCaptureStreamParameterfvNV 000000018003fe28     <common>
 0003:00019e30       glad_glGetVertexAttribdv   000000018003fe30     <common>
 0003:00019e38       glad_glTexParameteriv      000000018003fe38     <common>
 0003:00019e40       glad_glDetailTexFuncSGIS   000000018003fe40     <common>
 0003:00019e48       glad_glGetConvolutionParameterfv 000000018003fe48     <common>
 0003:00019e50       glad_glGenRenderbuffers    000000018003fe50     <common>
 0003:00019e58       glad_glBindFragmentShaderATI 000000018003fe58     <common>
 0003:00019e60       glad_glGetVertexAttribLdv  000000018003fe60     <common>
 0003:00019e68       glad_glGetObjectParameterivARB 000000018003fe68     <common>
 0003:00019e70       glad_glMakeTextureHandleResidentARB 000000018003fe70     <common>
 0003:00019e78       glad_glUniform3dv          000000018003fe78     <common>
 0003:00019e80       glad_glGetFirstPerfQueryIdINTEL 000000018003fe80     <common>
 0003:00019e88       glad_glVertexAttribL1i64NV 000000018003fe88     <common>
 0003:00019e90       glad_glGetPathMetricRangeNV 000000018003fe90     <common>
 0003:00019e98       glad_glGetProgramNamedParameterfvNV 000000018003fe98     <common>
 0003:00019ea0       glad_glBinormal3fvEXT      000000018003fea0     <common>
 0003:00019ea8       glad_glGetTextureSamplerHandleARB 000000018003fea8     <common>
 0003:00019eb0       glad_glTexCoord4fColor4fNormal3fVertex4fSUN 000000018003feb0     <common>
 0003:00019eb8       glad_glGenFragmentShadersATI 000000018003feb8     <common>
 0003:00019ec0       glad_glNamedFramebufferRenderbuffer 000000018003fec0     <common>
 0003:00019ec8       glad_glEndPerfQueryINTEL   000000018003fec8     <common>
 0003:00019ed0       glad_glGetUniformiv        000000018003fed0     <common>
 0003:00019ed8       glad_glTexParameteri       000000018003fed8     <common>
 0003:00019ee0       glad_glDeleteRenderbuffers 000000018003fee0     <common>
 0003:00019ee8       glad_glVideoCaptureStreamParameterivNV 000000018003fee8     <common>
 0003:00019ef0       GLAD_GL_SGIS_detail_texture 000000018003fef0     <common>
 0003:00019ef8       glad_glGetConvolutionFilter 000000018003fef8     <common>
 0003:00019f00       GLAD_GL_S3_s3tc            000000018003ff00     <common>
 0003:00019f08       glad_glBinormal3fEXT       000000018003ff08     <common>
 0003:00019f10       GLAD_GL_REND_screen_coordinates 000000018003ff10     <common>
 0003:00019f14       GLAD_GL_ATI_fragment_shader 000000018003ff14     <common>
 0003:00019f18       glad_glGetObjectParameterfvARB 000000018003ff18     <common>
 0003:00019f20       GLAD_GL_NV_vertex_attrib_integer_64bit 000000018003ff20     <common>
 0003:00019f28       glad_glVertexAttribLPointer 000000018003ff28     <common>
 0003:00019f30       GLAD_GL_PGI_vertex_hints   000000018003ff30     <common>
 0003:00019f38       glad_glUniform2dv          000000018003ff38     <common>
 0003:00019f40       glad_glGetTexBumpParameterfvATI 000000018003ff40     <common>
 0003:00019f48       glad_glDeletePerfQueryINTEL 000000018003ff48     <common>
 0003:00019f50       GLAD_GL_NV_vertex_array_range2 000000018003ff50     <common>
 0003:00019f58       glad_glNamedProgramLocalParameters4fvEXT 000000018003ff58     <common>
 0003:00019f60       glad_glCopyMultiTexSubImage2DEXT 000000018003ff60     <common>
 0003:00019f68       glad_glVertexArrayBindVertexBufferEXT 000000018003ff68     <common>
 0003:00019f70       glad_glGetTextureHandleARB 000000018003ff70     <common>
 0003:00019f78       glad_glHintPGI             000000018003ff78     <common>
 0003:00019f80       glad_glVertexArrayRangeNV  000000018003ff80     <common>
 0003:00019f88       glad_glBindRenderbuffer    000000018003ff88     <common>
 0003:00019f90       glad_glCreatePerfQueryINTEL 000000018003ff90     <common>
 0003:00019f98       glad_glGetUniformfv        000000018003ff98     <common>
 0003:00019fa0       glad_glTexParameterfv      000000018003ffa0     <common>
 0003:00019fa8       glad_glProgramNamedParameter4dvNV 000000018003ffa8     <common>
 0003:00019fb0       glad_glGetPathMetricsNV    000000018003ffb0     <common>
 0003:00019fb8       glad_glCreateFramebuffers  000000018003ffb8     <common>
 0003:00019fc0       glad_glGetnConvolutionFilter 000000018003ffc0     <common>
 0003:00019fc8       GLAD_GL_ARB_bindless_texture 000000018003ffc8     <common>
 0003:00019fcc       GLAD_GL_ARB_base_instance  000000018003ffcc     <common>
 0003:00019fd0       glad_glGetTexBumpParameterivATI 000000018003ffd0     <common>
 0003:00019fd8       GLAD_GL_PGI_misc_hints     000000018003ffd8     <common>
 0003:00019fe0       glad_glFlushVertexArrayRangeNV 000000018003ffe0     <common>
 0003:00019fe8       glad_glUniformMatrix4fvARB 000000018003ffe8     <common>
 0003:00019ff0       glad_glCopyConvolutionFilter2D 000000018003fff0     <common>
 0003:00019ff8       glad_glVideoCaptureNV      000000018003fff8     <common>
 0003:0001a000       GLAD_GL_ARB_arrays_of_arrays 0000000180040000     <common>
 0003:0001a008       glad_glBinormal3dvEXT      0000000180040008     <common>
 0003:0001a010       glad_glUniform1dv          0000000180040010     <common>
 0003:0001a018       GLAD_GL_OVR_multiview2     0000000180040018     <common>
 0003:0001a01c       GLAD_GL_ARB_ES3_compatibility 000000018004001c     <common>
 0003:0001a020       glad_glIsRenderbuffer      0000000180040020     <common>
 0003:0001a028       glad_glFramebufferTextureMultiviewOVR 0000000180040028     <common>
 0003:0001a030       glad_glPrimitiveBoundingBoxARB 0000000180040030     <common>
 0003:0001a038       GLAD_GL_NV_vertex_array_range 0000000180040038     <common>
 0003:0001a03c       GLAD_GL_EXT_texture3D      000000018004003c     <common>
 0003:0001a040       glad_glVDPAUUnmapSurfacesNV 0000000180040040     <common>
 0003:0001a048       glad_glBeginPerfQueryINTEL 0000000180040048     <common>
 0003:0001a050       GLAD_GL_EXT_texture        0000000180040050     <common>
 0003:0001a058       glad_glVertexAttribL4dv    0000000180040058     <common>
 0003:0001a060       glad_glGetNamedBufferSubData 0000000180040060     <common>
 0003:0001a068       glad_glBinormal3dEXT       0000000180040068     <common>
 0003:0001a070       glad_glTexSubImage2DEXT    0000000180040070     <common>
 0003:0001a078       glad_glTexParameterf       0000000180040078     <common>
 0003:0001a080       glad_glTexBumpParameterfvATI 0000000180040080     <common>
 0003:0001a088       glad_glGetStringi          0000000180040088     <common>
 0003:0001a090       glad_glGetUniformLocation  0000000180040090     <common>
 0003:0001a098       glad_glProgramUniform4uivEXT 0000000180040098     <common>
 0003:0001a0a0       glad_glTextureStorage3DMultisampleEXT 00000001800400a0     <common>
 0003:0001a0a8       glad_glProgramNamedParameter4dNV 00000001800400a8     <common>
 0003:0001a0b0       GLAD_GL_INTEL_performance_query 00000001800400b0     <common>
 0003:0001a0b8       glad_glGetVideoCaptureStreamdvNV 00000001800400b8     <common>
 0003:0001a0c0       glad_glTexCoordPointervINTEL 00000001800400c0     <common>
 0003:0001a0c8       glad_glVDPAUMapSurfacesNV  00000001800400c8     <common>
 0003:0001a0d0       glad_glUniform4d           00000001800400d0     <common>
 0003:0001a0d8       glad_glUniformMatrix3fvARB 00000001800400d8     <common>
 0003:0001a0e0       glad_glVertexAttribL3dv    00000001800400e0     <common>
 0003:0001a0e8       glad_glGetnColorTable      00000001800400e8     <common>
 0003:0001a0f0       glad_glClearBufferfi       00000001800400f0     <common>
 0003:0001a0f8       glad_glGetShaderSource     00000001800400f8     <common>
 0003:0001a100       glad_glTexBumpParameterivATI 0000000180040100     <common>
 0003:0001a108       glad_glBinormal3bvEXT      0000000180040108     <common>
 0003:0001a110       glad_glScissor             0000000180040110     <common>
 0003:0001a118       glad_glGetNamedBufferPointerv 0000000180040118     <common>
 0003:0001a120       glad_glCopyMultiTexSubImage1DEXT 0000000180040120     <common>
 0003:0001a128       glad_glCopyConvolutionFilter1D 0000000180040128     <common>
 0003:0001a130       glad_glGetPathDashArrayNV  0000000180040130     <common>
 0003:0001a138       glad_glVDPAUSurfaceAccessNV 0000000180040138     <common>
 0003:0001a140       glad_glProgramUniform3uivEXT 0000000180040140     <common>
 0003:0001a148       GLAD_GL_OVR_multiview      0000000180040148     <common>
 0003:0001a150       glad_glVertexAttribL2dv    0000000180040150     <common>
 0003:0001a158       glad_glColorPointervINTEL  0000000180040158     <common>
 0003:0001a160       glad_glBinormal3bEXT       0000000180040160     <common>
 0003:0001a168       GLAD_GL_ATI_envmap_bumpmap 0000000180040168     <common>
 0003:0001a16c       GLAD_GL_OML_subsample      000000018004016c     <common>
 0003:0001a170       glad_glDrawRangeElementArrayATI 0000000180040170     <common>
 0003:0001a178       glad_glGetVideoCaptureStreamfvNV 0000000180040178     <common>
 0003:0001a180       GLAD_GL_OML_resample       0000000180040180     <common>
 0003:0001a184       GLAD_GL_OML_interlace      0000000180040184     <common>
 0003:0001a188       glad_glUniformMatrix2fvARB 0000000180040188     <common>
 0003:0001a190       glad_glOrthofOES           0000000180040190     <common>
 0003:0001a198       glad_glGetPathCoordsNV     0000000180040198     <common>
 0003:0001a1a0       glad_glTexCoord2fColor4fNormal3fVertex3fvSUN 00000001800401a0     <common>
 0003:0001a1a8       GLAD_GL_ARB_ES3_2_compatibility 00000001800401a8     <common>
 0003:0001a1b0       glad_glClearBufferfv       00000001800401b0     <common>
 0003:0001a1b8       glad_glGetShaderInfoLog    00000001800401b8     <common>
 0003:0001a1c0       GLAD_GL_ARB_ES3_1_compatibility 00000001800401c0     <common>
 0003:0001a1c8       glad_glUniform3d           00000001800401c8     <common>
 0003:0001a1d0       glad_glVDPAUGetSurfaceivNV 00000001800401d0     <common>
 0003:0001a1d8       glad_glGetNamedBufferParameteri64v 00000001800401d8     <common>
 0003:0001a1e0       glad_glVertexAttribL1dv    00000001800401e0     <common>
 0003:0001a1e8       GLAD_GL_ARB_ES2_compatibility 00000001800401e8     <common>
 0003:0001a1f0       glad_glGetnPolygonStipple  00000001800401f0     <common>
 0003:0001a1f8       glad_glProgramNamedParameter4fvNV 00000001800401f8     <common>
 0003:0001a200       GLAD_GL_APPLE_ycbcr_422    0000000180040200     <common>
 0003:0001a208       glad_glPolygonMode         0000000180040208     <common>
 0003:0001a210       glad_glTextureStorage2DMultisampleEXT 0000000180040210     <common>
 0003:0001a218       glad_glNormalPointervINTEL 0000000180040218     <common>
 0003:0001a220       glad_glTangent3svEXT       0000000180040220     <common>
 0003:0001a228       glad_glMapVertexAttrib2fAPPLE 0000000180040228     <common>
 0003:0001a230       glad_glTexSubImage1DEXT    0000000180040230     <common>
 0003:0001a238       glad_glGetPathCommandsNV   0000000180040238     <common>
 0003:0001a240       glad_glProgramUniform2uivEXT 0000000180040240     <common>
 0003:0001a248       glad_glConvolutionParameteriv 0000000180040248     <common>
 0003:0001a250       glad_glGetnPixelMapusv     0000000180040250     <common>
 0003:0001a258       glad_glGetVideoCaptureStreamivNV 0000000180040258     <common>
 0003:0001a260       glad_glDrawElementArrayATI 0000000180040260     <common>
 0003:0001a268       glad_glVertexAttribL4d     0000000180040268     <common>
 0003:0001a270       glad_glTangent3sEXT        0000000180040270     <common>
 0003:0001a278       glad_glClearBufferuiv      0000000180040278     <common>
 0003:0001a280       glad_glPointSize           0000000180040280     <common>
 0003:0001a288       glad_glTexCoord2fColor4fNormal3fVertex3fSUN 0000000180040288     <common>
 0003:0001a290       glad_glVertexPointervINTEL 0000000180040290     <common>
 0003:0001a298       glad_glCopyMultiTexImage2DEXT 0000000180040298     <common>
 0003:0001a2a0       glad_glUniform4ivARB       00000001800402a0     <common>
 0003:0001a2a8       glad_glGetNamedBufferParameteriv 00000001800402a8     <common>
 0003:0001a2b0       glad_glUniform2d           00000001800402b0     <common>
 0003:0001a2b8       glad_glGetShaderiv         00000001800402b8     <common>
 0003:0001a2c0       glad_glGetPathParameterfvNV 00000001800402c0     <common>
 0003:0001a2c8       glad_glLineWidth           00000001800402c8     <common>
 0003:0001a2d0       glad_glVDPAUUnregisterSurfaceNV 00000001800402d0     <common>
 0003:0001a2d8       glad_glProgramNamedParameter4fNV 00000001800402d8     <common>
 0003:0001a2e0       glad_glConvolutionParameteri 00000001800402e0     <common>
 0003:0001a2e8       glad_glElementPointerATI   00000001800402e8     <common>
 0003:0001a2f0       glad_glGetClipPlanefOES    00000001800402f0     <common>
 0003:0001a2f8       glad_glProgramUniform1uivEXT 00000001800402f8     <common>
 0003:0001a300       glad_glGetnPixelMapuiv     0000000180040300     <common>
 0003:0001a308       glad_glTangent3ivEXT       0000000180040308     <common>
 0003:0001a310       glad_glVDPAUIsSurfaceNV    0000000180040310     <common>
 0003:0001a318       glad_glHint                0000000180040318     <common>
 0003:0001a320       glad_glClearBufferiv       0000000180040320     <common>
 0003:0001a328       glad_glUniform3ivARB       0000000180040328     <common>
 0003:0001a330       GLAD_GL_INTEL_parallel_arrays 0000000180040330     <common>
 0003:0001a338       glad_glGetVideoCaptureivNV 0000000180040338     <common>
 0003:0001a340       glad_glFlushMappedNamedBufferRange 0000000180040340     <common>
 0003:0001a348       glad_glGetProgramInfoLog   0000000180040348     <common>
 0003:0001a350       glad_glUniform1d           0000000180040350     <common>
 0003:0001a358       glad_glMapTexture2DINTEL   0000000180040358     <common>
 0003:0001a360       glad_glVertexAttribL3d     0000000180040360     <common>
 0003:0001a368       glad_glGetPathParameterivNV 0000000180040368     <common>
 0003:0001a370       glad_glTangent3iEXT        0000000180040370     <common>
 0003:0001a378       GLAD_GL_ATI_element_array  0000000180040378     <common>
 0003:0001a380       glad_glFrustumfOES         0000000180040380     <common>
 0003:0001a388       glad_glTextureStorage3DEXT 0000000180040388     <common>
 0003:0001a390       GLAD_GL_EXT_subtexture     0000000180040390     <common>
 0003:0001a398       glad_glVDPAURegisterOutputSurfaceNV 0000000180040398     <common>
 0003:0001a3a0       GLAD_GL_EXT_stencil_wrap   00000001800403a0     <common>
 0003:0001a3a8       glad_glDrawBuffersATI      00000001800403a8     <common>
 0003:0001a3b0       glad_glActiveStencilFaceEXT 00000001800403b0     <common>
 0003:0001a3b8       glad_glConvolutionParameterfv 00000001800403b8     <common>
 0003:0001a3c0       glad_glFrontFace           00000001800403c0     <common>
 0003:0001a3c8       glad_glGetnPixelMapfv      00000001800403c8     <common>
 0003:0001a3d0       glad_glDrawElementsIndirect 00000001800403d0     <common>
 0003:0001a3d8       glad_glGetTexParameterIuiv 00000001800403d8     <common>
 0003:0001a3e0       glad_glEndVideoCaptureNV   00000001800403e0     <common>
 0003:0001a3e8       glad_glUnmapNamedBuffer    00000001800403e8     <common>
 0003:0001a3f0       GLAD_GL_EXT_stencil_two_side 00000001800403f0     <common>
 0003:0001a3f8       glad_glProgramUniform4uiEXT 00000001800403f8     <common>
 0003:0001a400       glad_glUniform2ivARB       0000000180040400     <common>
 0003:0001a408       GLAD_GL_ATI_draw_buffers   0000000180040408     <common>
 0003:0001a410       glad_glStencilClearTagEXT  0000000180040410     <common>
 0003:0001a418       glad_glCullFace            0000000180040418     <common>
 0003:0001a420       glad_glTangent3fvEXT       0000000180040420     <common>
 0003:0001a428       glad_glCoverStrokePathInstancedNV 0000000180040428     <common>
 0003:0001a430       glad_glMapVertexAttrib2dAPPLE 0000000180040430     <common>
 0003:0001a438       glad_glWindowPos3svARB     0000000180040438     <common>
 0003:0001a440       glad_glGetProgramiv        0000000180040440     <common>
 0003:0001a448       GLAD_GL_NV_fragment_program 0000000180040448     <common>
 0003:0001a450       glad_glMapNamedBufferRange 0000000180040450     <common>
 0003:0001a458       glad_glCopyMultiTexImage1DEXT 0000000180040458     <common>
 0003:0001a460       glad_glBindVideoCaptureStreamTextureNV 0000000180040460     <common>
 0003:0001a468       glad_glVertexAttribL2d     0000000180040468     <common>
 0003:0001a470       glad_glConvolutionParameterf 0000000180040470     <common>
 0003:0001a478       glad_glFragmentCoverageColorNV 0000000180040478     <common>
 0003:0001a480       glad_glVDPAURegisterVideoSurfaceNV 0000000180040480     <common>
 0003:0001a488       GLAD_GL_VERSION_1_0        0000000180040488     <common>
 0003:0001a490       glad_glUnmapTexture2DINTEL 0000000180040490     <common>
 0003:0001a498       glad_glTangent3fEXT        0000000180040498     <common>
 0003:0001a4a0       glad_glGetnMapiv           00000001800404a0     <common>
 0003:0001a4a8       glad_glWindowPos3sARB      00000001800404a8     <common>
 0003:0001a4b0       GLAD_GL_EXT_stencil_clear_tag 00000001800404b0     <common>
 0003:0001a4b8       glad_glDrawArraysIndirect  00000001800404b8     <common>
 0003:0001a4c0       glad_glGetTexParameterIiv  00000001800404c0     <common>
 0003:0001a4c8       glad_glUniform1ivARB       00000001800404c8     <common>
 0003:0001a4d0       GLAD_GL_NV_fragment_coverage_to_color 00000001800404d0     <common>
 0003:0001a4d8       glad_glDepthRangefOES      00000001800404d8     <common>
 0003:0001a4e0       GLAD_GL_EXT_sparse_texture2 00000001800404e0     <common>
 0003:0001a4e4       GLAD_GL_NV_fog_distance    00000001800404e4     <common>
 0003:0001a4e8       GLAD_GL_EXT_shared_texture_palette 00000001800404e8     <common>
 0003:0001a4f0       glad_glTextureStorage2DEXT 00000001800404f0     <common>
 0003:0001a4f8       GLAD_GL_EXT_shadow_funcs   00000001800404f8     <common>
 0003:0001a4fc       GLAD_GL_NV_float_buffer    00000001800404fc     <common>
 0003:0001a500       glad_glTexCoord2fNormal3fVertex3fvSUN 0000000180040500     <common>
 0003:0001a508       glad_glGetAttribLocation   0000000180040508     <common>
 0003:0001a510       glad_glSyncTextureINTEL    0000000180040510     <common>
 0003:0001a518       GLAD_GL_NV_fill_rectangle  0000000180040518     <common>
 0003:0001a51c       GLAD_GL_EXT_shader_integer_mix 000000018004051c     <common>
 0003:0001a520       glad_glVertexAttribL1d     0000000180040520     <common>
 0003:0001a528       glad_glSetFenceNV          0000000180040528     <common>
 0003:0001a530       glad_glConvolutionFilter2D 0000000180040530     <common>
 0003:0001a538       glad_glMemoryBarrierEXT    0000000180040538     <common>
 0003:0001a540       glad_glBlendFuncSeparatei  0000000180040540     <common>
 0003:0001a548       glad_glWindowPos3ivARB     0000000180040548     <common>
 0003:0001a550       glad_glClipPlanefOES       0000000180040550     <common>
 0003:0001a558       glad_glProgramUniform3uiEXT 0000000180040558     <common>
 0003:0001a560       glad_glTangent3dvEXT       0000000180040560     <common>
 0003:0001a568       glad_glMapNamedBuffer      0000000180040568     <common>
 0003:0001a570       glad_glVDPAUFiniNV         0000000180040570     <common>
 0003:0001a578       GLAD_GL_INTEL_map_texture  0000000180040578     <common>
 0003:0001a580       glad_glTexParameterIuiv    0000000180040580     <common>
 0003:0001a588       glad_glBindVideoCaptureStreamBufferNV 0000000180040588     <common>
 0003:0001a590       glad_glApplyFramebufferAttachmentCMAAINTEL 0000000180040590     <common>
 0003:0001a598       glad_glUniform4fvARB       0000000180040598     <common>
 0003:0001a5a0       glad_glBindImageTextureEXT 00000001800405a0     <common>
 0003:0001a5a8       glad_glGetnMapfv           00000001800405a8     <common>
 0003:0001a5b0       glad_glGetAttachedShaders  00000001800405b0     <common>
 0003:0001a5b8       glad_glVDPAUInitNV         00000001800405b8     <common>
 0003:0001a5c0       glad_glTangent3dEXT        00000001800405c0     <common>
 0003:0001a5c8       glad_glTexCoord2fNormal3fVertex3fSUN 00000001800405c8     <common>
 0003:0001a5d0       glad_glGetProgramPipelineInfoLog 00000001800405d0     <common>
 0003:0001a5d8       glad_glFinishFenceNV       00000001800405d8     <common>
 0003:0001a5e0       GLAD_GL_INTEL_framebuffer_CMAA 00000001800405e0     <common>
 0003:0001a5e8       glad_glWindowPos3iARB      00000001800405e8     <common>
 0003:0001a5f0       glad_glCoverFillPathInstancedNV 00000001800405f0     <common>
 0003:0001a5f8       GLAD_GL_INTEL_fragment_shader_ordering 00000001800405f8     <common>
 0003:0001a5fc       GLAD_GL_INTEL_conservative_rasterization 00000001800405fc     <common>
 0003:0001a600       glad_glClearNamedBufferSubData 0000000180040600     <common>
 0003:0001a608       glad_glClearDepthfOES      0000000180040608     <common>
 0003:0001a610       GLAD_GL_INGR_interlace_read 0000000180040610     <common>
 0003:0001a614       GLAD_GL_INGR_color_clamp   0000000180040614     <common>
 0003:0001a618       glad_glMultiTexSubImage2DEXT 0000000180040618     <common>
 0003:0001a620       glad_glGetFenceivNV        0000000180040620     <common>
 0003:0001a628       GLAD_GL_NV_vdpau_interop   0000000180040628     <common>
 0003:0001a630       glad_glBlendFuncSeparateINGR 0000000180040630     <common>
 0003:0001a638       glad_glTexParameterIiv     0000000180040638     <common>
 0003:0001a640       glad_glUniform3fvARB       0000000180040640     <common>
 0003:0001a648       glad_glTextureStorage1DEXT 0000000180040648     <common>
 0003:0001a650       GLAD_GL_NV_uniform_buffer_unified_memory 0000000180040650     <common>
 0003:0001a654       GLAD_GL_OES_single_precision 0000000180040654     <common>
 0003:0001a658       glad_glDrawTransformFeedbackNV 0000000180040658     <common>
 0003:0001a660       GLAD_GL_OES_read_format    0000000180040660     <common>
 0003:0001a668       glad_glBlendFunci          0000000180040668     <common>
 0003:0001a670       glad_glQueryMatrixxOES     0000000180040670     <common>
 0003:0001a678       glad_glMapVertexAttrib1fAPPLE 0000000180040678     <common>
 0003:0001a680       glad_glTangent3bvEXT       0000000180040680     <common>
 0003:0001a688       glad_glBeginVideoCaptureNV 0000000180040688     <common>
 0003:0001a690       glad_glProgramUniform2uiEXT 0000000180040690     <common>
 0003:0001a698       glad_glGetnMapdv           0000000180040698     <common>
 0003:0001a6a0       glad_glWindowPos3fvARB     00000001800406a0     <common>
 0003:0001a6a8       glad_glGetActiveUniform    00000001800406a8     <common>
 0003:0001a6b0       glad_glValidateProgramPipeline 00000001800406b0     <common>
 0003:0001a6b8       glad_glConvolutionFilter1D 00000001800406b8     <common>
 0003:0001a6c0       glad_glTestFenceNV         00000001800406c0     <common>
 0003:0001a6c8       GLAD_GL_NV_video_capture   00000001800406c8     <common>
 0003:0001a6d0       glad_glWindowPos3fARB      00000001800406d0     <common>
 0003:0001a6d8       glad_glTangent3bEXT        00000001800406d8     <common>
 0003:0001a6e0       glad_glUniform4uiv         00000001800406e0     <common>
 0003:0001a6e8       glad_glResumeTransformFeedbackNV 00000001800406e8     <common>
 0003:0001a6f0       glad_glGetVertexAttribIuivEXT 00000001800406f0     <common>
 0003:0001a6f8       GLAD_GL_EXT_shader_image_load_store 00000001800406f8     <common>
 0003:0001a700       glad_glUniform2fvARB       0000000180040700     <common>
 0003:0001a708       glad_glProgramUniformMatrix4x3dv 0000000180040708     <common>
 0003:0001a710       GLAD_GL_OES_query_matrix   0000000180040710     <common>
 0003:0001a718       glad_glVertex4xvOES        0000000180040718     <common>
 0003:0001a720       glad_glBlendEquationSeparatei 0000000180040720     <common>
 0003:0001a728       glad_glPauseTransformFeedbackNV 0000000180040728     <common>
 0003:0001a730       GLAD_GL_INGR_blend_func_separate 0000000180040730     <common>
 0003:0001a734       GLAD_GL_EXT_shader_image_load_formatted 0000000180040734     <common>
 0003:0001a738       glad_glCoverStrokePathNV   0000000180040738     <common>
 0003:0001a740       GLAD_GL_EXT_separate_specular_color 0000000180040740     <common>
 0003:0001a748       glad_glVertexPointerListIBM 0000000180040748     <common>
 0003:0001a750       glad_glIsFenceNV           0000000180040750     <common>
 0003:0001a758       glad_glIsTransformFeedbackNV 0000000180040758     <common>
 0003:0001a760       glad_glValidateProgramPipelineEXT 0000000180040760     <common>
 0003:0001a768       glad_glTextureBufferRangeEXT 0000000180040768     <common>
 0003:0001a770       glad_glTexCoord2fColor3fVertex3fvSUN 0000000180040770     <common>
 0003:0001a778       glad_glClearNamedBufferData 0000000180040778     <common>
 0003:0001a780       glad_glProgramUniform1uiEXT 0000000180040780     <common>
 0003:0001a788       glad_glReadnPixels         0000000180040788     <common>
 0003:0001a790       glad_glVertex4xOES         0000000180040790     <common>
 0003:0001a798       glad_glGenFencesNV         0000000180040798     <common>
 0003:0001a7a0       glad_glWindowPos3dvARB     00000001800407a0     <common>
 0003:0001a7a8       GLAD_GL_EXT_coordinate_frame 00000001800407a8     <common>
 0003:0001a7b0       glad_glSeparableFilter2DEXT 00000001800407b0     <common>
 0003:0001a7b8       glad_glGetVertexAttribIivEXT 00000001800407b8     <common>
 0003:0001a7c0       glad_glGenTransformFeedbacksNV 00000001800407c0     <common>
 0003:0001a7c8       glad_glUniform3uiv         00000001800407c8     <common>
 0003:0001a7d0       glad_glUseProgramStagesEXT 00000001800407d0     <common>
 0003:0001a7d8       glad_glUniform1fvARB       00000001800407d8     <common>
 0003:0001a7e0       glad_glCoverFillPathNV     00000001800407e0     <common>
 0003:0001a7e8       glad_glBlendEquationi      00000001800407e8     <common>
 0003:0001a7f0       glad_glMapVertexAttrib1dAPPLE 00000001800407f0     <common>
 0003:0001a7f8       glad_glCopyColorSubTable   00000001800407f8     <common>
 0003:0001a800       glad_glWindowPos3dARB      0000000180040800     <common>
 0003:0001a808       glad_glGetActiveAttrib     0000000180040808     <common>
 0003:0001a810       glad_glTexCoord2fColor3fVertex3fSUN 0000000180040810     <common>
 0003:0001a818       glad_glDeleteFencesNV      0000000180040818     <common>
 0003:0001a820       glad_glGetMultiTexParameterIuivEXT 0000000180040820     <common>
 0003:0001a828       glad_glMultiTexSubImage1DEXT 0000000180040828     <common>
 0003:0001a830       glad_glProgramUniformMatrix3x4dv 0000000180040830     <common>
 0003:0001a838       glad_glDeleteTransformFeedbacksNV 0000000180040838     <common>
 0003:0001a840       glad_glVertex3xvOES        0000000180040840     <common>
 0003:0001a848       glad_glPathCoverDepthFuncNV 0000000180040848     <common>
 0003:0001a850       glad_glTexCoordPointerListIBM 0000000180040850     <common>
 0003:0001a858       glad_glMinSampleShading    0000000180040858     <common>
 0003:0001a860       glad_glIsProgramPipelineEXT 0000000180040860     <common>
 0003:0001a868       glad_glVertexAttribIPointerEXT 0000000180040868     <common>
 0003:0001a870       glad_glUniform2uiv         0000000180040870     <common>
 0003:0001a878       glad_glUniform4iARB        0000000180040878     <common>
 0003:0001a880       glad_glCopyNamedBufferSubData 0000000180040880     <common>
 0003:0001a888       glad_glVertex3xOES         0000000180040888     <common>
 0003:0001a890       glad_glProgramUniformMatrix4x3dvEXT 0000000180040890     <common>
 0003:0001a898       GLAD_GL_NV_fence           0000000180040898     <common>
 0003:0001a8a0       glad_glStencilStrokePathInstancedNV 00000001800408a0     <common>
 0003:0001a8a8       glad_glWindowPos2svARB     00000001800408a8     <common>
 0003:0001a8b0       glad_glGetProgramPipelineivEXT 00000001800408b0     <common>
 0003:0001a8b8       GLAD_GL_VERSION_4_0        00000001800408b8     <common>
 0003:0001a8c0       glad_glBindTransformFeedbackNV 00000001800408c0     <common>
 0003:0001a8c8       glad_glTexRenderbufferNV   00000001800408c8     <common>
 0003:0001a8d0       glad_glSecondaryColorP3uiv 00000001800408d0     <common>
 0003:0001a8d8       glad_glGetnUniformuiv      00000001800408d8     <common>
 0003:0001a8e0       glad_glColorSubTable       00000001800408e0     <common>
 0003:0001a8e8       glad_glWindowPos2sARB      00000001800408e8     <common>
 0003:0001a8f0       glad_glGetMultiTexParameterIivEXT 00000001800408f0     <common>
 0003:0001a8f8       glad_glVertex2xvOES        00000001800408f8     <common>
 0003:0001a900       glad_glUniform1uiv         0000000180040900     <common>
 0003:0001a908       glad_glProgramUniformMatrix4x2dv 0000000180040908     <common>
 0003:0001a910       GLAD_GL_NV_transform_feedback2 0000000180040910     <common>
 0003:0001a918       glad_glSampleMaskIndexedNV 0000000180040918     <common>
 0003:0001a920       glad_glGetSeparableFilterEXT 0000000180040920     <common>
 0003:0001a928       glad_glIsVertexAttribEnabledAPPLE 0000000180040928     <common>
 0003:0001a930       glad_glSecondaryColorP3ui  0000000180040930     <common>
 0003:0001a938       glad_glTransformFeedbackStreamAttribsNV 0000000180040938     <common>
 0003:0001a940       glad_glNormalPointerListIBM 0000000180040940     <common>
 0003:0001a948       glad_glGetProgramPipelineInfoLogEXT 0000000180040948     <common>
 0003:0001a950       glad_glEnableVertexAttribArray 0000000180040950     <common>
 0003:0001a958       glad_glVertexAttribI4usvEXT 0000000180040958     <common>
 0003:0001a960       glad_glVertex2xOES         0000000180040960     <common>
 0003:0001a968       glad_glWindowPos2ivARB     0000000180040968     <common>
 0003:0001a970       glad_glNamedBufferSubData  0000000180040970     <common>
 0003:0001a978       glad_glUniform3iARB        0000000180040978     <common>
 0003:0001a980       glad_glMultiTexImage2DEXT  0000000180040980     <common>
 0003:0001a988       glad_glProgramUniformMatrix4x2dvEXT 0000000180040988     <common>
 0003:0001a990       glad_glTexCoord2fColor4ubVertex3fvSUN 0000000180040990     <common>
 0003:0001a998       glad_glGetMultisamplefvNV  0000000180040998     <common>
 0003:0001a9a0       glad_glTexGenxvOES         00000001800409a0     <common>
 0003:0001a9a8       glad_glDisableVertexAttribArray 00000001800409a8     <common>
 0003:0001a9b0       glad_glUniform4ui          00000001800409b0     <common>
 0003:0001a9b8       glad_glColorP4uiv          00000001800409b8     <common>
 0003:0001a9c0       glad_glMultiTexParameterIuivEXT 00000001800409c0     <common>
 0003:0001a9c8       glad_glDisableVertexAttribAPPLE 00000001800409c8     <common>
 0003:0001a9d0       glad_glWindowPos2iARB      00000001800409d0     <common>
 0003:0001a9d8       glad_glGetnUniformiv       00000001800409d8     <common>
 0003:0001a9e0       glad_glVertexAttribI4ubvEXT 00000001800409e0     <common>
 0003:0001a9e8       glad_glDetachShader        00000001800409e8     <common>
 0003:0001a9f0       glad_glProgramUniformMatrix2x4dv 00000001800409f0     <common>
 0003:0001a9f8       glad_glStencilFillPathInstancedNV 00000001800409f8     <common>
 0003:0001aa00       glad_glIndexPointerListIBM 0000000180040a00     <common>
 0003:0001aa08       glad_glGetColorTableParameteriv 0000000180040a08     <common>
 0003:0001aa10       glad_glGenProgramPipelinesEXT 0000000180040a10     <common>
 0003:0001aa18       glad_glTexCoord2fColor4ubVertex3fSUN 0000000180040a18     <common>
 0003:0001aa20       glad_glEnableVertexAttribAPPLE 0000000180040a20     <common>
 0003:0001aa28       glad_glWindowPos2fvARB     0000000180040a28     <common>
 0003:0001aa30       glad_glUniform2iARB        0000000180040a30     <common>
 0003:0001aa38       glad_glGetTransformFeedbackVaryingNV 0000000180040a38     <common>
 0003:0001aa40       glad_glColorP4ui           0000000180040a40     <common>
 0003:0001aa48       glad_glNamedBufferData     0000000180040a48     <common>
 0003:0001aa50       glad_glVertexAttribI4svEXT 0000000180040a50     <common>
 0003:0001aa58       glad_glTexGenxOES          0000000180040a58     <common>
 0003:0001aa60       GLAD_GL_NV_explicit_multisample 0000000180040a60     <common>
 0003:0001aa68       glad_glGetConvolutionParameterivEXT 0000000180040a68     <common>
 0003:0001aa70       glad_glEvalMapsNV          0000000180040a70     <common>
 0003:0001aa78       glad_glDeleteShader        0000000180040a78     <common>
 0003:0001aa80       glad_glGetnUniformfv       0000000180040a80     <common>
 0003:0001aa88       glad_glMultiTexParameterIivEXT 0000000180040a88     <common>
 0003:0001aa90       glad_glProgramUniformMatrix3x4dvEXT 0000000180040a90     <common>
 0003:0001aa98       glad_glWindowPos2fARB      0000000180040a98     <common>
 0003:0001aaa0       glad_glUniform3ui          0000000180040aa0     <common>
 0003:0001aaa8       glad_glDeleteProgramPipelinesEXT 0000000180040aa8     <common>
 0003:0001aab0       glad_glColorP3uiv          0000000180040ab0     <common>
 0003:0001aab8       glad_glGetColorTableParameterfv 0000000180040ab8     <common>
 0003:0001aac0       GLAD_GL_APPLE_vertex_program_evaluators 0000000180040ac0     <common>
 0003:0001aac8       glad_glDeleteProgram       0000000180040ac8     <common>
 0003:0001aad0       glad_glVertexArrayParameteriAPPLE 0000000180040ad0     <common>
 0003:0001aad8       glad_glVertexAttribI4bvEXT 0000000180040ad8     <common>
 0003:0001aae0       glad_glGetActiveVaryingNV  0000000180040ae0     <common>
 0003:0001aae8       glad_glFogCoordPointerListIBM 0000000180040ae8     <common>
 0003:0001aaf0       glad_glUniform1iARB        0000000180040af0     <common>
 0003:0001aaf8       glad_glGetMapAttribParameterfvNV 0000000180040af8     <common>
 0003:0001ab00       glad_glGetConvolutionParameterfvEXT 0000000180040b00     <common>
 0003:0001ab08       glad_glTexCoord4xvOES      0000000180040b08     <common>
 0003:0001ab10       glad_glProgramUniformMatrix3x2dv 0000000180040b10     <common>
 0003:0001ab18       glad_glNamedBufferStorage  0000000180040b18     <common>
 0003:0001ab20       glad_glWindowPos2dvARB     0000000180040b20     <common>
 0003:0001ab28       glad_glCreateShader        0000000180040b28     <common>
 0003:0001ab30       glad_glCreateShaderProgramvEXT 0000000180040b30     <common>
 0003:0001ab38       glad_glColorP3ui           0000000180040b38     <common>
 0003:0001ab40       glad_glVertexAttribI4uivEXT 0000000180040b40     <common>
 0003:0001ab48       glad_glTexCoord4xOES       0000000180040b48     <common>
 0003:0001ab50       glad_glFlushVertexArrayRangeAPPLE 0000000180040b50     <common>
 0003:0001ab58       glad_glWindowPos2dARB      0000000180040b58     <common>
 0003:0001ab60       glad_glGetnUniformdv       0000000180040b60     <common>
 0003:0001ab68       glad_glUniform4fARB        0000000180040b68     <common>
 0003:0001ab70       glad_glGetColorTable       0000000180040b70     <common>
 0003:0001ab78       glad_glGetTextureParameterIuivEXT 0000000180040b78     <common>
 0003:0001ab80       glad_glMultiTexImage1DEXT  0000000180040b80     <common>
 0003:0001ab88       glad_glUniform2ui          0000000180040b88     <common>
 0003:0001ab90       glad_glCreateProgram       0000000180040b90     <common>
 0003:0001ab98       glad_glProgramUniformMatrix3x2dvEXT 0000000180040b98     <common>
 0003:0001aba0       glad_glStencilStrokePathNV 0000000180040ba0     <common>
 0003:0001aba8       glad_glCompileShader       0000000180040ba8     <common>
 0003:0001abb0       glad_glGetConvolutionFilterEXT 0000000180040bb0     <common>
 0003:0001abb8       glad_glGetMapAttribParameterivNV 0000000180040bb8     <common>
 0003:0001abc0       glad_glNormalP3uiv         0000000180040bc0     <common>
 0003:0001abc8       glad_glEdgeFlagPointerListIBM 0000000180040bc8     <common>
 0003:0001abd0       glad_glVertexArrayRangeAPPLE 0000000180040bd0     <common>
 0003:0001abd8       glad_glVertexAttribI3uivEXT 0000000180040bd8     <common>
 0003:0001abe0       glad_glBindProgramPipelineEXT 0000000180040be0     <common>
 0003:0001abe8       glad_glCreateBuffers       0000000180040be8     <common>
 0003:0001abf0       GLAD_GL_ARB_window_pos     0000000180040bf0     <common>
 0003:0001abf8       glad_glTexCoord4fVertex4fvSUN 0000000180040bf8     <common>
 0003:0001ac00       GLAD_GL_ARB_viewport_array 0000000180040c00     <common>
 0003:0001ac08       glad_glBindAttribLocation  0000000180040c08     <common>
 0003:0001ac10       GLAD_GL_ARB_vertex_type_2_10_10_10_rev 0000000180040c10     <common>
 0003:0001ac18       glad_glProgramUniformMatrix2x3dv 0000000180040c18     <common>
 0003:0001ac20       glad_glUniform1ui          0000000180040c20     <common>
 0003:0001ac28       GLAD_GL_ARB_vertex_type_10f_11f_11f_rev 0000000180040c28     <common>
 0003:0001ac30       glad_glTexCoord3xvOES      0000000180040c30     <common>
 0003:0001ac38       glad_glActiveShaderProgramEXT 0000000180040c38     <common>
 0003:0001ac40       glad_glNormalP3ui          0000000180040c40     <common>
 0003:0001ac48       glad_glGetVaryingLocationNV 0000000180040c48     <common>
 0003:0001ac50       glad_glStencilFillPathNV   0000000180040c50     <common>
 0003:0001ac58       glad_glCopyColorTable      0000000180040c58     <common>
 0003:0001ac60       glad_glGetnTexImage        0000000180040c60     <common>
 0003:0001ac68       glad_glGetTextureParameterIivEXT 0000000180040c68     <common>
 0003:0001ac70       glad_glGetAttribLocationARB 0000000180040c70     <common>
 0003:0001ac78       glad_glVertexAttribI2uivEXT 0000000180040c78     <common>
 0003:0001ac80       GLAD_GL_APPLE_vertex_array_range 0000000180040c80     <common>
 0003:0001ac88       glad_glIsVertexArrayAPPLE  0000000180040c88     <common>
 0003:0001ac90       glad_glSecondaryColorPointerListIBM 0000000180040c90     <common>
 0003:0001ac98       glad_glUniform3fARB        0000000180040c98     <common>
 0003:0001aca0       glad_glGetTransformFeedbacki64_v 0000000180040ca0     <common>
 0003:0001aca8       glad_glTexCoord4fVertex4fSUN 0000000180040ca8     <common>
 0003:0001acb0       glad_glTexCoord3xOES       0000000180040cb0     <common>
 0003:0001acb8       glad_glCopyConvolutionFilter2DEXT 0000000180040cb8     <common>
 0003:0001acc0       glad_glGetMapParameterfvNV 0000000180040cc0     <common>
 0003:0001acc8       glad_glProgramUniformMatrix2x4dvEXT 0000000180040cc8     <common>
 0003:0001acd0       glad_glGetFragDataLocation 0000000180040cd0     <common>
 0003:0001acd8       glad_glCreateShaderProgramEXT 0000000180040cd8     <common>
 0003:0001ace0       glad_glAttachShader        0000000180040ce0     <common>
 0003:0001ace8       glad_glGenVertexArraysAPPLE 0000000180040ce8     <common>
 0003:0001acf0       glad_glGetActiveAttribARB  0000000180040cf0     <common>
 0003:0001acf8       glad_glMultiTexCoordP4uiv  0000000180040cf8     <common>
 0003:0001ad00       glad_glActiveVaryingNV     0000000180040d00     <common>
 0003:0001ad08       glad_glVertexAttribI1uivEXT 0000000180040d08     <common>
 0003:0001ad10       glad_glPathStencilDepthOffsetNV 0000000180040d10     <common>
 0003:0001ad18       glad_glProgramUniformMatrix4x3fv 0000000180040d18     <common>
 0003:0001ad20       glad_glMultiTexParameterfvEXT 0000000180040d20     <common>
 0003:0001ad28       glad_glTextureParameterIuivEXT 0000000180040d28     <common>
 0003:0001ad30       glad_glActiveProgramEXT    0000000180040d30     <common>
 0003:0001ad38       glad_glStencilMaskSeparate 0000000180040d38     <common>
 0003:0001ad40       glad_glBindFragDataLocation 0000000180040d40     <common>
 0003:0001ad48       glad_glTexCoord2xvOES      0000000180040d48     <common>
 0003:0001ad50       glad_glGetTransformFeedbacki_v 0000000180040d50     <common>
 0003:0001ad58       glad_glColorTableParameteriv 0000000180040d58     <common>
 0003:0001ad60       glad_glDeleteVertexArraysAPPLE 0000000180040d60     <common>
 0003:0001ad68       glad_glUniform2fARB        0000000180040d68     <common>
 0003:0001ad70       glad_glGetMapParameterivNV 0000000180040d70     <common>
 0003:0001ad78       glad_glTransformFeedbackVaryingsNV 0000000180040d78     <common>
 0003:0001ad80       glad_glVertexAttribI4ivEXT 0000000180040d80     <common>
 0003:0001ad88       glad_glColorPointerListIBM 0000000180040d88     <common>
 0003:0001ad90       glad_glPathStencilFuncNV   0000000180040d90     <common>
 0003:0001ad98       glad_glMultiTexCoordP4ui   0000000180040d98     <common>
 0003:0001ada0       glad_glGetnCompressedTexImage 0000000180040da0     <common>
 0003:0001ada8       glad_glTexCoord2xOES       0000000180040da8     <common>
 0003:0001adb0       glad_glUseShaderProgramEXT 0000000180040db0     <common>
 0003:0001adb8       glad_glProgramUniformMatrix2x3dvEXT 0000000180040db8     <common>
 0003:0001adc0       glad_glCopyConvolutionFilter1DEXT 0000000180040dc0     <common>
 0003:0001adc8       glad_glStencilFuncSeparate 0000000180040dc8     <common>
 0003:0001add0       glad_glBindVertexArrayAPPLE 0000000180040dd0     <common>
 0003:0001add8       glad_glGetUniformuiv       0000000180040dd8     <common>
 0003:0001ade0       glad_glVertexAttribI3ivEXT 0000000180040de0     <common>
 0003:0001ade8       glad_glUniform1fARB        0000000180040de8     <common>
 0003:0001adf0       glad_glColorTableParameterfv 0000000180040df0     <common>
 0003:0001adf8       glad_glTextureParameterIivEXT 0000000180040df8     <common>
 0003:0001ae00       glad_glTexCoord2fVertex3fvSUN 0000000180040e00     <common>
 0003:0001ae08       glad_glGetMapControlPointsNV 0000000180040e08     <common>
 0003:0001ae10       glad_glMultiTexParameterfEXT 0000000180040e10     <common>
 0003:0001ae18       GLAD_GL_EXT_separate_shader_objects 0000000180040e18     <common>
 0003:0001ae20       glad_glTexCoord1xvOES      0000000180040e20     <common>
 0003:0001ae28       glad_glBindAttribLocationARB 0000000180040e28     <common>
 0003:0001ae30       glad_glProgramUniformMatrix3x4fv 0000000180040e30     <common>
 0003:0001ae38       glad_glMultiTexCoordP3uiv  0000000180040e38     <common>
 0003:0001ae40       GLAD_GL_APPLE_vertex_array_object 0000000180040e40     <common>
 0003:0001ae48       glad_glPathDashArrayNV     0000000180040e48     <common>
 0003:0001ae50       glad_glBindBufferBaseNV    0000000180040e50     <common>
 0003:0001ae58       glad_glSecondaryColorPointerEXT 0000000180040e58     <common>
 0003:0001ae60       glad_glGetTransformFeedbackiv 0000000180040e60     <common>
 0003:0001ae68       GLAD_GL_APPLE_transform_hint 0000000180040e68     <common>
 0003:0001ae70       glad_glGetTexParameterPointervAPPLE 0000000180040e70     <common>
 0003:0001ae78       glad_glGetGraphicsResetStatus 0000000180040e78     <common>
 0003:0001ae80       glad_glTexCoord1xOES       0000000180040e80     <common>
 0003:0001ae88       glad_glVertexAttribI2ivEXT 0000000180040e88     <common>
 0003:0001ae90       glad_glGetCompressedTextureSubImage 0000000180040e90     <common>
 0003:0001ae98       glad_glTexCoord2fVertex3fSUN 0000000180040e98     <common>
 0003:0001aea0       GLAD_GL_IBM_vertex_array_lists 0000000180040ea0     <common>
 0003:0001aea8       glad_glValidateProgramARB  0000000180040ea8     <common>
 0003:0001aeb0       glad_glVertexAttribI4usv   0000000180040eb0     <common>
 0003:0001aeb8       GLAD_GL_IBM_texture_mirrored_repeat 0000000180040eb8     <common>
 0003:0001aec0       glad_glStencilOpSeparate   0000000180040ec0     <common>
 0003:0001aec8       glad_glFlushStaticDataIBM  0000000180040ec8     <common>
 0003:0001aed0       glad_glColorTable          0000000180040ed0     <common>
 0003:0001aed8       glad_glProgramUniformMatrix4dvEXT 0000000180040ed8     <common>
 0003:0001aee0       glad_glConvolutionParameterivEXT 0000000180040ee0     <common>
 0003:0001aee8       glad_glRectxvOES           0000000180040ee8     <common>
 0003:0001aef0       glad_glMultiTexBufferEXT   0000000180040ef0     <common>
 0003:0001aef8       glad_glBindBufferOffsetNV  0000000180040ef8     <common>
 0003:0001af00       glad_glPathParameterfNV    0000000180040f00     <common>
 0003:0001af08       glad_glMultiTexCoordP3ui   0000000180040f08     <common>
 0003:0001af10       glad_glTransformFeedbackBufferRange 0000000180040f10     <common>
 0003:0001af18       glad_glUseProgramObjectARB 0000000180040f18     <common>
 0003:0001af20       GLAD_GL_ARB_vertex_shader  0000000180040f20     <common>
 0003:0001af28       glad_glMultiTexParameterivEXT 0000000180040f28     <common>
 0003:0001af30       glad_glGetVertexAttribPointervARB 0000000180040f30     <common>
 0003:0001af38       glad_glVertexAttribI1ivEXT 0000000180040f38     <common>
 0003:0001af40       glad_glSecondaryColor3usvEXT 0000000180040f40     <common>
 0003:0001af48       GLAD_GL_IBM_static_data    0000000180040f48     <common>
 0003:0001af50       glad_glTextureRangeAPPLE   0000000180040f50     <common>
 0003:0001af58       GLAD_GL_IBM_rasterpos_clip 0000000180040f58     <common>
 0003:0001af60       glad_glVertexAttribI4ubv   0000000180040f60     <common>
 0003:0001af68       glad_glLinkProgramARB      0000000180040f68     <common>
 0003:0001af70       glad_glMultiModeDrawElementsIBM 0000000180040f70     <common>
 0003:0001af78       glad_glProgramUniformMatrix4x2fv 0000000180040f78     <common>
 0003:0001af80       glad_glRectxOES            0000000180040f80     <common>
 0003:0001af88       GLVersion                  0000000180040f88     <common>
 0003:0001af90       glad_glSecondaryColor3usEXT 0000000180040f90     <common>
 0003:0001af98       glad_glMapParameterfvNV    0000000180040f98     <common>
 0003:0001afa0       glad_glConvolutionParameteriEXT 0000000180040fa0     <common>
 0003:0001afa8       glad_glDrawBuffers         0000000180040fa8     <common>
 0003:0001afb0       glad_glVertexAttribI4uiEXT 0000000180040fb0     <common>
 0003:0001afb8       glad_glMultiTexCoordP2uiv  0000000180040fb8     <common>
 0003:0001afc0       glad_glPathParameterfvNV   0000000180040fc0     <common>
 0003:0001afc8       glad_glAttachObjectARB     0000000180040fc8     <common>
 0003:0001afd0       glad_glColor4fNormal3fVertex3fvSUN 0000000180040fd0     <common>
 0003:0001afd8       glad_glVertexAttribI4sv    0000000180040fd8     <common>
 0003:0001afe0       glad_glGetVertexAttribivARB 0000000180040fe0     <common>
 0003:0001afe8       glad_glMultiTexParameteriEXT 0000000180040fe8     <common>
 0003:0001aff0       glad_glProgramUniformMatrix3dvEXT 0000000180040ff0     <common>
 0003:0001aff8       glad_glBindBufferRangeNV   0000000180040ff8     <common>
 0003:0001b000       glad_glTextureBufferEXT    0000000180041000     <common>
 0003:0001b008       GLAD_GL_APPLE_texture_range 0000000180041008     <common>
 0003:0001b00c       GLAD_GL_APPLE_specular_vector 000000018004100c     <common>
 0003:0001b010       GLAD_GL_ARB_imaging        0000000180041010     <common>
 0003:0001b014       GLAD_GL_APPLE_row_bytes    0000000180041014     <common>
 0003:0001b018       glad_glTransformFeedbackBufferBase 0000000180041018     <common>
 0003:0001b020       GLAD_GL_ARB_half_float_vertex 0000000180041020     <common>
 0003:0001b028       glad_glBlendEquationSeparate 0000000180041028     <common>
 0003:0001b030       GLAD_GL_APPLE_rgb_422      0000000180041030     <common>
 0003:0001b034       GLAD_GL_ARB_half_float_pixel 0000000180041034     <common>
 0003:0001b038       glad_glMapParameterivNV    0000000180041038     <common>
 0003:0001b040       glad_glSecondaryColor3uivEXT 0000000180041040     <common>
 0003:0001b048       glad_glGetObjectParameterivAPPLE 0000000180041048     <common>
 0003:0001b050       glad_glCreateProgramObjectARB 0000000180041050     <common>
 0003:0001b058       glad_glVertexAttribI4bv    0000000180041058     <common>
 0003:0001b060       glad_glRasterPos4xvOES     0000000180041060     <common>
 0003:0001b068       glad_glConvolutionParameterfvEXT 0000000180041068     <common>
 0003:0001b070       glad_glProgramUniform4ui64vARB 0000000180041070     <common>
 0003:0001b078       glad_glCompileShaderARB    0000000180041078     <common>
 0003:0001b080       glad_glPathParameteriNV    0000000180041080     <common>
 0003:0001b088       glad_glColor4fNormal3fVertex3fSUN 0000000180041088     <common>
 0003:0001b090       glad_glProgramUniformMatrix2x4fv 0000000180041090     <common>
 0003:0001b098       glad_glMultiTexCoordP2ui   0000000180041098     <common>
 0003:0001b0a0       glad_glGetVertexAttribfvARB 00000001800410a0     <common>
 0003:0001b0a8       glad_glMultiModeDrawArraysIBM 00000001800410a8     <common>
 0003:0001b0b0       glad_glSecondaryColor3uiEXT 00000001800410b0     <common>
 0003:0001b0b8       glad_glGetTextureSubImage  00000001800410b8     <common>
 0003:0001b0c0       GLAD_GL_VERSION_2_0        00000001800410c0     <common>
 0003:0001b0c8       glad_glRasterPos4xOES      00000001800410c8     <common>
 0003:0001b0d0       glad_glVertexAttribI3uiEXT 00000001800410d0     <common>
 0003:0001b0d8       glad_glCreateTransformFeedbacks 00000001800410d8     <common>
 0003:0001b0e0       glad_glProgramUniformMatrix4x3fvEXT 00000001800410e0     <common>
 0003:0001b0e8       glad_glGetMultiTexGenivEXT 00000001800410e8     <common>
 0003:0001b0f0       glad_glGetBufferPointerv   00000001800410f0     <common>
 0003:0001b0f8       glad_glShaderSourceARB     00000001800410f8     <common>
 0003:0001b100       glad_glVertexAttribI4uiv   0000000180041100     <common>
 0003:0001b108       glad_glTransformFeedbackAttribsNV 0000000180041108     <common>
 0003:0001b110       glad_glProgramUniformMatrix2dvEXT 0000000180041110     <common>
 0003:0001b118       glad_glMapControlPointsNV  0000000180041118     <common>
 0003:0001b120       glad_glConvolutionParameterfEXT 0000000180041120     <common>
 0003:0001b128       glad_glPathParameterivNV   0000000180041128     <common>
 0003:0001b130       glad_glMultiTexCoordP1uiv  0000000180041130     <common>
 0003:0001b138       glad_glObjectUnpurgeableAPPLE 0000000180041138     <common>
 0003:0001b140       glad_glGetVertexAttribdvARB 0000000180041140     <common>
 0003:0001b148       glad_glProgramUniform3ui64vARB 0000000180041148     <common>
 0003:0001b150       glad_glClipControl         0000000180041150     <common>
 0003:0001b158       glad_glSecondaryColor3ubvEXT 0000000180041158     <common>
 0003:0001b160       glad_glVertexAttribI3uiv   0000000180041160     <common>
 0003:0001b168       glad_glGetBufferParameteriv 0000000180041168     <common>
 0003:0001b170       glad_glProgramUniformMatrix3x2fv 0000000180041170     <common>
 0003:0001b178       glad_glVertexAttribI2uiEXT 0000000180041178     <common>
 0003:0001b180       glad_glRasterPos3xvOES     0000000180041180     <common>
 0003:0001b188       glad_glSecondaryColor3ubEXT 0000000180041188     <common>
 0003:0001b190       GLAD_GL_IBM_multimode_draw_arrays 0000000180041190     <common>
 0003:0001b198       glad_glCreateShaderObjectARB 0000000180041198     <common>
 0003:0001b1a0       glad_glEndTransformFeedbackNV 00000001800411a0     <common>
 0003:0001b1a8       glad_glGetMultiTexGenfvEXT 00000001800411a8     <common>
 0003:0001b1b0       GLAD_GL_IBM_cull_vertex    00000001800411b0     <common>
 0003:0001b1b8       glad_glConvolutionFilter2DEXT 00000001800411b8     <common>
 0003:0001b1c0       glad_glBeginTransformFeedbackNV 00000001800411c0     <common>
 0003:0001b1c8       glad_glTransformPathNV     00000001800411c8     <common>
 0003:0001b1d0       GLAD_GL_VERSION_4_5        00000001800411d0     <common>
 0003:0001b1d8       glad_glProgramUniformMatrix3x4fvEXT 00000001800411d8     <common>
 0003:0001b1e0       glad_glObjectPurgeableAPPLE 00000001800411e0     <common>
 0003:0001b1e8       GLAD_GL_HP_texture_lighting 00000001800411e8     <common>
 0003:0001b1f0       glad_glMultiTexCoordP1ui   00000001800411f0     <common>
 0003:0001b1f8       glad_glRasterPos3xOES      00000001800411f8     <common>
 0003:0001b200       glad_glVertexAttribI2uiv   0000000180041200     <common>
 0003:0001b208       GLAD_GL_HP_occlusion_test  0000000180041208     <common>
 0003:0001b210       glad_glDisableVertexAttribArrayARB 0000000180041210     <common>
 0003:0001b218       glad_glBindVertexBuffers   0000000180041218     <common>
 0003:0001b220       glad_glProgramUniform4dvEXT 0000000180041220     <common>
 0003:0001b228       glad_glGetImageTransformParameterfvHP 0000000180041228     <common>
 0003:0001b230       glad_glDetachObjectARB     0000000180041230     <common>
 0003:0001b238       glad_glProgramUniform2ui64vARB 0000000180041238     <common>
 0003:0001b240       glad_glUnmapBuffer         0000000180041240     <common>
 0003:0001b248       GLAD_GL_NV_transform_feedback 0000000180041248     <common>
 0003:0001b250       glad_glEnableVertexAttribArrayARB 0000000180041250     <common>
 0003:0001b258       GLAD_GL_NV_texture_shader3 0000000180041258     <common>
 0003:0001b260       glad_glVertexAttribI1uiEXT 0000000180041260     <common>
 0003:0001b268       glad_glSecondaryColor3svEXT 0000000180041268     <common>
 0003:0001b270       glad_glNormal3fVertex3fvSUN 0000000180041270     <common>
 0003:0001b278       GLAD_GL_NV_texture_shader2 0000000180041278     <common>
 0003:0001b27c       GLAD_GL_NV_texture_shader  000000018004127c     <common>
 0003:0001b280       glad_glVertexAttribI1uiv   0000000180041280     <common>
 0003:0001b288       GLAD_GL_APPLE_object_purgeable 0000000180041288     <common>
 0003:0001b290       glad_glTexCoordP4uiv       0000000180041290     <common>
 0003:0001b298       glad_glGetMultiTexGendvEXT 0000000180041298     <common>
 0003:0001b2a0       glad_glGetHandleARB        00000001800412a0     <common>
 0003:0001b2a8       glad_glProgramUniformMatrix2x3fv 00000001800412a8     <common>
 0003:0001b2b0       glad_glMapBuffer           00000001800412b0     <common>
 0003:0001b2b8       GLAD_GL_NV_texture_rectangle 00000001800412b8     <common>
 0003:0001b2c0       glad_glVertexAttribPointerARB 00000001800412c0     <common>
 0003:0001b2c8       glad_glRasterPos2xvOES     00000001800412c8     <common>
 0003:0001b2d0       glad_glTextureImage3DMultisampleCoverageNV 00000001800412d0     <common>
 0003:0001b2d8       glad_glFlushMappedBufferRangeAPPLE 00000001800412d8     <common>
 0003:0001b2e0       GLAD_GL_NV_evaluators      00000001800412e0     <common>
 0003:0001b2e8       glad_glSecondaryColor3sEXT 00000001800412e8     <common>
 0003:0001b2f0       glad_glGetImageTransformParameterivHP 00000001800412f0     <common>
 0003:0001b2f8       glad_glInterpolatePathsNV  00000001800412f8     <common>
 0003:0001b300       glad_glVertexAttribI4iEXT  0000000180041300     <common>
 0003:0001b308       glad_glDrawTextureNV       0000000180041308     <common>
 0003:0001b310       glad_glProgramUniform3dvEXT 0000000180041310     <common>
 0003:0001b318       glad_glDeleteObjectARB     0000000180041318     <common>
 0003:0001b320       glad_glNormal3fVertex3fSUN 0000000180041320     <common>
 0003:0001b328       glad_glProgramUniformMatrix4x2fvEXT 0000000180041328     <common>
 0003:0001b330       glad_glMemoryBarrierByRegion 0000000180041330     <common>
 0003:0001b338       glad_glProgramUniform1ui64vARB 0000000180041338     <common>
 0003:0001b340       glad_glRasterPos2xOES      0000000180041340     <common>
 0003:0001b348       glad_glBindImageTextures   0000000180041348     <common>
 0003:0001b350       glad_glVertexAttribI4iv    0000000180041350     <common>
 0003:0001b358       glad_glTexCoordP4ui        0000000180041358     <common>
 0003:0001b360       glad_glGetBufferSubData    0000000180041360     <common>
 0003:0001b368       glad_glConvolutionFilter1DEXT 0000000180041368     <common>
 0003:0001b370       GLAD_GL_ARB_shader_objects 0000000180041370     <common>
 0003:0001b378       glad_glGetQueryBufferObjectuiv 0000000180041378     <common>
 0003:0001b380       GLAD_GL_ARB_shader_image_size 0000000180041380     <common>
 0003:0001b388       glad_glBufferParameteriAPPLE 0000000180041388     <common>
 0003:0001b390       glad_glImageTransformParameterfvHP 0000000180041390     <common>
 0003:0001b398       glad_glSecondaryColor3ivEXT 0000000180041398     <common>
 0003:0001b3a0       glad_glGetMultiTexEnvivEXT 00000001800413a0     <common>
 0003:0001b3a8       GLAD_GL_ARB_shader_image_load_store 00000001800413a8     <common>
 0003:0001b3b0       glad_glVertexAttribI3iv    00000001800413b0     <common>
 0003:0001b3b8       GLAD_GL_ARB_shader_group_vote 00000001800413b8     <common>
 0003:0001b3c0       glad_glPrioritizeTexturesxOES 00000001800413c0     <common>
 0003:0001b3c8       glad_glTexCoordP3uiv       00000001800413c8     <common>
 0003:0001b3d0       GLAD_GL_ARB_shader_draw_parameters 00000001800413d0     <common>
 0003:0001b3d8       glad_glProgramUniformMatrix4dv 00000001800413d8     <common>
 0003:0001b3e0       glad_glCopyPathNV          00000001800413e0     <common>
 0003:0001b3e8       GLAD_GL_ARB_shader_clock   00000001800413e8     <common>
 0003:0001b3f0       glad_glBindSamplers        00000001800413f0     <common>
 0003:0001b3f8       glad_glSecondaryColor3iEXT 00000001800413f8     <common>
 0003:0001b400       GLAD_GL_ARB_shader_bit_encoding 0000000180041400     <common>
 0003:0001b408       glad_glProgramUniform2dvEXT 0000000180041408     <common>
 0003:0001b410       glad_glProgramUniform4ui64ARB 0000000180041410     <common>
 0003:0001b418       GLAD_GL_ARB_shader_ballot  0000000180041418     <common>
 0003:0001b420       glad_glVertexAttrib4usvARB 0000000180041420     <common>
 0003:0001b428       glad_glVertexAttribI3iEXT  0000000180041428     <common>
 0003:0001b430       glad_glProgramUniformMatrix2x4fvEXT 0000000180041430     <common>
 0003:0001b438       GLAD_GL_ARB_shader_atomic_counters 0000000180041438     <common>
 0003:0001b440       glad_glBufferSubData       0000000180041440     <common>
 0003:0001b448       GLAD_GL_APPLE_flush_buffer_range 0000000180041448     <common>
 0003:0001b450       glad_glVertexAttribI2iv    0000000180041450     <common>
 0003:0001b458       GLAD_GL_ARB_shader_atomic_counter_ops 0000000180041458     <common>
 0003:0001b460       glad_glGetQueryBufferObjectui64v 0000000180041460     <common>
 0003:0001b468       glad_glTexCoordP3ui        0000000180041468     <common>
 0003:0001b470       glad_glImageTransformParameterivHP 0000000180041470     <common>
 0003:0001b478       GLAD_GL_APPLE_float_pixels 0000000180041478     <common>
 0003:0001b47c       GLAD_GL_ARB_separate_shader_objects 000000018004147c     <common>
 0003:0001b480       glad_glWeightPathsNV       0000000180041480     <common>
 0003:0001b488       glad_glColor3fVertex3fvSUN 0000000180041488     <common>
 0003:0001b490       glad_glFinishObjectAPPLE   0000000180041490     <common>
 0003:0001b498       GLAD_GL_ARB_seamless_cubemap_per_texture 0000000180041498     <common>
 0003:0001b4a0       glad_glPixelZoomxOES       00000001800414a0     <common>
 0003:0001b4a8       glad_glGetMultiTexEnvfvEXT 00000001800414a8     <common>
 0003:0001b4b0       GLAD_GL_ARB_seamless_cube_map 00000001800414b0     <common>
 0003:0001b4b4       GLAD_GL_ARB_sampler_objects 00000001800414b4     <common>
 0003:0001b4b8       GLAD_GL_EXT_convolution    00000001800414b8     <common>
 0003:0001b4c0       glad_glTextureImage2DMultisampleCoverageNV 00000001800414c0     <common>
 0003:0001b4c8       glad_glBindTextures        00000001800414c8     <common>
 0003:0001b4d0       glad_glVertexAttrib4uivARB 00000001800414d0     <common>
 0003:0001b4d8       glad_glSecondaryColor3fvEXT 00000001800414d8     <common>
 0003:0001b4e0       glad_glMinSampleShadingARB 00000001800414e0     <common>
 0003:0001b4e8       glad_glUnlockArraysEXT     00000001800414e8     <common>
 0003:0001b4f0       glad_glVertexAttribI1iv    00000001800414f0     <common>
 0003:0001b4f8       glad_glProgramUniform1dvEXT 00000001800414f8     <common>
 0003:0001b500       glad_glColor3fVertex3fSUN  0000000180041500     <common>
 0003:0001b508       glad_glProgramUniformMatrix3dv 0000000180041508     <common>
 0003:0001b510       glad_glLockArraysEXT       0000000180041510     <common>
 0003:0001b518       glad_glTexCoordP2uiv       0000000180041518     <common>
 0003:0001b520       glad_glTestObjectAPPLE     0000000180041520     <common>
 0003:0001b528       glad_glPixelTransferxOES   0000000180041528     <common>
 0003:0001b530       glad_glVertexAttribI2iEXT  0000000180041530     <common>
 0003:0001b538       glad_glImageTransformParameterfHP 0000000180041538     <common>
 0003:0001b540       glad_glSecondaryColor3fEXT 0000000180041540     <common>
 0003:0001b548       glad_glBufferData          0000000180041548     <common>
 0003:0001b550       GLAD_GL_ARB_sample_shading 0000000180041550     <common>
 0003:0001b558       glad_glEvaluateDepthValuesARB 0000000180041558     <common>
 0003:0001b560       glad_glVertexAttrib4ubvARB 0000000180041560     <common>
 0003:0001b568       GLAD_GL_NV_draw_texture    0000000180041568     <common>
 0003:0001b570       glad_glProgramUniformMatrix3x2fvEXT 0000000180041570     <common>
 0003:0001b578       glad_glGetQueryBufferObjectiv 0000000180041578     <common>
 0003:0001b580       GLAD_GL_NV_depth_clamp     0000000180041580     <common>
 0003:0001b588       glad_glPathGlyphRangeNV    0000000180041588     <common>
 0003:0001b590       glad_glDepthBoundsdNV      0000000180041590     <common>
 0003:0001b598       glad_glBindBuffersRange    0000000180041598     <common>
 0003:0001b5a0       glad_glVertexAttribI4ui    00000001800415a0     <common>
 0003:0001b5a8       glad_glNamedFramebufferSampleLocationsfvARB 00000001800415a8     <common>
 0003:0001b5b0       glad_glProgramUniform3ui64ARB 00000001800415b0     <common>
 0003:0001b5b8       glad_glTexCoordP2ui        00000001800415b8     <common>
 0003:0001b5c0       glad_glMultiTexGenivEXT    00000001800415c0     <common>
 0003:0001b5c8       GLAD_GL_EXT_compiled_vertex_array 00000001800415c8     <common>
 0003:0001b5d0       glad_glFinishFenceAPPLE    00000001800415d0     <common>
 0003:0001b5d8       glad_glPixelStorex         00000001800415d8     <common>
 0003:0001b5e0       glad_glCopyColorSubTableEXT 00000001800415e0     <common>
 0003:0001b5e8       glad_glVertexAttrib4svARB  00000001800415e8     <common>
 0003:0001b5f0       glad_glVertexAttribI1iEXT  00000001800415f0     <common>
 0003:0001b5f8       glad_glProgramUniform4dEXT 00000001800415f8     <common>
 0003:0001b600       glad_glSecondaryColor3dvEXT 0000000180041600     <common>
 0003:0001b608       glad_glImageTransformParameteriHP 0000000180041608     <common>
 0003:0001b610       glad_glTestFenceAPPLE      0000000180041610     <common>
 0003:0001b618       glad_glClearDepthdNV       0000000180041618     <common>
 0003:0001b620       glad_glTexCoordP1uiv       0000000180041620     <common>
 0003:0001b628       glad_glIsBuffer            0000000180041628     <common>
 0003:0001b630       glad_glProgramUniformMatrix2dv 0000000180041630     <common>
 0003:0001b638       glad_glPixelMapx           0000000180041638     <common>
 0003:0001b640       glad_glSecondaryColor3dEXT 0000000180041640     <common>
 0003:0001b648       glad_glGetQueryBufferObjecti64v 0000000180041648     <common>
 0003:0001b650       glad_glColor4ubVertex3fvSUN 0000000180041650     <common>
 0003:0001b658       glad_glFramebufferSampleLocationsfvARB 0000000180041658     <common>
 0003:0001b660       GLAD_GL_NV_vertex_program4 0000000180041660     <common>
 0003:0001b668       glad_glDepthRangedNV       0000000180041668     <common>
 0003:0001b670       glad_glIsFenceAPPLE        0000000180041670     <common>
 0003:0001b678       glad_glTextureImage3DMultisampleNV 0000000180041678     <common>
 0003:0001b680       glad_glVertexAttrib4sARB   0000000180041680     <common>
 0003:0001b688       glad_glGenBuffers          0000000180041688     <common>
 0003:0001b690       glad_glProgramUniformMatrix2x3fvEXT 0000000180041690     <common>
 0003:0001b698       glad_glMultiTexGeniEXT     0000000180041698     <common>
 0003:0001b6a0       GLAD_GL_NV_vertex_program3 00000001800416a0     <common>
 0003:0001b6a4       GLAD_GL_NV_vertex_program2_option 00000001800416a4     <common>
 0003:0001b6a8       glad_glProgramUniform2ui64ARB 00000001800416a8     <common>
 0003:0001b6b0       glad_glVertexAttribI3ui    00000001800416b0     <common>
 0003:0001b6b8       GLAD_GL_HP_image_transform 00000001800416b8     <common>
 0003:0001b6bc       GLAD_GL_NV_vertex_program2 00000001800416bc     <common>
 0003:0001b6c0       glad_glTexCoordP1ui        00000001800416c0     <common>
 0003:0001b6c8       GLAD_GL_NV_vertex_program1_1 00000001800416c8     <common>
 0003:0001b6cc       GLAD_GL_HP_convolution_border_modes 00000001800416cc     <common>
 0003:0001b6d0       glad_glBindBuffersBase     00000001800416d0     <common>
 0003:0001b6d8       glad_glSetFenceAPPLE       00000001800416d8     <common>
 0003:0001b6e0       glad_glColorSubTableEXT    00000001800416e0     <common>
 0003:0001b6e8       glad_glVertexAttribs4ubvNV 00000001800416e8     <common>
 0003:0001b6f0       glad_glColor4ubVertex3fSUN 00000001800416f0     <common>
 0003:0001b6f8       glad_glStringMarkerGREMEDY 00000001800416f8     <common>
 0003:0001b700       glad_glPassThroughxOES     0000000180041700     <common>
 0003:0001b708       GLAD_GL_NV_depth_buffer_float 0000000180041708     <common>
 0003:0001b710       glad_glDeleteBuffers       0000000180041710     <common>
 0003:0001b718       glad_glSecondaryColor3bvEXT 0000000180041718     <common>
 0003:0001b720       GLAD_GL_NV_deep_texture3D  0000000180041720     <common>
 0003:0001b728       glad_glCopyImageSubDataNV  0000000180041728     <common>
 0003:0001b730       glad_glDeleteFencesAPPLE   0000000180041730     <common>
 0003:0001b738       glad_glVertexP4uiv         0000000180041738     <common>
 0003:0001b740       glad_glProgramUniformMatrix4fv 0000000180041740     <common>
 0003:0001b748       glad_glProgramUniform3dEXT 0000000180041748     <common>
 0003:0001b750       glad_glPathGlyphsNV        0000000180041750     <common>
 0003:0001b758       glad_glCreateQueries       0000000180041758     <common>
 0003:0001b760       glad_glNormal3xvOES        0000000180041760     <common>
 0003:0001b768       GLAD_GL_ARB_sample_locations 0000000180041768     <common>
 0003:0001b76c       GLAD_GL_GREMEDY_string_marker 000000018004176c     <common>
 0003:0001b770       GLAD_GL_ARB_robustness_isolation 0000000180041770     <common>
 0003:0001b778       glad_glMultiTexGenfvEXT    0000000180041778     <common>
 0003:0001b780       glad_glSecondaryColor3bEXT 0000000180041780     <common>
 0003:0001b788       glad_glFrameTerminatorGREMEDY 0000000180041788     <common>
 0003:0001b790       glad_glProgramUniform1ui64ARB 0000000180041790     <common>
 0003:0001b798       glad_glVertexAttrib4ivARB  0000000180041798     <common>
 0003:0001b7a0       glad_glGetnMinmaxARB       00000001800417a0     <common>
 0003:0001b7a8       glad_glVertexAttribI2ui    00000001800417a8     <common>
 0003:0001b7b0       glad_glVertexAttribs4svNV  00000001800417b0     <common>
 0003:0001b7b8       glad_glProgramUniformMatrix4fvEXT 00000001800417b8     <common>
 0003:0001b7c0       glad_glBindBuffer          00000001800417c0     <common>
 0003:0001b7c8       glad_glGenFencesAPPLE      00000001800417c8     <common>
 0003:0001b7d0       glad_glMultiTexCoord4xvOES 00000001800417d0     <common>
 0003:0001b7d8       GLAD_GL_GREMEDY_frame_terminator 00000001800417d8     <common>
 0003:0001b7e0       glad_glClearTexSubImage    00000001800417e0     <common>
 0003:0001b7e8       glad_glImportSyncEXT       00000001800417e8     <common>
 0003:0001b7f0       glad_glVertexP4ui          00000001800417f0     <common>
 0003:0001b7f8       glad_glCreateProgramPipelines 00000001800417f8     <common>
 0003:0001b800       glad_glVertexAttrib4fvARB  0000000180041800     <common>
 0003:0001b808       glad_glTextureImage2DMultisampleNV 0000000180041808     <common>
 0003:0001b810       GLAD_GL_EXT_color_subtable 0000000180041810     <common>
 0003:0001b814       GLAD_GL_EXT_cmyka          0000000180041814     <common>
 0003:0001b818       glad_glGetQueryObjectuiv   0000000180041818     <common>
 0003:0001b820       GLAD_GL_EXT_secondary_color 0000000180041820     <common>
 0003:0001b824       GLAD_GL_EXT_rescale_normal 0000000180041824     <common>
 0003:0001b828       glad_glProgramUniform4i64vARB 0000000180041828     <common>
 0003:0001b830       GLAD_GL_EXT_clip_volume_hint 0000000180041830     <common>
 0003:0001b838       glad_glVertexAttribI1ui    0000000180041838     <common>
 0003:0001b840       GLAD_GL_APPLE_fence        0000000180041840     <common>
 0003:0001b848       glad_glMultiTexCoord3xvOES 0000000180041848     <common>
 0003:0001b850       GLAD_GL_EXT_blend_subtract 0000000180041850     <common>
 0003:0001b858       glad_glMultiTexGenfEXT     0000000180041858     <common>
 0003:0001b860       glad_glVertexP3uiv         0000000180041860     <common>
 0003:0001b868       glad_glProgramUniform2dEXT 0000000180041868     <common>
 0003:0001b870       glad_glVertexAttribs4fvNV  0000000180041870     <common>
 0003:0001b878       glad_glProgramUniformMatrix3fv 0000000180041878     <common>
 0003:0001b880       glad_glRasterSamplesEXT    0000000180041880     <common>
 0003:0001b888       glad_glColor4ubVertex2fvSUN 0000000180041888     <common>
 0003:0001b890       glad_glMultiDrawRangeElementArrayAPPLE 0000000180041890     <common>
 0003:0001b898       glad_glBlendEquationEXT    0000000180041898     <common>
 0003:0001b8a0       glad_glCreateSamplers      00000001800418a0     <common>
 0003:0001b8a8       GLAD_GL_EXT_x11_sync_object 00000001800418a8     <common>
 0003:0001b8b0       glad_glWindowRectanglesEXT 00000001800418b0     <common>
 0003:0001b8b8       glad_glVertexAttrib4fARB   00000001800418b8     <common>
 0003:0001b8c0       glad_glProgramUniformMatrix3fvEXT 00000001800418c0     <common>
 0003:0001b8c8       GLAD_GL_EXT_blend_minmax   00000001800418c8     <common>
 0003:0001b8d0       glad_glMultiTexCoord3xOES  00000001800418d0     <common>
 0003:0001b8d8       glad_glVertexAttribI4i     00000001800418d8     <common>
 0003:0001b8e0       glad_glGetnHistogramARB    00000001800418e0     <common>
 0003:0001b8e8       glad_glColor4ubVertex2fSUN 00000001800418e8     <common>
 0003:0001b8f0       glad_glVertexP3ui          00000001800418f0     <common>
 0003:0001b8f8       GLAD_GL_EXT_raster_multisample 00000001800418f8     <common>
 0003:0001b8fc       GLAD_GL_EXT_blend_logic_op 00000001800418fc     <common>
 0003:0001b900       glad_glGetQueryObjectiv    0000000180041900     <common>
 0003:0001b908       glad_glBlendFuncSeparateEXT 0000000180041908     <common>
 0003:0001b910       glad_glProvokingVertexEXT  0000000180041910     <common>
 0003:0001b918       glad_glGetVertexArrayIndexed64iv 0000000180041918     <common>
 0003:0001b920       glad_glVertexAttribs4dvNV  0000000180041920     <common>
 0003:0001b928       glad_glProgramUniform3i64vARB 0000000180041928     <common>
 0003:0001b930       glad_glPathStringNV        0000000180041930     <common>
 0003:0001b938       glad_glMultiTexGendvEXT    0000000180041938     <common>
 0003:0001b940       glad_glProgramUniform1dEXT 0000000180041940     <common>
 0003:0001b948       GLAD_GL_EXT_window_rectangles 0000000180041948     <common>
 0003:0001b94c       GLAD_GL_EXT_provoking_vertex 000000018004194c     <common>
 0003:0001b950       glad_glVertexP2uiv         0000000180041950     <common>
 0003:0001b958       glad_glVertexWeightPointerEXT 0000000180041958     <common>
 0003:0001b960       GLAD_GL_EXT_post_depth_coverage 0000000180041960     <common>
 0003:0001b968       glad_glProgramUniformMatrix2fv 0000000180041968     <common>
 0003:0001b970       glad_glPolygonOffsetClampEXT 0000000180041970     <common>
 0003:0001b978       glad_glTexImage3DMultisampleCoverageNV 0000000180041978     <common>
 0003:0001b980       glad_glMultiDrawElementArrayAPPLE 0000000180041980     <common>
 0003:0001b988       glad_glGetQueryiv          0000000180041988     <common>
 0003:0001b990       glad_glVertexAttrib4dvARB  0000000180041990     <common>
 0003:0001b998       glad_glMultiTexCoord2xvOES 0000000180041998     <common>
 0003:0001b9a0       glad_glProgramUniformMatrix2fvEXT 00000001800419a0     <common>
 0003:0001b9a8       glad_glVertexAttribs3svNV  00000001800419a8     <common>
 0003:0001b9b0       glad_glClearTexImage       00000001800419b0     <common>
 0003:0001b9b8       glad_glVertexAttribI3i     00000001800419b8     <common>
 0003:0001b9c0       GLAD_GL_EXT_blend_func_separate 00000001800419c0     <common>
 0003:0001b9c8       glad_glGetVertexArrayIndexediv 00000001800419c8     <common>
 0003:0001b9d0       glad_glGetNamedFramebufferParameterivEXT 00000001800419d0     <common>
 0003:0001b9d8       glad_glVertexP2ui          00000001800419d8     <common>
 0003:0001b9e0       glad_glBlendEquationSeparateEXT 00000001800419e0     <common>
 0003:0001b9e8       glad_glProgramUniform2i64vARB 00000001800419e8     <common>
 0003:0001b9f0       GLAD_GL_NV_copy_image      00000001800419f0     <common>
 0003:0001b9f8       glad_glGetnSeparableFilterARB 00000001800419f8     <common>
 0003:0001ba00       GLAD_GL_SUN_vertex         0000000180041a00     <common>
 0003:0001ba08       glad_glMultiTexGendEXT     0000000180041a08     <common>
 0003:0001ba10       GLAD_GL_NV_copy_depth_to_color 0000000180041a10     <common>
 0003:0001ba18       glad_glPathSubCoordsNV     0000000180041a18     <common>
 0003:0001ba20       GLAD_GL_EXT_polygon_offset_clamp 0000000180041a20     <common>
 0003:0001ba28       glad_glVertexAttrib4dARB   0000000180041a28     <common>
 0003:0001ba30       glad_glReplacementCodePointerSUN 0000000180041a30     <common>
 0003:0001ba38       glad_glMultiTexCoord2xOES  0000000180041a38     <common>
 0003:0001ba40       glad_glConservativeRasterParameteriNV 0000000180041a40     <common>
 0003:0001ba48       glad_glEndQuery            0000000180041a48     <common>
 0003:0001ba50       glad_glVertexWeightfvEXT   0000000180041a50     <common>
 0003:0001ba58       glad_glPolygonOffsetEXT    0000000180041a58     <common>
 0003:0001ba60       glad_glVertexAttribP4uiv   0000000180041a60     <common>
 0003:0001ba68       glad_glDrawRangeElementArrayAPPLE 0000000180041a68     <common>
 0003:0001ba70       glad_glProgramUniform4uiv  0000000180041a70     <common>
 0003:0001ba78       GLAD_GL_EXT_blend_equation_separate 0000000180041a78     <common>
 0003:0001ba80       glad_glVertexAttribs3fvNV  0000000180041a80     <common>
 0003:0001ba88       glad_glBlendColorEXT       0000000180041a88     <common>
 0003:0001ba90       glad_glNamedFramebufferParameteriEXT 0000000180041a90     <common>
 0003:0001ba98       glad_glBeginQuery          0000000180041a98     <common>
 0003:0001baa0       glad_glVertexWeightfEXT    0000000180041aa0     <common>
 0003:0001baa8       glad_glVertexAttribI2i     0000000180041aa8     <common>
 0003:0001bab0       GLAD_GL_NV_conservative_raster_pre_snap_triangles 0000000180041ab0     <common>
 0003:0001bab4       GLAD_GL_EXT_polygon_offset 0000000180041ab4     <common>
 0003:0001bab8       glad_glGetVertexArrayiv    0000000180041ab8     <common>
 0003:0001bac0       glad_glConservativeRasterParameterfNV 0000000180041ac0     <common>
 0003:0001bac8       glad_glProgramUniform4ivEXT 0000000180041ac8     <common>
 0003:0001bad0       glad_glMultiTexCoord1xvOES 0000000180041ad0     <common>
 0003:0001bad8       glad_glPointParameterfvEXT 0000000180041ad8     <common>
 0003:0001bae0       glad_glBufferStorage       0000000180041ae0     <common>
 0003:0001bae8       glad_glProgramUniform1i64vARB 0000000180041ae8     <common>
 0003:0001baf0       glad_glReplacementCodeubvSUN 0000000180041af0     <common>
 0003:0001baf8       GLAD_GL_EXT_vertex_weighting 0000000180041af8     <common>
 0003:0001bb00       glad_glMultiTexEnvivEXT    0000000180041b00     <common>
 0003:0001bb08       glad_glGetLocalConstantFloatvEXT 0000000180041b08     <common>
 0003:0001bb10       glad_glTexImage2DMultisampleCoverageNV 0000000180041b10     <common>
 0003:0001bb18       glad_glIsQuery             0000000180041b18     <common>
 0003:0001bb20       glad_glPathSubCommandsNV   0000000180041b20     <common>
 0003:0001bb28       glad_glVertexAttribs3dvNV  0000000180041b28     <common>
 0003:0001bb30       glad_glReplacementCodeusvSUN 0000000180041b30     <common>
 0003:0001bb38       glad_glVertexAttrib4bvARB  0000000180041b38     <common>
 0003:0001bb40       glad_glVertexAttribP4ui    0000000180041b40     <common>
 0003:0001bb48       GLAD_GL_NV_conservative_raster_dilate 0000000180041b48     <common>
 0003:0001bb50       glad_glClearNamedBufferSubDataEXT 0000000180041b50     <common>
 0003:0001bb58       glad_glProgramUniform4ui   0000000180041b58     <common>
 0003:0001bb60       GLAD_GL_EXT_blend_color    0000000180041b60     <common>
 0003:0001bb68       glad_glMultiTexCoord1xOES  0000000180041b68     <common>
 0003:0001bb70       glad_glVertexAttribI1i     0000000180041b70     <common>
 0003:0001bb78       glad_glSubpixelPrecisionBiasNV 0000000180041b78     <common>
 0003:0001bb80       glad_glPointParameterfEXT  0000000180041b80     <common>
 0003:0001bb88       glad_glVertexArrayBindingDivisor 0000000180041b88     <common>
 0003:0001bb90       glad_glDeleteQueries       0000000180041b90     <common>
 0003:0001bb98       glad_glGetUniformOffsetEXT 0000000180041b98     <common>
 0003:0001bba0       glad_glDrawElementArrayAPPLE 0000000180041ba0     <common>
 0003:0001bba8       glad_glReplacementCodeuivSUN 0000000180041ba8     <common>
 0003:0001bbb0       glad_glGetnConvolutionFilterARB 0000000180041bb0     <common>
 0003:0001bbb8       glad_glProgramUniform3ivEXT 0000000180041bb8     <common>
 0003:0001bbc0       glad_glVertexAttrib4NusvARB 0000000180041bc0     <common>
 0003:0001bbc8       GLAD_GL_VERSION_4_4        0000000180041bc8     <common>
 0003:0001bbd0       glad_glProgramUniform4i64ARB 0000000180041bd0     <common>
 0003:0001bbd8       glad_glGetLocalConstantIntegervEXT 0000000180041bd8     <common>
 0003:0001bbe0       glad_glVertexAttribs2svNV  0000000180041be0     <common>
 0003:0001bbe8       glad_glMultiTexEnviEXT     0000000180041be8     <common>
 0003:0001bbf0       glad_glGetObjectPtrLabel   0000000180041bf0     <common>
 0003:0001bbf8       glad_glGetVertexAttribIuiv 0000000180041bf8     <common>
 0003:0001bc00       glad_glMultTransposeMatrixxOES 0000000180041c00     <common>
 0003:0001bc08       GLAD_GL_NV_conservative_raster 0000000180041c08     <common>
 0003:0001bc0c       GLAD_GL_EXT_point_parameters 0000000180041c0c     <common>
 0003:0001bc10       glad_glReplacementCodeubSUN 0000000180041c10     <common>
 0003:0001bc18       glad_glGenQueries          0000000180041c18     <common>
 0003:0001bc20       GLAD_GL_EXT_pixel_transform_color_table 0000000180041c20     <common>
 0003:0001bc28       glad_glEndConditionalRenderNV 0000000180041c28     <common>
 0003:0001bc30       glad_glGetUniformBufferSizeEXT 0000000180041c30     <common>
 0003:0001bc38       glad_glGetPixelTransformParameterfvEXT 0000000180041c38     <common>
 0003:0001bc40       glad_glVertexArrayAttribLFormat 0000000180041c40     <common>
 0003:0001bc48       glad_glVertexAttribP3uiv   0000000180041c48     <common>
 0003:0001bc50       glad_glBeginConditionalRenderNV 0000000180041c50     <common>
 0003:0001bc58       glad_glElementPointerAPPLE 0000000180041c58     <common>
 0003:0001bc60       glad_glReplacementCodeusSUN 0000000180041c60     <common>
 0003:0001bc68       glad_glMapGrid2xOES        0000000180041c68     <common>
 0003:0001bc70       glad_glVertexAttrib4NuivARB 0000000180041c70     <common>
 0003:0001bc78       GLAD_GL_NV_texture_multisample 0000000180041c78     <common>
 0003:0001bc80       glad_glGetLocalConstantBooleanvEXT 0000000180041c80     <common>
 0003:0001bc88       GLAD_GL_VERSION_1_5        0000000180041c88     <common>
 0003:0001bc90       glad_glProgramUniform2ivEXT 0000000180041c90     <common>
 0003:0001bc98       glad_glProgramUniform4dv   0000000180041c98     <common>
 0003:0001bca0       glad_glUniformBufferEXT    0000000180041ca0     <common>
 0003:0001bca8       glad_glVertexAttribs2fvNV  0000000180041ca8     <common>
 0003:0001bcb0       GLAD_GL_NV_texture_expand_normal 0000000180041cb0     <common>
 0003:0001bcb8       glad_glReplacementCodeuiSUN 0000000180041cb8     <common>
 0003:0001bcc0       glad_glGetnColorTableARB   0000000180041cc0     <common>
 0003:0001bcc8       glad_glBlendEquation       0000000180041cc8     <common>
 0003:0001bcd0       glad_glGetVertexAttribIiv  0000000180041cd0     <common>
 0003:0001bcd8       GLAD_GL_NV_texture_env_combine4 0000000180041cd8     <common>
 0003:0001bcdc       GLAD_GL_NV_conditional_render 0000000180041cdc     <common>
 0003:0001bce0       GLAD_GL_APPLE_element_array 0000000180041ce0     <common>
 0003:0001bce8       glad_glObjectPtrLabel      0000000180041ce8     <common>
 0003:0001bcf0       glad_glClearNamedBufferDataEXT 0000000180041cf0     <common>
 0003:0001bcf8       GLAD_GL_NV_texture_compression_vtc 0000000180041cf8     <common>
 0003:0001bd00       glad_glPathCoordsNV        0000000180041d00     <common>
 0003:0001bd08       glad_glMultiTexEnvfvEXT    0000000180041d08     <common>
 0003:0001bd10       GLAD_GL_APPLE_client_storage 0000000180041d10     <common>
 0003:0001bd18       glad_glTextureBarrierNV    0000000180041d18     <common>
 0003:0001bd20       GLAD_GL_NV_compute_program5 0000000180041d20     <common>
 0003:0001bd28       glad_glVertexAttrib4NubvARB 0000000180041d28     <common>
 0003:0001bd30       glad_glGetPixelTransformParameterivEXT 0000000180041d30     <common>
 0003:0001bd38       glad_glCallCommandListNV   0000000180041d38     <common>
 0003:0001bd40       GLAD_GL_APPLE_aux_depth_stencil 0000000180041d40     <common>
 0003:0001bd44       GLAD_GL_SUN_triangle_list  0000000180041d44     <common>
 0003:0001bd48       glad_glBlendColor          0000000180041d48     <common>
 0003:0001bd50       glad_glProgramUniform3i64ARB 0000000180041d50     <common>
 0003:0001bd58       GLAD_GL_NV_texture_barrier 0000000180041d58     <common>
 0003:0001bd5c       GLAD_GL_AMD_vertex_shader_viewport_index 0000000180041d5c     <common>
 0003:0001bd60       GLAD_GL_SUN_slice_accum    0000000180041d60     <common>
 0003:0001bd68       glad_glTessellationModeAMD 0000000180041d68     <common>
 0003:0001bd70       GLAD_GL_NV_texgen_reflection 0000000180041d70     <common>
 0003:0001bd78       glad_glVertexAttribP3ui    0000000180041d78     <common>
 0003:0001bd80       glad_glGetInvariantFloatvEXT 0000000180041d80     <common>
 0003:0001bd88       GLAD_GL_NV_texgen_emboss   0000000180041d88     <common>
 0003:0001bd90       glad_glDrawMeshArraysSUN   0000000180041d90     <common>
 0003:0001bd98       GLAD_GL_NV_tessellation_program5 0000000180041d98     <common>
 0003:0001bda0       glad_glVertexAttribs2dvNV  0000000180041da0     <common>
 0003:0001bda8       GLAD_GL_EXT_bindable_uniform 0000000180041da8     <common>
 0003:0001bdb0       glad_glVertexArrayAttribIFormat 0000000180041db0     <common>
 0003:0001bdb8       glad_glCompileCommandListNV 0000000180041db8     <common>
 0003:0001bdc0       GLAD_GL_EXT_bgra           0000000180041dc0     <common>
 0003:0001bdc4       GLAD_GL_NV_stereo_view_rendering 0000000180041dc4     <common>
 0003:0001bdc8       glad_glVertexAttribIPointer 0000000180041dc8     <common>
 0003:0001bdd0       glad_glMapGrid1xOES        0000000180041dd0     <common>
 0003:0001bdd8       glad_glVertexAttrib4NubARB 0000000180041dd8     <common>
 0003:0001bde0       glad_glGetObjectLabel      0000000180041de0     <common>
 0003:0001bde8       GLAD_GL_NV_shader_thread_shuffle 0000000180041de8     <common>
 0003:0001bdec       GLAD_GL_EXT_abgr           0000000180041dec     <common>
 0003:0001bdf0       glad_glTessellationFactorAMD 0000000180041df0     <common>
 0003:0001bdf8       glad_glProgramUniform4d    0000000180041df8     <common>
 0003:0001be00       glad_glProgramUniform1ivEXT 0000000180041e00     <common>
 0003:0001be08       GLAD_GL_NV_shader_thread_group 0000000180041e08     <common>
 0003:0001be0c       GLAD_GL_EXT_422_pixels     0000000180041e0c     <common>
 0003:0001be10       glad_glPixelTransformParameterfvEXT 0000000180041e10     <common>
 0003:0001be18       GLAD_GL_NV_shader_storage_buffer_object 0000000180041e18     <common>
 0003:0001be20       glad_glMultiTexEnvfEXT     0000000180041e20     <common>
 0003:0001be28       glad_glCommandListSegmentsNV 0000000180041e28     <common>
 0003:0001be30       glad_glPathCommandsNV      0000000180041e30     <common>
 0003:0001be38       glad_glVertexBlendEnvfATI  0000000180041e38     <common>
 0003:0001be40       GLAD_GL_NV_shader_buffer_store 0000000180041e40     <common>
 0003:0001be48       glad_glGetnPolygonStippleARB 0000000180041e48     <common>
 0003:0001be50       glad_glNamedBufferStorageEXT 0000000180041e50     <common>
 0003:0001be58       glad_glProgramUniformui64vNV 0000000180041e58     <common>
 0003:0001be60       GLAD_GL_AMD_vertex_shader_tessellator 0000000180041e60     <common>
 0003:0001be64       GLAD_GL_AMD_vertex_shader_layer 0000000180041e64     <common>
 0003:0001be68       glad_glGetInvariantIntegervEXT 0000000180041e68     <common>
 0003:0001be70       glad_glPointParameteriv    0000000180041e70     <common>
 0003:0001be78       glad_glVertexAttribs1svNV  0000000180041e78     <common>
 0003:0001be80       glad_glVertexAttribP2uiv   0000000180041e80     <common>
 0003:0001be88       GLAD_GL_AMD_transform_feedback4 0000000180041e88     <common>
 0003:0001be90       glad_glMap2xOES            0000000180041e90     <common>
 0003:0001be98       glad_glProgramUniform2i64ARB 0000000180041e98     <common>
 0003:0001bea0       GLAD_GL_AMD_transform_feedback3_lines_triangles 0000000180041ea0     <common>
 0003:0001bea4       GLAD_GL_SUN_mesh_array     0000000180041ea4     <common>
 0003:0001bea8       glad_glGlobalAlphaFactoruiSUN 0000000180041ea8     <common>
 0003:0001beb0       glad_glVertexBlendEnviATI  0000000180041eb0     <common>
 0003:0001beb8       GLAD_GL_AMD_texture_texture4 0000000180041eb8     <common>
 0003:0001bec0       glad_glListDrawCommandsStatesClientNV 0000000180041ec0     <common>
 0003:0001bec8       glad_glGetnPixelMapusvARB  0000000180041ec8     <common>
 0003:0001bed0       glad_glPixelTransformParameterivEXT 0000000180041ed0     <common>
 0003:0001bed8       glad_glStencilOpValueAMD   0000000180041ed8     <common>
 0003:0001bee0       glad_glProgramUniform4fvEXT 0000000180041ee0     <common>
 0003:0001bee8       glad_glVertexArrayAttribFormat 0000000180041ee8     <common>
 0003:0001bef0       glad_glEndConditionalRender 0000000180041ef0     <common>
 0003:0001bef8       glad_glPointParameteri     0000000180041ef8     <common>
 0003:0001bf00       glad_glVertexAttrib4NsvARB 0000000180041f00     <common>
 0003:0001bf08       glad_glGlobalAlphaFactorusSUN 0000000180041f08     <common>
 0003:0001bf10       glad_glObjectLabel         0000000180041f10     <common>
 0003:0001bf18       glad_glMultiTexCoordPointerEXT 0000000180041f18     <common>
 0003:0001bf20       glad_glBeginConditionalRender 0000000180041f20     <common>
 0003:0001bf28       glad_glGetInvariantBooleanvEXT 0000000180041f28     <common>
 0003:0001bf30       glad_glProgramUniform4fv   0000000180041f30     <common>
 0003:0001bf38       glad_glProgramUniformui64NV 0000000180041f38     <common>
 0003:0001bf40       glad_glClientActiveVertexStreamATI 0000000180041f40     <common>
 0003:0001bf48       glad_glVertexAttribs1fvNV  0000000180041f48     <common>
 0003:0001bf50       glad_glFlushMappedNamedBufferRangeEXT 0000000180041f50     <common>
 0003:0001bf58       GLAD_GL_AMD_stencil_operation_extended 0000000180041f58     <common>
 0003:0001bf60       glad_glVertexAttribP2ui    0000000180041f60     <common>
 0003:0001bf68       glad_glGlobalAlphaFactorubSUN 0000000180041f68     <common>
 0003:0001bf70       glad_glIsPathNV            0000000180041f70     <common>
 0003:0001bf78       glad_glTextureStorageSparseAMD 0000000180041f78     <common>
 0003:0001bf80       glad_glPixelTransformParameterfEXT 0000000180041f80     <common>
 0003:0001bf88       glad_glVertexAttrib4NivARB 0000000180041f88     <common>
 0003:0001bf90       glad_glGetnPixelMapuivARB  0000000180041f90     <common>
 0003:0001bf98       glad_glProgramUniform1i64ARB 0000000180041f98     <common>
 0003:0001bfa0       glad_glPointParameterfv    0000000180041fa0     <common>
 0003:0001bfa8       glad_glNormalStream3dvATI  0000000180041fa8     <common>
 0003:0001bfb0       glad_glClampColor          0000000180041fb0     <common>
 0003:0001bfb8       glad_glGlobalAlphaFactordSUN 0000000180041fb8     <common>
 0003:0001bfc0       glad_glDeletePathsNV       0000000180041fc0     <common>
 0003:0001bfc8       glad_glProgramUniform3fvEXT 0000000180041fc8     <common>
 0003:0001bfd0       glad_glGetVariantPointervEXT 0000000180041fd0     <common>
 0003:0001bfd8       glad_glPopDebugGroup       0000000180041fd8     <common>
 0003:0001bfe0       glad_glMapNamedBufferRangeEXT 0000000180041fe0     <common>
 0003:0001bfe8       glad_glUniformui64vNV      0000000180041fe8     <common>
 0003:0001bff0       glad_glVertexAttribs1dvNV  0000000180041ff0     <common>
 0003:0001bff8       glad_glVertexAttrib4NbvARB 0000000180041ff8     <common>
 0003:0001c000       glad_glPointParameterf     0000000180042000     <common>
 0003:0001c008       glad_glVertexArrayAttribBinding 0000000180042008     <common>
 0003:0001c010       glad_glGlobalAlphaFactorfSUN 0000000180042010     <common>
 0003:0001c018       glad_glBindMultiTextureEXT 0000000180042018     <common>
 0003:0001c020       glad_glIsCommandListNV     0000000180042020     <common>
 0003:0001c028       glad_glPushDebugGroup      0000000180042028     <common>
 0003:0001c030       glad_glNormalStream3dATI   0000000180042030     <common>
 0003:0001c038       glad_glProgramUniform4f    0000000180042038     <common>
 0003:0001c040       glad_glGetnPixelMapfvARB   0000000180042040     <common>
 0003:0001c048       glad_glGetTransformFeedbackVarying 0000000180042048     <common>
 0003:0001c050       glad_glGetnUniformui64vARB 0000000180042050     <common>
 0003:0001c058       glad_glPixelTransformParameteriEXT 0000000180042058     <common>
 0003:0001c060       glad_glVertexAttribP1uiv   0000000180042060     <common>
 0003:0001c068       glad_glGenPathsNV          0000000180042068     <common>
 0003:0001c070       glad_glDeleteCommandListsNV 0000000180042070     <common>
 0003:0001c078       glad_glGlobalAlphaFactoriSUN 0000000180042078     <common>
 0003:0001c080       glad_glGetVariantFloatvEXT 0000000180042080     <common>
 0003:0001c088       glad_glMultiDrawElements   0000000180042088     <common>
 0003:0001c090       glad_glMap1xOES            0000000180042090     <common>
 0003:0001c098       glad_glVertexAttrib3svARB  0000000180042098     <common>
 0003:0001c0a0       glad_glVertexAttrib4ubvNV  00000001800420a0     <common>
 0003:0001c0a8       GLAD_GL_NV_path_rendering  00000001800420a8     <common>
 0003:0001c0b0       glad_glUniformui64NV       00000001800420b0     <common>
 0003:0001c0b8       glad_glProgramUniform2fvEXT 00000001800420b8     <common>
 0003:0001c0c0       GLAD_GL_NV_parameter_buffer_object2 00000001800420c0     <common>
 0003:0001c0c8       glad_glVertexArrayVertexBuffers 00000001800420c8     <common>
 0003:0001c0d0       glad_glGetVertexArrayPointeri_vEXT 00000001800420d0     <common>
 0003:0001c0d8       glad_glProgramBufferParametersIuivNV 00000001800420d8     <common>
 0003:0001c0e0       glad_glGlobalAlphaFactorsSUN 00000001800420e0     <common>
 0003:0001c0e8       glad_glCopyTextureSubImage3DEXT 00000001800420e8     <common>
 0003:0001c0f0       GLAD_GL_EXT_pixel_transform 00000001800420f0     <common>
 0003:0001c0f8       glad_glGetnMapivARB        00000001800420f8     <common>
 0003:0001c100       glad_glCreateCommandListsNV 0000000180042100     <common>
 0003:0001c108       glad_glTexStorageSparseAMD 0000000180042108     <common>
 0003:0001c110       GLAD_GL_EXT_pixel_buffer_object 0000000180042110     <common>
 0003:0001c118       glad_glNormalStream3fvATI  0000000180042118     <common>
 0003:0001c120       glad_glGetDebugMessageLog  0000000180042120     <common>
 0003:0001c128       glad_glVertexAttrib3sARB   0000000180042128     <common>
 0003:0001c130       glad_glGetColorTableParameterfvEXT 0000000180042130     <common>
 0003:0001c138       glad_glGetnUniformi64vARB  0000000180042138     <common>
 0003:0001c140       glad_glGetIntegerui64vNV   0000000180042140     <common>
 0003:0001c148       glad_glVertexAttrib4ubNV   0000000180042148     <common>
 0003:0001c150       glad_glVertexAttribP1ui    0000000180042150     <common>
 0003:0001c158       glad_glGlobalAlphaFactorbSUN 0000000180042158     <common>
 0003:0001c160       glad_glGetVariantIntegervEXT 0000000180042160     <common>
 0003:0001c168       glad_glProgramUniform4iv   0000000180042168     <common>
 0003:0001c170       glad_glProgramUniform1fvEXT 0000000180042170     <common>
 0003:0001c178       glad_glDrawCommandsStatesAddressNV 0000000180042178     <common>
 0003:0001c180       glad_glNormalStream3fATI   0000000180042180     <common>
 0003:0001c188       GLAD_GL_SUN_global_alpha   0000000180042188     <common>
 0003:0001c18c       GLAD_GL_SUN_convolution_border_modes 000000018004218c     <common>
 0003:0001c190       glad_glMultiDrawArrays     0000000180042190     <common>
 0003:0001c198       glad_glTransformFeedbackVaryings 0000000180042198     <common>
 0003:0001c1a0       glad_glGetVertexArrayIntegeri_vEXT 00000001800421a0     <common>
 0003:0001c1a8       glad_glGetNamedBufferParameterui64vNV 00000001800421a8     <common>
 0003:0001c1b0       glad_glFinishTextureSUNX   00000001800421b0     <common>
 0003:0001c1b8       glad_glLoadTransposeMatrixxOES 00000001800421b8     <common>
 0003:0001c1c0       glad_glGetColorTableParameterivEXT 00000001800421c0     <common>
 0003:0001c1c8       glad_glGetnMapfvARB        00000001800421c8     <common>
 0003:0001c1d0       glad_glProgramBufferParametersIivNV 00000001800421d0     <common>
 0003:0001c1d8       GLAD_GL_SUNX_constant_data 00000001800421d8     <common>
 0003:0001c1dc       GLAD_GL_SGI_texture_color_table 00000001800421dc     <common>
 0003:0001c1e0       glad_glGetUniformui64vARB  00000001800421e0     <common>
 0003:0001c1e8       glad_glGetVariantBooleanvEXT 00000001800421e8     <common>
 0003:0001c1f0       glad_glVertexAttrib3fvARB  00000001800421f0     <common>
 0003:0001c1f8       glad_glVertexArrayVertexBuffer 00000001800421f8     <common>
 0003:0001c200       glad_glGetColorTableParameterivSGI 0000000180042200     <common>
 0003:0001c208       glad_glVertexAttribDivisor 0000000180042208     <common>
 0003:0001c210       glad_glIndexxvOES          0000000180042210     <common>
 0003:0001c218       glad_glVertexAttrib4svNV   0000000180042218     <common>
 0003:0001c220       glad_glProgramUniform4i    0000000180042220     <common>
 0003:0001c228       glad_glGetBufferParameterui64vNV 0000000180042228     <common>
 0003:0001c230       GLAD_GL_AMD_sparse_texture 0000000180042230     <common>
 0003:0001c238       glad_glNormalStream3ivATI  0000000180042238     <common>
 0003:0001c240       glad_glProgramUniform4iEXT 0000000180042240     <common>
 0003:0001c248       glad_glGetColorTableEXT    0000000180042248     <common>
 0003:0001c250       glad_glIndexxOES           0000000180042250     <common>
 0003:0001c258       glad_glBlendFuncSeparate   0000000180042258     <common>
 0003:0001c260       glad_glVertexAttrib3fARB   0000000180042260     <common>
 0003:0001c268       glad_glBindBufferBase      0000000180042268     <common>
 0003:0001c270       GLAD_GL_AMD_shader_trinary_minmax 0000000180042270     <common>
 0003:0001c278       glad_glDebugMessageCallback 0000000180042278     <common>
 0003:0001c280       glad_glGetVertexArrayPointervEXT 0000000180042280     <common>
 0003:0001c288       glad_glGetQueryObjectui64v 0000000180042288     <common>
 0003:0001c290       GLAD_GL_AMD_shader_stencil_export 0000000180042290     <common>
 0003:0001c298       glad_glDrawCommandsStatesNV 0000000180042298     <common>
 0003:0001c2a0       glad_glGetnMapdvARB        00000001800422a0     <common>
 0003:0001c2a8       glad_glIsVariantEnabledEXT 00000001800422a8     <common>
 0003:0001c2b0       GLAD_GL_AMD_shader_explicit_vertex_parameter 00000001800422b0     <common>
 0003:0001c2b8       glad_glGetUniformi64vARB   00000001800422b8     <common>
 0003:0001c2c0       glad_glTextureSubImage3DEXT 00000001800422c0     <common>
 0003:0001c2c8       GLAD_GL_AMD_shader_ballot  00000001800422c8     <common>
 0003:0001c2d0       glad_glVertexAttrib4sNV    00000001800422d0     <common>
 0003:0001c2d8       glad_glGetColorTableParameterfvSGI 00000001800422d8     <common>
 0003:0001c2e0       GLAD_GL_AMD_shader_atomic_counter_ops 00000001800422e0     <common>
 0003:0001c2e8       glad_glGetTexLevelParameterxvOES 00000001800422e8     <common>
 0003:0001c2f0       glad_glProgramBufferParametersfvNV 00000001800422f0     <common>
 0003:0001c2f8       glad_glNormalStream3iATI   00000001800422f8     <common>
 0003:0001c300       GLAD_GL_AMD_seamless_cubemap_per_texture 0000000180042300     <common>
 0003:0001c308       glad_glSetMultisamplefvAMD 0000000180042308     <common>
 0003:0001c310       glad_glIsNamedBufferResidentNV 0000000180042310     <common>
 0003:0001c318       glad_glDebugMessageInsert  0000000180042318     <common>
 0003:0001c320       glad_glVertexArrayElementBuffer 0000000180042320     <common>
 0003:0001c328       glad_glBindBufferRange     0000000180042328     <common>
 0003:0001c330       glad_glBindParameterEXT    0000000180042330     <common>
 0003:0001c338       glad_glGetQueryObjecti64v  0000000180042338     <common>
 0003:0001c340       glad_glGetVertexArrayIntegervEXT 0000000180042340     <common>
 0003:0001c348       glad_glColorTableEXT       0000000180042348     <common>
 0003:0001c350       GLAD_GL_VERSION_1_4        0000000180042350     <common>
 0003:0001c358       glad_glVertexAttrib3dvARB  0000000180042358     <common>
 0003:0001c360       glad_glUniform4ui64vARB    0000000180042360     <common>
 0003:0001c368       glad_glMakeNamedBufferNonResidentNV 0000000180042368     <common>
 0003:0001c370       glad_glProgramUniform3uiv  0000000180042370     <common>
 0003:0001c378       glad_glGetCompressedTexImage 0000000180042378     <common>
 0003:0001c380       glad_glGetColorTableSGI    0000000180042380     <common>
 0003:0001c388       glad_glBindTextureUnitParameterEXT 0000000180042388     <common>
 0003:0001c390       glad_glGetnUniformdvARB    0000000180042390     <common>
 0003:0001c398       glad_glProgramUniform3iEXT 0000000180042398     <common>
 0003:0001c3a0       glad_glEnableVertexArrayAttrib 00000001800423a0     <common>
 0003:0001c3a8       GLAD_GL_AMD_sample_positions 00000001800423a8     <common>
 0003:0001c3b0       glad_glGetTexGenxvOES      00000001800423b0     <common>
 0003:0001c3b8       GLAD_GL_AMD_query_buffer_object 00000001800423b8     <common>
 0003:0001c3c0       glad_glVertexAttrib4fvNV   00000001800423c0     <common>
 0003:0001c3c8       glad_glMakeNamedBufferResidentNV 00000001800423c8     <common>
 0003:0001c3d0       glad_glDrawCommandsAddressNV 00000001800423d0     <common>
 0003:0001c3d8       glad_glNormalStream3svATI  00000001800423d8     <common>
 0003:0001c3e0       GLAD_GL_AMD_pinned_memory  00000001800423e0     <common>
 0003:0001c3e8       glad_glVertexAttrib3dARB   00000001800423e8     <common>
 0003:0001c3f0       glad_glGetPerfMonitorCounterDataAMD 00000001800423f0     <common>
 0003:0001c3f8       GLAD_GL_NV_parameter_buffer_object 00000001800423f8     <common>
 0003:0001c400       glad_glDisableVertexArrayAttribEXT 0000000180042400     <common>
 0003:0001c408       glad_glQueryCounter        0000000180042408     <common>
 0003:0001c410       GLAD_GL_NV_packed_depth_stencil 0000000180042410     <common>
 0003:0001c418       glad_glBindTexGenParameterEXT 0000000180042418     <common>
 0003:0001c420       glad_glUniform3ui64vARB    0000000180042420     <common>
 0003:0001c428       glad_glGetOcclusionQueryuivNV 0000000180042428     <common>
 0003:0001c430       glad_glDisableVertexArrayAttrib 0000000180042430     <common>
 0003:0001c438       glad_glCompressedTexSubImage1D 0000000180042438     <common>
 0003:0001c440       glad_glEndTransformFeedback 0000000180042440     <common>
 0003:0001c448       glad_glCopyColorTableSGI   0000000180042448     <common>
 0003:0001c450       glad_glDebugMessageControl 0000000180042450     <common>
 0003:0001c458       glad_glIsBufferResidentNV  0000000180042458     <common>
 0003:0001c460       glad_glProgramUniform3ui   0000000180042460     <common>
 0003:0001c468       glad_glNormalStream3sATI   0000000180042468     <common>
 0003:0001c470       glad_glVertexAttrib4fNV    0000000180042470     <common>
 0003:0001c478       glad_glGetnUniformuivARB   0000000180042478     <common>
 0003:0001c480       glad_glBeginTransformFeedback 0000000180042480     <common>
 0003:0001c488       glad_glGetPixelMapxv       0000000180042488     <common>
 0003:0001c490       glad_glGetSamplerParameterIuiv 0000000180042490     <common>
 0003:0001c498       glad_glEnableVertexArrayAttribEXT 0000000180042498     <common>
 0003:0001c4a0       GLAD_GL_EXT_paletted_texture 00000001800424a0     <common>
 0003:0001c4a8       glad_glCreateVertexArrays  00000001800424a8     <common>
 0003:0001c4b0       glad_glMakeBufferNonResidentNV 00000001800424b0     <common>
 0003:0001c4b8       glad_glProgramUniform2iEXT 00000001800424b8     <common>
 0003:0001c4c0       GLAD_GL_EXT_packed_pixels  00000001800424c0     <common>
 0003:0001c4c8       glad_glDrawCommandsNV      00000001800424c8     <common>
 0003:0001c4d0       glad_glUniform2ui64vARB    00000001800424d0     <common>
 0003:0001c4d8       glad_glVertexAttrib2svARB  00000001800424d8     <common>
 0003:0001c4e0       glad_glBindMaterialParameterEXT 00000001800424e0     <common>
 0003:0001c4e8       GLAD_GL_EXT_packed_float   00000001800424e8     <common>
 0003:0001c4f0       glad_glIsEnabledi          00000001800424f0     <common>
 0003:0001c4f8       glad_glGetOcclusionQueryivNV 00000001800424f8     <common>
 0003:0001c500       GLAD_GL_EXT_packed_depth_stencil 0000000180042500     <common>
 0003:0001c508       glad_glSamplePatternEXT    0000000180042508     <common>
 0003:0001c510       glad_glMakeBufferResidentNV 0000000180042510     <common>
 0003:0001c518       glad_glEndPerfMonitorAMD   0000000180042518     <common>
 0003:0001c520       glad_glTextureImage3DEXT   0000000180042520     <common>
 0003:0001c528       glad_glDisableVertexArrayEXT 0000000180042528     <common>
 0003:0001c530       glad_glGetMaterialxOES     0000000180042530     <common>
 0003:0001c538       glad_glNormalStream3bvATI  0000000180042538     <common>
 0003:0001c540       glad_glGetSamplerParameterfv 0000000180042540     <common>
 0003:0001c548       glad_glGetTextureParameteriv 0000000180042548     <common>
 0003:0001c550       glad_glGetnUniformivARB    0000000180042550     <common>
 0003:0001c558       glad_glVertexAttrib2sARB   0000000180042558     <common>
 0003:0001c560       glad_glSampleMaskEXT       0000000180042560     <common>
 0003:0001c568       glad_glDisablei            0000000180042568     <common>
 0003:0001c570       glad_glBindLightParameterEXT 0000000180042570     <common>
 0003:0001c578       glad_glBeginPerfMonitorAMD 0000000180042578     <common>
 0003:0001c580       glad_glColorTableParameterivSGI 0000000180042580     <common>
 0003:0001c588       glad_glProgramUniform3dv   0000000180042588     <common>
 0003:0001c590       glad_glVertexAttrib4dvNV   0000000180042590     <common>
 0003:0001c598       glad_glUniform1ui64vARB    0000000180042598     <common>
 0003:0001c5a0       GLAD_GL_NV_shader_buffer_load 00000001800425a0     <common>
 0003:0001c5a8       glad_glEndOcclusionQueryNV 00000001800425a8     <common>
 0003:0001c5b0       glad_glCompressedTexSubImage2D 00000001800425b0     <common>
 0003:0001c5b8       glad_glEnableVertexArrayEXT 00000001800425b8     <common>
 0003:0001c5c0       glad_glVertexBindingDivisor 00000001800425c0     <common>
 0003:0001c5c8       glad_glProgramUniform1iEXT 00000001800425c8     <common>
 0003:0001c5d0       GLAD_GL_NV_shader_atomic_int64 00000001800425d0     <common>
 0003:0001c5d8       glad_glNormalStream3bATI   00000001800425d8     <common>
 0003:0001c5e0       glad_glSelectPerfMonitorCountersAMD 00000001800425e0     <common>
 0003:0001c5e8       glad_glGetStageIndexNV     00000001800425e8     <common>
 0003:0001c5f0       glad_glBeginOcclusionQueryNV 00000001800425f0     <common>
 0003:0001c5f8       GLAD_GL_NV_shader_atomic_fp16_vector 00000001800425f8     <common>
 0003:0001c5fc       GLAD_GL_EXT_multisample    00000001800425fc     <common>
 0003:0001c600       glad_glDisableVariantClientStateEXT 0000000180042600     <common>
 0003:0001c608       glad_glEnablei             0000000180042608     <common>
 0003:0001c610       glad_glGetMapxvOES         0000000180042610     <common>
 0003:0001c618       GLAD_GL_NV_shader_atomic_float64 0000000180042618     <common>
 0003:0001c620       glad_glVertexAttrib4dNV    0000000180042620     <common>
 0003:0001c628       glad_glGetSamplerParameterIiv 0000000180042628     <common>
 0003:0001c630       GLAD_GL_NV_shader_atomic_float 0000000180042630     <common>
 0003:0001c638       glad_glMultiDrawElementsEXT 0000000180042638     <common>
 0003:0001c640       glad_glGetTextureParameterIuiv 0000000180042640     <common>
 0003:0001c648       GLAD_GL_NV_shader_atomic_counters 0000000180042648     <common>
 0003:0001c650       glad_glVertexAttrib2fvARB  0000000180042650     <common>
 0003:0001c658       glad_glVertexArrayVertexAttribIOffsetEXT 0000000180042658     <common>
 0003:0001c660       glad_glColorTableParameterfvSGI 0000000180042660     <common>
 0003:0001c668       GLAD_GL_NV_sample_mask_override_coverage 0000000180042668     <common>
 0003:0001c670       glad_glVertexAttribBinding 0000000180042670     <common>
 0003:0001c678       glad_glGetCommandHeaderNV  0000000180042678     <common>
 0003:0001c680       glad_glIsOcclusionQueryNV  0000000180042680     <common>
 0003:0001c688       glad_glEnableVariantClientStateEXT 0000000180042688     <common>
 0003:0001c690       glad_glResolveDepthValuesNV 0000000180042690     <common>
 0003:0001c698       glad_glGetnUniformfvARB    0000000180042698     <common>
 0003:0001c6a0       glad_glUniform4ui64ARB     00000001800426a0     <common>
 0003:0001c6a8       glad_glProgramUniform4fEXT 00000001800426a8     <common>
 0003:0001c6b0       glad_glProgramUniform3d    00000001800426b0     <common>
 0003:0001c6b8       glad_glGetIntegeri_v       00000001800426b8     <common>
 0003:0001c6c0       glad_glNamedFramebufferSampleLocationsfvNV 00000001800426c0     <common>
 0003:0001c6c8       glad_glDeleteOcclusionQueriesNV 00000001800426c8     <common>
 0003:0001c6d0       glad_glGetLightxOES        00000001800426d0     <common>
 0003:0001c6d8       glad_glVertexAttrib2fARB   00000001800426d8     <common>
 0003:0001c6e0       glad_glVariantPointerEXT   00000001800426e0     <common>
 0003:0001c6e8       glad_glVertexStream4dvATI  00000001800426e8     <common>
 0003:0001c6f0       glad_glVertexAttribLFormat 00000001800426f0     <common>
 0003:0001c6f8       glad_glStateCaptureNV      00000001800426f8     <common>
 0003:0001c700       glad_glGetTextureParameterIiv 0000000180042700     <common>
 0003:0001c708       glad_glGetSamplerParameteriv 0000000180042708     <common>
 0003:0001c710       glad_glColorTableSGI       0000000180042710     <common>
 0003:0001c718       glad_glDeletePerfMonitorsAMD 0000000180042718     <common>
 0003:0001c720       glad_glGenOcclusionQueriesNV 0000000180042720     <common>
 0003:0001c728       glad_glVertexAttrib3svNV   0000000180042728     <common>
 0003:0001c730       glad_glMultiDrawArraysEXT  0000000180042730     <common>
 0003:0001c738       glad_glGetBooleani_v       0000000180042738     <common>
 0003:0001c740       glad_glGetnCompressedTexImageARB 0000000180042740     <common>
 0003:0001c748       glad_glVertexStream4dATI   0000000180042748     <common>
 0003:0001c750       glad_glIsStateNV           0000000180042750     <common>
 0003:0001c758       glad_glGetTextureLevelParameterivEXT 0000000180042758     <common>
 0003:0001c760       glad_glGetHistogramParameterxvOES 0000000180042760     <common>
 0003:0001c768       glad_glFramebufferSampleLocationsfvNV 0000000180042768     <common>
 0003:0001c770       glad_glUniform3ui64ARB     0000000180042770     <common>
 0003:0001c778       glad_glVertexAttrib2dvARB  0000000180042778     <common>
 0003:0001c780       glad_glGetTextureParameterfv 0000000180042780     <common>
 0003:0001c788       glad_glGenPerfMonitorsAMD  0000000180042788     <common>
 0003:0001c790       glad_glProgramUniform3fv   0000000180042790     <common>
 0003:0001c798       glad_glSamplerParameterIuiv 0000000180042798     <common>
 0003:0001c7a0       glad_glCompressedTexSubImage3D 00000001800427a0     <common>
 0003:0001c7a8       glad_glVariantuivEXT       00000001800427a8     <common>
 0003:0001c7b0       GLAD_GL_NV_occlusion_query 00000001800427b0     <common>
 0003:0001c7b8       glad_glVertexArrayVertexAttribOffsetEXT 00000001800427b8     <common>
 0003:0001c7c0       glad_glProgramUniform3fEXT 00000001800427c0     <common>
 0003:0001c7c8       glad_glDeleteStatesNV      00000001800427c8     <common>
 0003:0001c7d0       glad_glVertexAttribIFormat 00000001800427d0     <common>
 0003:0001c7d8       glad_glVertexAttrib3sNV    00000001800427d8     <common>
 0003:0001c7e0       GLAD_GL_NV_multisample_filter_hint 00000001800427e0     <common>
 0003:0001c7e4       GLAD_GL_NV_multisample_coverage 00000001800427e4     <common>
 0003:0001c7e8       glad_glVertexAttrib2dARB   00000001800427e8     <common>
 0003:0001c7f0       glad_glColorMaski          00000001800427f0     <common>
 0003:0001c7f8       GLAD_GL_NV_light_max_exponent 00000001800427f8     <common>
 0003:0001c800       glad_glGetInternalformatSampleivNV 0000000180042800     <common>
 0003:0001c808       glad_glGetPerfMonitorCounterInfoAMD 0000000180042808     <common>
 0003:0001c810       GLAD_GL_EXT_multi_draw_arrays 0000000180042810     <common>
 0003:0001c814       GLAD_GL_EXT_misc_attribute 0000000180042814     <common>
 0003:0001c818       glad_glReadnPixelsARB      0000000180042818     <common>
 0003:0001c820       glad_glGetConvolutionParameterxvOES 0000000180042820     <common>
 0003:0001c828       glad_glVariantusvEXT       0000000180042828     <common>
 0003:0001c830       GLAD_GL_SGI_color_table    0000000180042830     <common>
 0003:0001c838       glad_glSamplerParameterIiv 0000000180042838     <common>
 0003:0001c840       glad_glTextureMaterialEXT  0000000180042840     <common>
 0003:0001c848       glad_glCreateStatesNV      0000000180042848     <common>
 0003:0001c850       glad_glGetTextureLevelParameteriv 0000000180042850     <common>
 0003:0001c858       GLAD_GL_SGI_color_matrix   0000000180042858     <common>
 0003:0001c860       glad_glUniform2ui64ARB     0000000180042860     <common>
 0003:0001c868       GLAD_GL_NV_sample_locations 0000000180042868     <common>
 0003:0001c870       glad_glProgramUniform3f    0000000180042870     <common>
 0003:0001c878       GLAD_GL_NV_robustness_video_memory_purge 0000000180042878     <common>
 0003:0001c880       glad_glGetTextureLevelParameterfvEXT 0000000180042880     <common>
 0003:0001c888       glad_glVertexStream4fvATI  0000000180042888     <common>
 0003:0001c890       GLAD_GL_SGIX_ycrcba        0000000180042890     <common>
 0003:0001c898       glad_glGetCombinerStageParameterfvNV 0000000180042898     <common>
 0003:0001c8a0       GLAD_GL_SGIX_ycrcb_subsample 00000001800428a0     <common>
 0003:0001c8a4       GLAD_GL_SGIX_ycrcb         00000001800428a4     <common>
 0003:0001c8a8       glad_glVertexAttrib3fvNV   00000001800428a8     <common>
 0003:0001c8b0       glad_glVertexAttribFormat  00000001800428b0     <common>
 0003:0001c8b8       glad_glVariantubvEXT       00000001800428b8     <common>
 0003:0001c8c0       glad_glVertexAttrib1svARB  00000001800428c0     <common>
 0003:0001c8c8       GLAD_GL_SGIX_vertex_preclip 00000001800428c8     <common>
 0003:0001c8cc       GLAD_GL_SGIX_texture_scale_bias 00000001800428cc     <common>
 0003:0001c8d0       glad_glTextureLightEXT     00000001800428d0     <common>
 0003:0001c8d8       GLAD_GL_NV_command_list    00000001800428d8     <common>
 0003:0001c8e0       glad_glProgramUniform2fEXT 00000001800428e0     <common>
 0003:0001c8e8       glad_glFeedbackBufferxOES  00000001800428e8     <common>
 0003:0001c8f0       GLAD_GL_SGIX_texture_multi_buffer 00000001800428f0     <common>
 0003:0001c8f8       glad_glViewportPositionWScaleNV 00000001800428f8     <common>
 0003:0001c900       glad_glVertexStream4fATI   0000000180042900     <common>
 0003:0001c908       GLAD_GL_SGIX_texture_lod_bias 0000000180042908     <common>
 0003:0001c910       glad_glSamplerParameterfv  0000000180042910     <common>
 0003:0001c918       glad_glGetPerfMonitorCounterStringAMD 0000000180042918     <common>
 0003:0001c920       GLAD_GL_SGIX_texture_coordinate_clamp 0000000180042920     <common>
 0003:0001c928       glad_glUniform1ui64ARB     0000000180042928     <common>
 0003:0001c930       GLAD_GL_VERSION_3_0        0000000180042930     <common>
 0003:0001c938       glad_glGetTextureLevelParameterfv 0000000180042938     <common>
 0003:0001c940       glad_glVertexAttrib3fNV    0000000180042940     <common>
 0003:0001c948       glad_glApplyTextureEXT     0000000180042948     <common>
 0003:0001c950       glad_glUniformMatrix4x3fv  0000000180042950     <common>
 0003:0001c958       GLAD_GL_SGIX_texture_add_env 0000000180042958     <common>
 0003:0001c960       glad_glVariantdvEXT        0000000180042960     <common>
 0003:0001c968       glad_glTagSampleBufferSGIX 0000000180042968     <common>
 0003:0001c970       glad_glVertexAttrib1sARB   0000000180042970     <common>
 0003:0001c978       glad_glCombinerStageParameterfvNV 0000000180042978     <common>
 0003:0001c980       glad_glVertexArraySecondaryColorOffsetEXT 0000000180042980     <common>
 0003:0001c988       GLAD_GL_NV_internalformat_sample_query 0000000180042988     <common>
 0003:0001c98c       GLAD_GL_SGIX_tag_sample_buffer 000000018004298c     <common>
 0003:0001c990       glad_glVertexAttribs4hvNV  0000000180042990     <common>
 0003:0001c998       GLAD_GL_EXT_light_texture  0000000180042998     <common>
 0003:0001c9a0       glad_glGetTextureParameterivEXT 00000001800429a0     <common>
 0003:0001c9a8       GLAD_GL_SGIX_subsample     00000001800429a8     <common>
 0003:0001c9b0       glad_glProgramUniform3iv   00000001800429b0     <common>
 0003:0001c9b8       GLAD_GL_NV_clip_space_w_scaling 00000001800429b8     <common>
 0003:0001c9bc       GLAD_GL_EXT_index_texture  00000001800429bc     <common>
 0003:0001c9c0       glad_glSpriteParameterivSGIX 00000001800429c0     <common>
 0003:0001c9c8       glad_glUniform4i64vARB     00000001800429c8     <common>
 0003:0001c9d0       glad_glEvalCoord2xvOES     00000001800429d0     <common>
 0003:0001c9d8       glad_glSamplerParameterf   00000001800429d8     <common>
 0003:0001c9e0       glad_glIndexMaterialEXT    00000001800429e0     <common>
 0003:0001c9e8       glad_glProgramUniform1fEXT 00000001800429e8     <common>
 0003:0001c9f0       glad_glCompressedTexImage1D 00000001800429f0     <common>
 0003:0001c9f8       GLAD_GL_NV_blend_square    00000001800429f8     <common>
 0003:0001ca00       glad_glBindVertexBuffer    0000000180042a00     <common>
 0003:0001ca08       glad_glGetnTexImageARB     0000000180042a08     <common>
 0003:0001ca10       glad_glVariantfvEXT        0000000180042a10     <common>
 0003:0001ca18       GLAD_GL_NV_blend_equation_advanced_coherent 0000000180042a18     <common>
 0003:0001ca20       glad_glVertexAttrib1fvARB  0000000180042a20     <common>
 0003:0001ca28       glad_glBlendBarrierNV      0000000180042a28     <common>
 0003:0001ca30       GLAD_GL_NV_register_combiners2 0000000180042a30     <common>
 0003:0001ca38       glad_glEvalCoord2xOES      0000000180042a38     <common>
 0003:0001ca40       glad_glGetCompressedTextureImage 0000000180042a40     <common>
 0003:0001ca48       glad_glVertexStream4ivATI  0000000180042a48     <common>
 0003:0001ca50       glad_glBlendParameteriNV   0000000180042a50     <common>
 0003:0001ca58       glad_glVertexAttrib3dvNV   0000000180042a58     <common>
 0003:0001ca60       glad_glUniformMatrix3x4fv  0000000180042a60     <common>
 0003:0001ca68       glad_glGetFinalCombinerInputParameterivNV 0000000180042a68     <common>
 0003:0001ca70       glad_glGetPerfMonitorGroupStringAMD 0000000180042a70     <common>
 0003:0001ca78       glad_glVertexAttribs3hvNV  0000000180042a78     <common>
 0003:0001ca80       glad_glSpriteParameteriSGIX 0000000180042a80     <common>
 0003:0001ca88       GLAD_GL_EXT_index_material 0000000180042a88     <common>
 0003:0001ca90       glad_glVertexAttrib1fARB   0000000180042a90     <common>
 0003:0001ca98       glad_glVariantivEXT        0000000180042a98     <common>
 0003:0001caa0       glad_glIndexFuncEXT        0000000180042aa0     <common>
 0003:0001caa8       glad_glUniform3i64vARB     0000000180042aa8     <common>
 0003:0001cab0       glad_glGetNamedBufferSubDataEXT 0000000180042ab0     <common>
 0003:0001cab8       glad_glProgramUniform3i    0000000180042ab8     <common>
 0003:0001cac0       glad_glSamplerParameteriv  0000000180042ac0     <common>
 0003:0001cac8       glad_glGetTextureParameterfvEXT 0000000180042ac8     <common>
 0003:0001cad0       glad_glEvalCoord1xvOES     0000000180042ad0     <common>
 0003:0001cad8       glad_glTextureView         0000000180042ad8     <common>
 0003:0001cae0       glad_glVertexArrayFogCoordOffsetEXT 0000000180042ae0     <common>
 0003:0001cae8       GLAD_GL_NV_blend_equation_advanced 0000000180042ae8     <common>
 0003:0001caf0       glad_glVertexStream4iATI   0000000180042af0     <common>
 0003:0001caf8       glad_glVertexAttrib3dNV    0000000180042af8     <common>
 0003:0001cb00       glad_glSpriteParameterfvSGIX 0000000180042b00     <common>
 0003:0001cb08       glad_glIsImageHandleResidentNV 0000000180042b08     <common>
 0003:0001cb10       glad_glGetFinalCombinerInputParameterfvNV 0000000180042b10     <common>
 0003:0001cb18       glad_glEvalCoord1xOES      0000000180042b18     <common>
 0003:0001cb20       glad_glVariantsvEXT        0000000180042b20     <common>
 0003:0001cb28       glad_glVertexAttribs2hvNV  0000000180042b28     <common>
 0003:0001cb30       GLAD_GL_EXT_index_func     0000000180042b30     <common>
 0003:0001cb38       glad_glVertexAttrib1dvARB  0000000180042b38     <common>
 0003:0001cb40       glad_glGetTextureImage     0000000180042b40     <common>
 0003:0001cb48       glad_glUniformMatrix4x2fv  0000000180042b48     <common>
 0003:0001cb50       glad_glGetPerfMonitorCountersAMD 0000000180042b50     <common>
 0003:0001cb58       GLAD_GL_EXT_index_array_formats 0000000180042b58     <common>
 0003:0001cb60       glad_glGetGraphicsResetStatusARB 0000000180042b60     <common>
 0003:0001cb68       glad_glUniform2i64vARB     0000000180042b68     <common>
 0003:0001cb70       glad_glIsTextureHandleResidentNV 0000000180042b70     <common>
 0003:0001cb78       glad_glResetMinmaxEXT      0000000180042b78     <common>
 0003:0001cb80       glad_glCompressedTexImage2D 0000000180042b80     <common>
 0003:0001cb88       glad_glSamplerParameteri   0000000180042b88     <common>
 0003:0001cb90       GLAD_GL_ARB_robustness     0000000180042b90     <common>
 0003:0001cb98       glad_glConvolutionParameterxvOES 0000000180042b98     <common>
 0003:0001cba0       glad_glSpriteParameterfSGIX 0000000180042ba0     <common>
 0003:0001cba8       GLAD_GL_ARB_robust_buffer_access_behavior 0000000180042ba8     <common>
 0003:0001cbb0       glad_glGetTextureImageEXT  0000000180042bb0     <common>
 0003:0001cbb8       glad_glGetNamedBufferPointervEXT 0000000180042bb8     <common>
 0003:0001cbc0       glad_glVariantbvEXT        0000000180042bc0     <common>
 0003:0001cbc8       glad_glProgramUniformHandleui64vNV 0000000180042bc8     <common>
 0003:0001cbd0       glad_glResetHistogramEXT   0000000180042bd0     <common>
 0003:0001cbd8       GLAD_GL_ARB_query_buffer_object 0000000180042bd8     <common>
 0003:0001cbe0       glad_glVertexAttrib1dARB   0000000180042be0     <common>
 0003:0001cbe8       glad_glVertexAttrib2svNV   0000000180042be8     <common>
 0003:0001cbf0       glad_glGetCombinerOutputParameterivNV 0000000180042bf0     <common>
 0003:0001cbf8       GLAD_GL_ARB_provoking_vertex 0000000180042bf8     <common>
 0003:0001cc00       glad_glProgramUniform2uiv  0000000180042c00     <common>
 0003:0001cc08       GLAD_GL_ARB_program_interface_query 0000000180042c08     <common>
 0003:0001cc10       glad_glVertexAttribs1hvNV  0000000180042c10     <common>
 0003:0001cc18       glad_glVertexArrayMultiTexCoordOffsetEXT 0000000180042c18     <common>
 0003:0001cc20       GLAD_GL_ARB_post_depth_coverage 0000000180042c20     <common>
 0003:0001cc28       glad_glVertexStream4svATI  0000000180042c28     <common>
 0003:0001cc30       GLAD_GL_ARB_point_sprite   0000000180042c30     <common>
 0003:0001cc38       glad_glMinmaxEXT           0000000180042c38     <common>
 0003:0001cc40       glad_glUniform1i64vARB     0000000180042c40     <common>
 0003:0001cc48       GLAD_GL_SGIX_sprite        0000000180042c48     <common>
 0003:0001cc50       glad_glUniformMatrix2x4fv  0000000180042c50     <common>
 0003:0001cc58       GLAD_GL_SGIX_shadow_ambient 0000000180042c58     <common>
 0003:0001cc60       glad_glPointParameterfvARB 0000000180042c60     <common>
 0003:0001cc68       glad_glBindSampler         0000000180042c68     <common>
 0003:0001cc70       GLAD_GL_ARB_vertex_program 0000000180042c70     <common>
 0003:0001cc78       glad_glSetLocalConstantEXT 0000000180042c78     <common>
 0003:0001cc80       glad_glConvolutionParameterxOES 0000000180042c80     <common>
 0003:0001cc88       GLAD_GL_SGIX_shadow        0000000180042c88     <common>
 0003:0001cc90       glad_glGetNamedBufferParameterivEXT 0000000180042c90     <common>
 0003:0001cc98       glad_glGetBufferPointervARB 0000000180042c98     <common>
 0003:0001cca0       glad_glGetPerfMonitorGroupsAMD 0000000180042ca0     <common>
 0003:0001cca8       glad_glVertexAttrib2sNV    0000000180042ca8     <common>
 0003:0001ccb0       GLAD_GL_SGIX_scalebias_hint 0000000180042cb0     <common>
 0003:0001ccb4       GLAD_GL_SGIX_resample      0000000180042cb4     <common>
 0003:0001ccb8       glad_glVertexStream4sATI   0000000180042cb8     <common>
 0003:0001ccc0       glad_glBindTextureUnit     0000000180042cc0     <common>
 0003:0001ccc8       glad_glReferencePlaneSGIX  0000000180042cc8     <common>
 0003:0001ccd0       glad_glTexStorage3DMultisample 0000000180042cd0     <common>
 0003:0001ccd8       glad_glProgramUniformHandleui64NV 0000000180042cd8     <common>
 0003:0001cce0       glad_glVertexAttrib4hvNV   0000000180042ce0     <common>
 0003:0001cce8       glad_glPointParameterfARB  0000000180042ce8     <common>
 0003:0001ccf0       glad_glGetCombinerOutputParameterfvNV 0000000180042cf0     <common>
 0003:0001ccf8       glad_glIsSampler           0000000180042cf8     <common>
 0003:0001cd00       glad_glProgramUniform2ui   0000000180042d00     <common>
 0003:0001cd08       glad_glUniform4i64ARB      0000000180042d08     <common>
 0003:0001cd10       glad_glHistogramEXT        0000000180042d10     <common>
 0003:0001cd18       GLAD_GL_SGIX_reference_plane 0000000180042d18     <common>
 0003:0001cd20       glad_glCopyTextureSubImage2DEXT 0000000180042d20     <common>
 0003:0001cd28       glad_glColor4xvOES         0000000180042d28     <common>
 0003:0001cd30       glad_glLoadIdentityDeformationMapSGIX 0000000180042d30     <common>
 0003:0001cd38       glad_glSetInvariantEXT     0000000180042d38     <common>
 0003:0001cd40       glad_glDeleteSamplers      0000000180042d40     <common>
 0003:0001cd48       GLAD_GL_AMD_performance_monitor 0000000180042d48     <common>
 0003:0001cd50       glad_glUniformMatrix3x2fv  0000000180042d50     <common>
 0003:0001cd58       glad_glUnmapNamedBufferEXT 0000000180042d58     <common>
 0003:0001cd60       glad_glGenerateTextureMipmap 0000000180042d60     <common>
 0003:0001cd68       glad_glVertexAttrib2fvNV   0000000180042d68     <common>
 0003:0001cd70       glad_glCompressedTexImage3D 0000000180042d70     <common>
 0003:0001cd78       glad_glGetBufferParameterivARB 0000000180042d78     <common>
 0003:0001cd80       glad_glVertexAttrib4hNV    0000000180042d80     <common>
 0003:0001cd88       glad_glQueryObjectParameteruiAMD 0000000180042d88     <common>
 0003:0001cd90       GLAD_GL_ARB_point_parameters 0000000180042d90     <common>
 0003:0001cd94       GLAD_GL_ARB_pixel_buffer_object 0000000180042d94     <common>
 0003:0001cd98       glad_glUniformHandleui64vNV 0000000180042d98     <common>
 0003:0001cda0       glad_glColor3xvOES         0000000180042da0     <common>
 0003:0001cda8       glad_glDeformSGIX          0000000180042da8     <common>
 0003:0001cdb0       glad_glMapNamedBufferEXT   0000000180042db0     <common>
 0003:0001cdb8       glad_glTextureParameteriv  0000000180042db8     <common>
 0003:0001cdc0       GLAD_GL_ARB_pipeline_statistics_query 0000000180042dc0     <common>
 0003:0001cdc8       glad_glVertexArrayTexCoordOffsetEXT 0000000180042dc8     <common>
 0003:0001cdd0       glad_glMaxShaderCompilerThreadsARB 0000000180042dd0     <common>
 0003:0001cdd8       glad_glGetCombinerInputParameterivNV 0000000180042dd8     <common>
 0003:0001cde0       glad_glGenSamplers         0000000180042de0     <common>
 0003:0001cde8       glad_glVertexStream3dvATI  0000000180042de8     <common>
 0003:0001cdf0       glad_glVertexAttrib2fNV    0000000180042df0     <common>
 0003:0001cdf8       glad_glProgramUniform2dv   0000000180042df8     <common>
 0003:0001ce00       glad_glGenSymbolsEXT       0000000180042e00     <common>
 0003:0001ce08       glad_glDeformationMap3fSGIX 0000000180042e08     <common>
 0003:0001ce10       glad_glGetMinmaxParameterivEXT 0000000180042e10     <common>
 0003:0001ce18       glad_glColor3xOES          0000000180042e18     <common>
 0003:0001ce20       glad_glUnmapBufferARB      0000000180042e20     <common>
 0003:0001ce28       glad_glUniform3i64ARB      0000000180042e28     <common>
 0003:0001ce30       GLAD_GL_ARB_parallel_shader_compile 0000000180042e30     <common>
 0003:0001ce34       GLAD_GL_ARB_occlusion_query2 0000000180042e34     <common>
 0003:0001ce38       glad_glNamedBufferSubDataEXT 0000000180042e38     <common>
 0003:0001ce40       glad_glTexStorage2DMultisample 0000000180042e40     <common>
 0003:0001ce48       glad_glUniformMatrix2x3fv  0000000180042e48     <common>
 0003:0001ce50       GLAD_GL_AMD_occlusion_query_event 0000000180042e50     <common>
 0003:0001ce58       glad_glUniformHandleui64NV 0000000180042e58     <common>
 0003:0001ce60       glad_glGetQueryObjectuivARB 0000000180042e60     <common>
 0003:0001ce68       glad_glIsNameAMD           0000000180042e68     <common>
 0003:0001ce70       glad_glVertexStream3dATI   0000000180042e70     <common>
 0003:0001ce78       glad_glGetFragDataIndex    0000000180042e78     <common>
 0003:0001ce80       glad_glMapBufferARB        0000000180042e80     <common>
 0003:0001ce88       glad_glTextureParameterIuiv 0000000180042e88     <common>
 0003:0001ce90       glad_glVertexAttrib3hvNV   0000000180042e90     <common>
 0003:0001ce98       glad_glVertexAttrib2dvNV   0000000180042e98     <common>
 0003:0001cea0       glad_glGetMinmaxParameterfvEXT 0000000180042ea0     <common>
 0003:0001cea8       glad_glClearAccumxOES      0000000180042ea8     <common>
 0003:0001ceb0       glad_glProgramUniform2d    0000000180042eb0     <common>
 0003:0001ceb8       glad_glExtractComponentEXT 0000000180042eb8     <common>
 0003:0001cec0       glad_glMakeImageHandleNonResidentNV 0000000180042ec0     <common>
 0003:0001cec8       glad_glBindFragDataLocationIndexed 0000000180042ec8     <common>
 0003:0001ced0       glad_glVertexArrayNormalOffsetEXT 0000000180042ed0     <common>
 0003:0001ced8       glad_glGetBufferSubDataARB 0000000180042ed8     <common>
 0003:0001cee0       glad_glDeleteNamesAMD      0000000180042ee0     <common>
 0003:0001cee8       glad_glCopyTextureSubImage1DEXT 0000000180042ee8     <common>
 0003:0001cef0       glad_glGetCombinerInputParameterfvNV 0000000180042ef0     <common>
 0003:0001cef8       glad_glGetQueryObjectivARB 0000000180042ef8     <common>
 0003:0001cf00       glad_glVertexAttrib3hNV    0000000180042f00     <common>
 0003:0001cf08       glad_glUniform2i64ARB      0000000180042f08     <common>
 0003:0001cf10       GLAD_GL_VERSION_2_1        0000000180042f10     <common>
 0003:0001cf18       glad_glTextureParameterIiv 0000000180042f18     <common>
 0003:0001cf20       glad_glNamedBufferDataEXT  0000000180042f20     <common>
 0003:0001cf28       glad_glVertexAttrib2dNV    0000000180042f28     <common>
 0003:0001cf30       glad_glSampleCoverage      0000000180042f30     <common>
 0003:0001cf38       glad_glVertexAttribPointer 0000000180042f38     <common>
 0003:0001cf40       glad_glMakeImageHandleResidentNV 0000000180042f40     <common>
 0003:0001cf48       glad_glVertexStream3fvATI  0000000180042f48     <common>
 0003:0001cf50       glad_glGetMinmaxEXT        0000000180042f50     <common>
 0003:0001cf58       glad_glTexBufferRange      0000000180042f58     <common>
 0003:0001cf60       glad_glBlendColorxOES      0000000180042f60     <common>
 0003:0001cf68       glad_glInsertComponentEXT  0000000180042f68     <common>
 0003:0001cf70       glad_glActiveTexture       0000000180042f70     <common>
 0003:0001cf78       glad_glGenNamesAMD         0000000180042f78     <common>
 0003:0001cf80       glad_glProgramUniform2fv   0000000180042f80     <common>
 0003:0001cf88       glad_glGetImageHandleNV    0000000180042f88     <common>
 0003:0001cf90       glad_glGetQueryivARB       0000000180042f90     <common>
 0003:0001cf98       glad_glUniform1i64ARB      0000000180042f98     <common>
 0003:0001cfa0       glad_glBufferSubDataARB    0000000180042fa0     <common>
 0003:0001cfa8       GLAD_GL_VERSION_3_3        0000000180042fa8     <common>
 0003:0001cfb0       glad_glVertexAttrib1svNV   0000000180042fb0     <common>
 0003:0001cfb8       glad_glTextureParameteri   0000000180042fb8     <common>
 0003:0001cfc0       glad_glVertexStream3fATI   0000000180042fc0     <common>
 0003:0001cfc8       glad_glSampleMaski         0000000180042fc8     <common>
 0003:0001cfd0       glad_glVertexAttrib2hvNV   0000000180042fd0     <common>
 0003:0001cfd8       glad_glVertexArrayIndexOffsetEXT 0000000180042fd8     <common>
 0003:0001cfe0       GLAD_GL_VERSION_1_3        0000000180042fe0     <common>
 0003:0001cfe8       glad_glFinalCombinerInputNV 0000000180042fe8     <common>
 0003:0001cff0       glad_glMatrixMultTransposedEXT 0000000180042ff0     <common>
 0003:0001cff8       glad_glCopyTexSubImage3D   0000000180042ff8     <common>
 0003:0001d000       GLAD_GL_ARB_gpu_shader_int64 0000000180043000     <common>
 0003:0001d008       glad_glWriteMaskEXT        0000000180043008     <common>
 0003:0001d010       glad_glVertexAttrib1sNV    0000000180043010     <common>
 0003:0001d018       glad_glCopyTextureImage2DEXT 0000000180043018     <common>
 0003:0001d020       GLAD_GL_ARB_gpu_shader_fp64 0000000180043020     <common>
 0003:0001d024       GLAD_GL_AMD_name_gen_delete 0000000180043024     <common>
 0003:0001d028       GLAD_GL_ARB_gpu_shader5    0000000180043028     <common>
 0003:0001d030       glad_glVertexAttrib2hNV    0000000180043030     <common>
 0003:0001d038       glad_glVertexAttrib4usv    0000000180043038     <common>
 0003:0001d040       glad_glGetMultisamplefv    0000000180043040     <common>
 0003:0001d048       glad_glMultiDrawElementsIndirectAMD 0000000180043048     <common>
 0003:0001d050       glad_glEndQueryARB         0000000180043050     <common>
 0003:0001d058       glad_glBitmapxOES          0000000180043058     <common>
 0003:0001d060       glad_glGetHistogramParameterivEXT 0000000180043060     <common>
 0003:0001d068       glad_glMatrixMultTransposefEXT 0000000180043068     <common>
 0003:0001d070       glad_glProgramUniform2f    0000000180043070     <common>
 0003:0001d078       glad_glTextureParameterfv  0000000180043078     <common>
 0003:0001d080       glad_glShaderStorageBlockBinding 0000000180043080     <common>
 0003:0001d088       GLAD_GL_ARB_get_texture_sub_image 0000000180043088     <common>
 0003:0001d08c       GLAD_GL_ARB_get_program_binary 000000018004308c     <common>
 0003:0001d090       glad_glDeformationMap3dSGIX 0000000180043090     <common>
 0003:0001d098       glad_glBufferDataARB       0000000180043098     <common>
 0003:0001d0a0       glad_glFramebufferTextureFaceARB 00000001800430a0     <common>
 0003:0001d0a8       glad_glVertexStream3ivATI  00000001800430a8     <common>
 0003:0001d0b0       glad_glMakeTextureHandleNonResidentNV 00000001800430b0     <common>
 0003:0001d0b8       glad_glBeginQueryARB       00000001800430b8     <common>
 0003:0001d0c0       glad_glCombinerOutputNV    00000001800430c0     <common>
 0003:0001d0c8       glad_glVertexAttrib1fvNV   00000001800430c8     <common>
 0003:0001d0d0       glad_glVertexAttrib4uiv    00000001800430d0     <common>
 0003:0001d0d8       glad_glVertexArrayEdgeFlagOffsetEXT 00000001800430d8     <common>
 0003:0001d0e0       glad_glMatrixLoadTransposedEXT 00000001800430e0     <common>
 0003:0001d0e8       glad_glVertexAttrib1hvNV   00000001800430e8     <common>
 0003:0001d0f0       glad_glGetHistogramParameterfvEXT 00000001800430f0     <common>
 0003:0001d0f8       glad_glMakeTextureHandleResidentNV 00000001800430f8     <common>
 0003:0001d100       glad_glTexImage3DMultisample 0000000180043100     <common>
 0003:0001d108       glad_glGetProgramResourceLocationIndex 0000000180043108     <common>
 0003:0001d110       glad_glVertexStream3iATI   0000000180043110     <common>
 0003:0001d118       glad_glTextureParameterf   0000000180043118     <common>
 0003:0001d120       glad_glIsQueryARB          0000000180043120     <common>
 0003:0001d128       glad_glProgramUniform2iv   0000000180043128     <common>
 0003:0001d130       glad_glVertexAttrib1fNV    0000000180043130     <common>
 0003:0001d138       glad_glGetTextureSamplerHandleNV 0000000180043138     <common>
 0003:0001d140       glad_glSwizzleEXT          0000000180043140     <common>
 0003:0001d148       glad_glVertexAttrib4ubv    0000000180043148     <common>
 0003:0001d150       glad_glMultiDrawArraysIndirectAMD 0000000180043150     <common>
 0003:0001d158       glad_glMatrixLoadTransposefEXT 0000000180043158     <common>
 0003:0001d160       glad_glIsBufferARB         0000000180043160     <common>
 0003:0001d168       glad_glVertexAttrib1hNV    0000000180043168     <common>
 0003:0001d170       glad_glDeleteQueriesARB    0000000180043170     <common>
 0003:0001d178       glad_glFramebufferTextureLayerARB 0000000180043178     <common>
 0003:0001d180       glad_glGetHistogramEXT     0000000180043180     <common>
 0003:0001d188       glad_glAccumxOES           0000000180043188     <common>
 0003:0001d190       glad_glTexSubImage3D       0000000180043190     <common>
 0003:0001d198       glad_glVertexArrayColorOffsetEXT 0000000180043198     <common>
 0003:0001d1a0       glad_glVertexAttrib1dvNV   00000001800431a0     <common>
 0003:0001d1a8       glad_glGetProgramResourceLocation 00000001800431a8     <common>
 0003:0001d1b0       glad_glGenBuffersARB       00000001800431b0     <common>
 0003:0001d1b8       glad_glCopyTextureSubImage3D 00000001800431b8     <common>
 0003:0001d1c0       glad_glVertexAttrib4sv     00000001800431c0     <common>
 0003:0001d1c8       glad_glGetTextureHandleNV  00000001800431c8     <common>
 0003:0001d1d0       glad_glCopyTextureImage1DEXT 00000001800431d0     <common>
 0003:0001d1d8       glad_glGetCompressedMultiTexImageEXT 00000001800431d8     <common>
 0003:0001d1e0       glad_glVertexStream3svATI  00000001800431e0     <common>
 0003:0001d1e8       glad_glVertexWeighthvNV    00000001800431e8     <common>
 0003:0001d1f0       glad_glGenQueriesARB       00000001800431f0     <common>
 0003:0001d1f8       glad_glProgramUniform2i    00000001800431f8     <common>
 0003:0001d200       glad_glSampleCoveragexOES  0000000180043200     <common>
 0003:0001d208       GLAD_GL_AMD_multi_draw_indirect 0000000180043208     <common>
 0003:0001d20c       GLAD_GL_NV_bindless_texture 000000018004320c     <common>
 0003:0001d210       glad_glVertexAttrib1dNV    0000000180043210     <common>
 0003:0001d218       glad_glDeleteBuffersARB    0000000180043218     <common>
 0003:0001d220       glad_glVertexAttribParameteriAMD 0000000180043220     <common>
 0003:0001d228       glad_glMultiDrawElementsIndirectBindlessCountNV 0000000180043228     <common>
 0003:0001d230       glad_glVertexWeighthNV     0000000180043230     <common>
 0003:0001d238       glad_glVertexAttrib4s      0000000180043238     <common>
 0003:0001d240       glad_glTexImage2DMultisample 0000000180043240     <common>
 0003:0001d248       glad_glGetProgramResourceiv 0000000180043248     <common>
 0003:0001d250       glad_glVertexStream3sATI   0000000180043250     <common>
 0003:0001d258       glad_glShaderOp3EXT        0000000180043258     <common>
 0003:0001d260       GLAD_GL_ARB_occlusion_query 0000000180043260     <common>
 0003:0001d268       glad_glFramebufferTextureARB 0000000180043268     <common>
 0003:0001d270       glad_glCombinerInputNV     0000000180043270     <common>
 0003:0001d278       glad_glMultiTexCoord4svARB 0000000180043278     <common>
 0003:0001d280       GLAD_GL_EXT_histogram      0000000180043280     <common>
 0003:0001d288       glad_glSecondaryColor3hvNV 0000000180043288     <common>
 0003:0001d290       glad_glPointParameterxOES  0000000180043290     <common>
 0003:0001d298       glad_glVertexAttribPointerNV 0000000180043298     <common>
 0003:0001d2a0       glad_glUniform4uivEXT      00000001800432a0     <common>
 0003:0001d2a8       glad_glBindBufferARB       00000001800432a8     <common>
 0003:0001d2b0       glad_glCompressedMultiTexSubImage1DEXT 00000001800432b0     <common>
 0003:0001d2b8       GLAD_GL_AMD_interleaved_elements 00000001800432b8     <common>
 0003:0001d2c0       glad_glProgramUniform1uiv  00000001800432c0     <common>
 0003:0001d2c8       glad_glVertexArrayVertexOffsetEXT 00000001800432c8     <common>
 0003:0001d2d0       glad_glProgramUniform4ui64vNV 00000001800432d0     <common>
 0003:0001d2d8       glad_glSecondaryColor3hNV  00000001800432d8     <common>
 0003:0001d2e0       GLAD_GL_SGIX_polynomial_ffd 00000001800432e0     <common>
 0003:0001d2e4       GLAD_GL_SGIX_pixel_tiles   00000001800432e4     <common>
 0003:0001d2e8       glad_glMultiTexCoord4sARB  00000001800432e8     <common>
 0003:0001d2f0       glad_glGetMaterialxvOES    00000001800432f0     <common>
 0003:0001d2f8       glad_glPixelTexGenSGIX     00000001800432f8     <common>
 0003:0001d300       GLAD_GL_ARB_vertex_buffer_object 0000000180043300     <common>
 0003:0001d308       glad_glVertexStream2dvATI  0000000180043308     <common>
 0003:0001d310       glad_glVertexBlendARB      0000000180043310     <common>
 0003:0001d318       glad_glVertexAttrib4iv     0000000180043318     <common>
 0003:0001d320       glad_glCopyTextureSubImage2D 0000000180043320     <common>
 0003:0001d328       glad_glUniform3uivEXT      0000000180043328     <common>
 0003:0001d330       glad_glTextureSubImage2DEXT 0000000180043330     <common>
 0003:0001d338       glad_glProgramParameteriARB 0000000180043338     <common>
 0003:0001d340       GLAD_GL_SGIX_pixel_texture 0000000180043340     <common>
 0003:0001d348       glad_glShaderOp2EXT        0000000180043348     <common>
 0003:0001d350       glad_glFramebufferTexture  0000000180043350     <common>
 0003:0001d358       glad_glListParameterivSGIX 0000000180043358     <common>
 0003:0001d360       glad_glMultiDrawArraysIndirectBindlessCountNV 0000000180043360     <common>
 0003:0001d368       glad_glTexImage3D          0000000180043368     <common>
 0003:0001d370       glad_glFogCoordhvNV        0000000180043370     <common>
 0003:0001d378       glad_glWeightPointerARB    0000000180043378     <common>
 0003:0001d380       glad_glProgramUniform1ui   0000000180043380     <common>
 0003:0001d388       glad_glTrackMatrixNV       0000000180043388     <common>
 0003:0001d390       glad_glCombinerParameteriNV 0000000180043390     <common>
 0003:0001d398       glad_glVertexStream2dATI   0000000180043398     <common>
 0003:0001d3a0       glad_glGetLightxvOES       00000001800433a0     <common>
 0003:0001d3a8       glad_glVertexAttrib4fv     00000001800433a8     <common>
 0003:0001d3b0       glad_glProgramUniform3ui64vNV 00000001800433b0     <common>
 0003:0001d3b8       glad_glGetProgramResourceName 00000001800433b8     <common>
 0003:0001d3c0       glad_glFogCoordhNV         00000001800433c0     <common>
 0003:0001d3c8       glad_glMultiTexRenderbufferEXT 00000001800433c8     <common>
 0003:0001d3d0       GLAD_GL_ARB_geometry_shader4 00000001800433d0     <common>
 0003:0001d3d8       glad_glMultiTexCoord4ivARB 00000001800433d8     <common>
 0003:0001d3e0       glad_glUniform2uivEXT      00000001800433e0     <common>
 0003:0001d3e8       GLAD_GL_ARB_framebuffer_sRGB 00000001800433e8     <common>
 0003:0001d3f0       glad_glCompressedMultiTexSubImage2DEXT 00000001800433f0     <common>
 0003:0001d3f8       glad_glListParameteriSGIX  00000001800433f8     <common>
 0003:0001d400       GLAD_GL_ARB_framebuffer_object 0000000180043400     <common>
 0003:0001d408       glad_glCombinerParameterivNV 0000000180043408     <common>
 0003:0001d410       GLAD_GL_ARB_framebuffer_no_attachments 0000000180043410     <common>
 0003:0001d418       glad_glMultiTexCoord4hvNV  0000000180043418     <common>
 0003:0001d420       glad_glShaderOp1EXT        0000000180043420     <common>
 0003:0001d428       glad_glVertexAttrib4f      0000000180043428     <common>
 0003:0001d430       glad_glGetBufferParameteri64v 0000000180043430     <common>
 0003:0001d438       GLAD_GL_ARB_fragment_shader_interlock 0000000180043438     <common>
 0003:0001d440       glad_glProgramUniform1dv   0000000180043440     <common>
 0003:0001d448       glad_glVertexStream2fvATI  0000000180043448     <common>
 0003:0001d450       GLAD_GL_ARB_fragment_shader 0000000180043450     <common>
 0003:0001d458       glad_glTranslatexOES       0000000180043458     <common>
 0003:0001d460       glad_glWeightuivARB        0000000180043460     <common>
 0003:0001d468       glad_glRequestResidentProgramsNV 0000000180043468     <common>
 0003:0001d470       glad_glMultiTexCoord4iARB  0000000180043470     <common>
 0003:0001d478       GLAD_GL_ARB_fragment_program_shadow 0000000180043478     <common>
 0003:0001d480       glad_glProgramUniform2ui64vNV 0000000180043480     <common>
 0003:0001d488       glad_glIsProgramARB        0000000180043488     <common>
 0003:0001d490       glad_glUniform1uivEXT      0000000180043490     <common>
 0003:0001d498       glad_glTextureRenderbufferEXT 0000000180043498     <common>
 0003:0001d4a0       glad_glCombinerParameterfNV 00000001800434a0     <common>
 0003:0001d4a8       GLAD_GL_NV_bindless_multi_draw_indirect_count 00000001800434a8     <common>
 0003:0001d4b0       glad_glMultiDrawElementsIndirectBindlessNV 00000001800434b0     <common>
 0003:0001d4b8       glad_glMultiTexCoord4hNV   00000001800434b8     <common>
 0003:0001d4c0       glad_glVertexStream2fATI   00000001800434c0     <common>
 0003:0001d4c8       glad_glCopyTextureSubImage1D 00000001800434c8     <common>
 0003:0001d4d0       glad_glListParameterfvSGIX 00000001800434d0     <common>
 0003:0001d4d8       glad_glWeightusvARB        00000001800434d8     <common>
 0003:0001d4e0       glad_glGetProgramStringARB 00000001800434e0     <common>
 0003:0001d4e8       glad_glGetInteger64i_v     00000001800434e8     <common>
 0003:0001d4f0       glad_glDeleteVertexShaderEXT 00000001800434f0     <common>
 0003:0001d4f8       glad_glProgramParameters4fvNV 00000001800434f8     <common>
 0003:0001d500       glad_glGetProgramResourceIndex 0000000180043500     <common>
 0003:0001d508       glad_glTexParameterxvOES   0000000180043508     <common>
 0003:0001d510       glad_glCombinerParameterfvNV 0000000180043510     <common>
 0003:0001d518       glad_glProgramUniform1d    0000000180043518     <common>
 0003:0001d520       glad_glTextureSubImage1DEXT 0000000180043520     <common>
 0003:0001d528       glad_glVertexAttrib4dv     0000000180043528     <common>
 0003:0001d530       glad_glGenVertexShadersEXT 0000000180043530     <common>
 0003:0001d538       glad_glNamedFramebufferTextureFaceEXT 0000000180043538     <common>
 0003:0001d540       glad_glUniform4uiEXT       0000000180043540     <common>
 0003:0001d548       glad_glDrawRangeElements   0000000180043548     <common>
 0003:0001d550       glad_glProgramUniform1ui64vNV 0000000180043550     <common>
 0003:0001d558       glad_glWeightubvARB        0000000180043558     <common>
 0003:0001d560       glad_glListParameterfSGIX  0000000180043560     <common>
 0003:0001d568       glad_glVertexStream2ivATI  0000000180043568     <common>
 0003:0001d570       glad_glMultiTexCoord4fvARB 0000000180043570     <common>
 0003:0001d578       glad_glGetSynciv           0000000180043578     <common>
 0003:0001d580       glad_glGetProgramivARB     0000000180043580     <common>
 0003:0001d588       glad_glBindVertexShaderEXT 0000000180043588     <common>
 0003:0001d590       glad_glGetProgramInterfaceiv 0000000180043590     <common>
 0003:0001d598       GLAD_GL_NV_register_combiners 0000000180043598     <common>
 0003:0001d5a0       glad_glPrimitiveRestartIndexNV 00000001800435a0     <common>
 0003:0001d5a8       glad_glMultiTexCoord3hvNV  00000001800435a8     <common>
 0003:0001d5b0       glad_glVertexAttrib4d      00000001800435b0     <common>
 0003:0001d5b8       glad_glTexParameterxOES    00000001800435b8     <common>
 0003:0001d5c0       glad_glProgramUniform1fv   00000001800435c0     <common>
 0003:0001d5c8       glad_glProgramParameters4dvNV 00000001800435c8     <common>
 0003:0001d5d0       glad_glWeightdvARB         00000001800435d0     <common>
 0003:0001d5d8       glad_glEndVertexShaderEXT  00000001800435d8     <common>
 0003:0001d5e0       glad_glMultiDrawArraysIndirectBindlessNV 00000001800435e0     <common>
 0003:0001d5e8       glad_glMultiTexCoord4fARB  00000001800435e8     <common>
 0003:0001d5f0       glad_glCompressedTextureSubImage3D 00000001800435f0     <common>
 0003:0001d5f8       glad_glCompressedMultiTexSubImage3DEXT 00000001800435f8     <common>
 0003:0001d600       glad_glVertexStream2iATI   0000000180043600     <common>
 0003:0001d608       glad_glBeginVertexShaderEXT 0000000180043608     <common>
 0003:0001d610       glad_glPrimitiveRestartNV  0000000180043610     <common>
 0003:0001d618       glad_glGetListParameterivSGIX 0000000180043618     <common>
 0003:0001d620       glad_glGetProgramLocalParameterfvARB 0000000180043620     <common>
 0003:0001d628       glad_glProgramUniform4ui64NV 0000000180043628     <common>
 0003:0001d630       glad_glMultiTexCoord3hNV   0000000180043630     <common>
 0003:0001d638       GLAD_GL_EXT_vertex_shader  0000000180043638     <common>
 0003:0001d63c       GLAD_GL_NV_primitive_restart 000000018004363c     <common>
 0003:0001d640       glad_glGetVertexAttribLdvEXT 0000000180043640     <common>
 0003:0001d648       glad_glGetVideoui64vNV     0000000180043648     <common>
 0003:0001d650       glad_glNamedFramebufferTextureLayerEXT 0000000180043650     <common>
 0003:0001d658       glad_glUniform3uiEXT       0000000180043658     <common>
 0003:0001d660       glad_glTexEnvxvOES         0000000180043660     <common>
 0003:0001d668       glad_glWeightfvARB         0000000180043668     <common>
 0003:0001d670       glad_glMultiDrawElementsIndirect 0000000180043670     <common>
 0003:0001d678       glad_glGetInteger64v       0000000180043678     <common>
 0003:0001d680       GLAD_GL_VERSION_1_2        0000000180043680     <common>
 0003:0001d688       glad_glTextureImage2DEXT   0000000180043688     <common>
 0003:0001d690       glad_glProgramParameter4fvNV 0000000180043690     <common>
 0003:0001d698       glad_glVertexStream2svATI  0000000180043698     <common>
 0003:0001d6a0       glad_glIsTexture           00000001800436a0     <common>
 0003:0001d6a8       glad_glProgramUniform1f    00000001800436a8     <common>
 0003:0001d6b0       glad_glVertexAttrib4bv     00000001800436b0     <common>
 0003:0001d6b8       glad_glGetListParameterfvSGIX 00000001800436b8     <common>
 0003:0001d6c0       glad_glWeightivARB         00000001800436c0     <common>
 0003:0001d6c8       GLAD_GL_NV_bindless_multi_draw_indirect 00000001800436c8     <common>
 0003:0001d6d0       glad_glGetProgramLocalParameterdvARB 00000001800436d0     <common>
 0003:0001d6d8       GLAD_GL_NVX_gpu_memory_info 00000001800436d8     <common>
 0003:0001d6e0       glad_glVertexAttribLPointerEXT 00000001800436e0     <common>
 0003:0001d6e8       glad_glGenTextures         00000001800436e8     <common>
 0003:0001d6f0       glad_glGetVideoi64vNV      00000001800436f0     <common>
 0003:0001d6f8       glad_glMultiTexCoord4dvARB 00000001800436f8     <common>
 0003:0001d700       glad_glWaitSync            0000000180043700     <common>
 0003:0001d708       glad_glEndConditionalRenderNVX 0000000180043708     <common>
 0003:0001d710       glad_glTexEnvxOES          0000000180043710     <common>
 0003:0001d718       glad_glMultiTexCoord2hvNV  0000000180043718     <common>
 0003:0001d720       glad_glVertexStream2sATI   0000000180043720     <common>
 0003:0001d728       glad_glUniform2uiEXT       0000000180043728     <common>
 0003:0001d730       glad_glVertexAttrib4Nusv   0000000180043730     <common>
 0003:0001d738       glad_glBeginConditionalRenderNVX 0000000180043738     <common>
 0003:0001d740       glad_glNamedFramebufferTextureEXT 0000000180043740     <common>
 0003:0001d748       glad_glProgramUniform1iv   0000000180043748     <common>
 0003:0001d750       glad_glProgramParameter4fNV 0000000180043750     <common>
 0003:0001d758       glad_glProgramUniform3ui64NV 0000000180043758     <common>
 0003:0001d760       glad_glWeightsvARB         0000000180043760     <common>
 0003:0001d768       glad_glMultiDrawArraysIndirect 0000000180043768     <common>
 0003:0001d770       GLAD_GL_SGIX_list_priority 0000000180043770     <common>
 0003:0001d778       glad_glDeleteTextures      0000000180043778     <common>
 0003:0001d780       glad_glMultiTexCoord4dARB  0000000180043780     <common>
 0003:0001d788       GLAD_GL_SGIX_ir_instrument1 0000000180043788     <common>
 0003:0001d790       glad_glGetProgramEnvParameterfvARB 0000000180043790     <common>
 0003:0001d798       glad_glMultiTexCoord2hNV   0000000180043798     <common>
 0003:0001d7a0       GLAD_GL_NVX_conditional_render 00000001800437a0     <common>
 0003:0001d7a4       GLAD_GL_MESA_ycbcr_texture 00000001800437a4     <common>
 0003:0001d7a8       glad_glGetVideouivNV       00000001800437a8     <common>
 0003:0001d7b0       GLAD_GL_SGIX_interlace     00000001800437b0     <common>
 0003:0001d7b8       glad_glWindowPos4svMESA    00000001800437b8     <common>
 0003:0001d7c0       glad_glStopInstrumentsSGIX 00000001800437c0     <common>
 0003:0001d7c8       glad_glClientWaitSync      00000001800437c8     <common>
 0003:0001d7d0       glad_glVertexAttrib4Nuiv   00000001800437d0     <common>
 0003:0001d7d8       glad_glScalexOES           00000001800437d8     <common>
 0003:0001d7e0       glad_glUniform1uiEXT       00000001800437e0     <common>
 0003:0001d7e8       glad_glVertexStream1dvATI  00000001800437e8     <common>
 0003:0001d7f0       glad_glWeightbvARB         00000001800437f0     <common>
 0003:0001d7f8       glad_glVertexAttribL4dvEXT 00000001800437f8     <common>
 0003:0001d800       glad_glCompressedTextureSubImage2D 0000000180043800     <common>
 0003:0001d808       glad_glBindTexture         0000000180043808     <common>
 0003:0001d810       glad_glStartInstrumentsSGIX 0000000180043810     <common>
 0003:0001d818       glad_glWindowPos4sMESA     0000000180043818     <common>
 0003:0001d820       glad_glProgramUniform1i    0000000180043820     <common>
 0003:0001d828       glad_glCompressedMultiTexImage1DEXT 0000000180043828     <common>
 0003:0001d830       glad_glNamedCopyBufferSubDataEXT 0000000180043830     <common>
 0003:0001d838       glad_glGetProgramEnvParameterdvARB 0000000180043838     <common>
 0003:0001d840       glad_glReadInstrumentsSGIX 0000000180043840     <common>
 0003:0001d848       glad_glVertexAttrib4Nubv   0000000180043848     <common>
 0003:0001d850       glad_glMultiTexCoord1hvNV  0000000180043850     <common>
 0003:0001d858       glad_glInvalidateSubFramebuffer 0000000180043858     <common>
 0003:0001d860       glad_glVertexStream1dATI   0000000180043860     <common>
 0003:0001d868       glad_glGetFragDataLocationEXT 0000000180043868     <common>
 0003:0001d870       glad_glGetVideoivNV        0000000180043870     <common>
 0003:0001d878       glad_glRotatexOES          0000000180043878     <common>
 0003:0001d880       glad_glDeleteSync          0000000180043880     <common>
 0003:0001d888       GLAD_GL_ARB_vertex_blend   0000000180043888     <common>
 0003:0001d890       glad_glProgramUniform2ui64NV 0000000180043890     <common>
 0003:0001d898       GLAD_GL_ARB_vertex_attrib_binding 0000000180043898     <common>
 0003:0001d8a0       glad_glTextureImage1DEXT   00000001800438a0     <common>
 0003:0001d8a8       glad_glVertexAttribL3dvEXT 00000001800438a8     <common>
 0003:0001d8b0       glad_glProgramParameter4dvNV 00000001800438b0     <common>
 0003:0001d8b8       glad_glTexSubImage2D       00000001800438b8     <common>
 0003:0001d8c0       glad_glMultiTexCoord3svARB 00000001800438c0     <common>
 0003:0001d8c8       glad_glPollInstrumentsSGIX 00000001800438c8     <common>
 0003:0001d8d0       GLAD_GL_ARB_vertex_attrib_64bit 00000001800438d0     <common>
 0003:0001d8d4       GLAD_GL_ARB_vertex_array_object 00000001800438d4     <common>
 0003:0001d8d8       glad_glMultiTexCoord1hNV   00000001800438d8     <common>
 0003:0001d8e0       GLAD_GL_ARB_vertex_array_bgra 00000001800438e0     <common>
 0003:0001d8e8       glad_glIsSync              00000001800438e8     <common>
 0003:0001d8f0       glad_glVertexAttrib4Nub    00000001800438f0     <common>
 0003:0001d8f8       glad_glBindFragDataLocationEXT 00000001800438f8     <common>
 0003:0001d900       glad_glGetProgramPipelineiv 0000000180043900     <common>
 0003:0001d908       glad_glVertexStream1fvATI  0000000180043908     <common>
 0003:0001d910       GLAD_GL_ARB_uniform_buffer_object 0000000180043910     <common>
 0003:0001d918       glad_glMultTransposeMatrixdARB 0000000180043918     <common>
 0003:0001d920       glad_glProgramLocalParameter4fvARB 0000000180043920     <common>
 0003:0001d928       glad_glWindowPos4ivMESA    0000000180043928     <common>
 0003:0001d930       glad_glInstrumentsBufferSGIX 0000000180043930     <common>
 0003:0001d938       glad_glMultiTexCoord3sARB  0000000180043938     <common>
 0003:0001d940       glad_glVertexAttribL2dvEXT 0000000180043940     <common>
 0003:0001d948       glad_glPresentFrameDualFillNV 0000000180043948     <common>
 0003:0001d950       glad_glFenceSync           0000000180043950     <common>
 0003:0001d958       glad_glProgramParameter4dNV 0000000180043958     <common>
 0003:0001d960       glad_glGetFramebufferParameterivEXT 0000000180043960     <common>
 0003:0001d968       glad_glPolygonOffsetxOES   0000000180043968     <common>
 0003:0001d970       glad_glTexCoord4hvNV       0000000180043970     <common>
 0003:0001d978       glad_glWindowPos4iMESA     0000000180043978     <common>
 0003:0001d980       glad_glMultTransposeMatrixfARB 0000000180043980     <common>
 0003:0001d988       glad_glProgramUniform1ui64NV 0000000180043988     <common>
 0003:0001d990       glad_glVertexStream1fATI   0000000180043990     <common>
 0003:0001d998       glad_glGetInstrumentsSGIX  0000000180043998     <common>
 0003:0001d9a0       glad_glGetUniformuivEXT    00000001800439a0     <common>
 0003:0001d9a8       glad_glVertexAttribL1dvEXT 00000001800439a8     <common>
 0003:0001d9b0       glad_glIsProgramPipeline   00000001800439b0     <common>
 0003:0001d9b8       GLAD_GL_SGIX_instruments   00000001800439b8     <common>
 0003:0001d9c0       glad_glProvokingVertex     00000001800439c0     <common>
 0003:0001d9c8       glad_glTexCoord4hNV        00000001800439c8     <common>
 0003:0001d9d0       glad_glProgramLocalParameter4fARB 00000001800439d0     <common>
 0003:0001d9d8       glad_glLoadTransposeMatrixdARB 00000001800439d8     <common>
 0003:0001d9e0       glad_glCompressedMultiTexImage2DEXT 00000001800439e0     <common>
 0003:0001d9e8       glad_glIglooInterfaceSGIX  00000001800439e8     <common>
 0003:0001d9f0       glad_glInvalidateFramebuffer 00000001800439f0     <common>
 0003:0001d9f8       glad_glCompressedTextureSubImage1D 00000001800439f8     <common>
 0003:0001da00       glad_glPointSizexOES       0000000180043a00     <common>
 0003:0001da08       glad_glVertexAttrib4Nsv    0000000180043a08     <common>
 0003:0001da10       glad_glFramebufferReadBufferEXT 0000000180043a10     <common>
 0003:0001da18       glad_glVertexStream1ivATI  0000000180043a18     <common>
 0003:0001da20       glad_glMultiTexCoord3ivARB 0000000180043a20     <common>
 0003:0001da28       glad_glGenProgramPipelines 0000000180043a28     <common>
 0003:0001da30       glad_glMultiDrawElementsBaseVertex 0000000180043a30     <common>
 0003:0001da38       glad_glProgramUniform4i64vNV 0000000180043a38     <common>
 0003:0001da40       glad_glLoadTransposeMatrixfARB 0000000180043a40     <common>
 0003:0001da48       glad_glVertexAttribL4dEXT  0000000180043a48     <common>
 0003:0001da50       glad_glWindowPos4fvMESA    0000000180043a50     <common>
 0003:0001da58       glad_glPointParameterxvOES 0000000180043a58     <common>
 0003:0001da60       GLAD_GL_SGIX_igloo_interface 0000000180043a60     <common>
 0003:0001da68       glad_glTextureParameterivEXT 0000000180043a68     <common>
 0003:0001da70       glad_glTexSubImage1D       0000000180043a70     <common>
 0003:0001da78       GLAD_GL_EXT_gpu_shader4    0000000180043a78     <common>
 0003:0001da7c       GLAD_GL_ARB_transpose_matrix 0000000180043a7c     <common>
 0003:0001da80       glad_glFrameZoomSGIX       0000000180043a80     <common>
 0003:0001da88       glad_glVertexAttrib4Niv    0000000180043a88     <common>
 0003:0001da90       glad_glProgramLocalParameters4fvEXT 0000000180043a90     <common>
 0003:0001da98       glad_glLoadProgramNV       0000000180043a98     <common>
 0003:0001daa0       glad_glVertexStream1iATI   0000000180043aa0     <common>
 0003:0001daa8       GLAD_GL_ARB_transform_feedback_overflow_query 0000000180043aa8     <common>
 0003:0001dab0       glad_glDeleteProgramPipelines 0000000180043ab0     <common>
 0003:0001dab8       glad_glInvalidateBufferData 0000000180043ab8     <common>
 0003:0001dac0       glad_glFramebufferDrawBuffersEXT 0000000180043ac0     <common>
 0003:0001dac8       glad_glMultiTexCoord3iARB  0000000180043ac8     <common>
 0003:0001dad0       GLAD_GL_ARB_transform_feedback_instanced 0000000180043ad0     <common>
 0003:0001dad8       glad_glTexCoord3hvNV       0000000180043ad8     <common>
 0003:0001dae0       glad_glWindowPos4fMESA     0000000180043ae0     <common>
 0003:0001dae8       GLAD_GL_ARB_transform_feedback3 0000000180043ae8     <common>
 0003:0001daec       GLAD_GL_ARB_transform_feedback2 0000000180043aec     <common>
 0003:0001daf0       glad_glOrthoxOES           0000000180043af0     <common>
 0003:0001daf8       GLAD_GL_SGIX_framezoom     0000000180043af8     <common>
 0003:0001dafc       GLAD_GL_ARB_timer_query    0000000180043afc     <common>
 0003:0001db00       glad_glLightEnviSGIX       0000000180043b00     <common>
 0003:0001db08       glad_glInvalidateBufferSubData 0000000180043b08     <common>
 0003:0001db10       glad_glTexCoord3hNV        0000000180043b10     <common>
 0003:0001db18       GLAD_GL_ARB_texture_view   0000000180043b18     <common>
 0003:0001db20       glad_glVertexAttrib4Nbv    0000000180043b20     <common>
 0003:0001db28       glad_glProgramUniform3i64vNV 0000000180043b28     <common>
 0003:0001db30       glad_glProgramLocalParameter4dvARB 0000000180043b30     <common>
 0003:0001db38       glad_glBindProgramPipeline 0000000180043b38     <common>
 0003:0001db40       GLAD_GL_ARB_texture_swizzle 0000000180043b40     <common>
 0003:0001db48       glad_glVertexStream1svATI  0000000180043b48     <common>
 0003:0001db50       GLAD_GL_ARB_texture_storage_multisample 0000000180043b50     <common>
 0003:0001db54       GLAD_GL_ARB_texture_storage 0000000180043b54     <common>
 0003:0001db58       glad_glTextureParameteriEXT 0000000180043b58     <common>
 0003:0001db60       glad_glFramebufferDrawBufferEXT 0000000180043b60     <common>
 0003:0001db68       glad_glVertexAttribL3dEXT  0000000180043b68     <common>
 0003:0001db70       glad_glTextureSubImage3D   0000000180043b70     <common>
 0003:0001db78       GLAD_GL_ARB_texture_stencil8 0000000180043b78     <common>
 0003:0001db80       glad_glDrawElementsInstancedBaseVertex 0000000180043b80     <common>
 0003:0001db88       glad_glProgramEnvParameters4fvEXT 0000000180043b88     <common>
 0003:0001db90       glad_glMultiTexCoord3fvARB 0000000180043b90     <common>
 0003:0001db98       GLAD_GL_ARB_texture_rgb10_a2ui 0000000180043b98     <common>
 0003:0001dba0       glad_glIsProgramNV         0000000180043ba0     <common>
 0003:0001dba8       glad_glCreateShaderProgramv 0000000180043ba8     <common>
 0003:0001dbb0       glad_glGetFragmentMaterialivSGIX 0000000180043bb0     <common>
 0003:0001dbb8       GLAD_GL_ARB_texture_rg     0000000180043bb8     <common>
 0003:0001dbc0       glad_glWindowPos4dvMESA    0000000180043bc0     <common>
 0003:0001dbc8       glad_glVertexAttrib3sv     0000000180043bc8     <common>
 0003:0001dbd0       glad_glVertexStream1sATI   0000000180043bd0     <common>
 0003:0001dbd8       glad_glCompressedMultiTexImage3DEXT 0000000180043bd8     <common>
 0003:0001dbe0       glad_glPresentFrameKeyedNV 0000000180043be0     <common>
 0003:0001dbe8       GLAD_GL_ARB_texture_rectangle 0000000180043be8     <common>
 0003:0001dbf0       glad_glInvalidateTexImage  0000000180043bf0     <common>
 0003:0001dbf8       glad_glTexCoord2hvNV       0000000180043bf8     <common>
 0003:0001dc00       glad_glProgramLocalParameter4dARB 0000000180043c00     <common>
 0003:0001dc08       GLAD_GL_ARB_texture_query_lod 0000000180043c08     <common>
 0003:0001dc10       glad_glCopyTexSubImage2D   0000000180043c10     <common>
 0003:0001dc18       GLAD_GL_ARB_texture_query_levels 0000000180043c18     <common>
 0003:0001dc20       glad_glGenerateMultiTexMipmapEXT 0000000180043c20     <common>
 0003:0001dc28       glad_glGetVertexAttribPointervNV 0000000180043c28     <common>
 0003:0001dc30       glad_glProgramUniform2i64vNV 0000000180043c30     <common>
 0003:0001dc38       GLAD_GL_ARB_texture_non_power_of_two 0000000180043c38     <common>
 0003:0001dc40       glad_glWindowPos4dMESA     0000000180043c40     <common>
 0003:0001dc48       GLAD_GL_ARB_texture_multisample 0000000180043c48     <common>
 0003:0001dc50       glad_glMultiTexCoord3fARB  0000000180043c50     <common>
 0003:0001dc58       glad_glVertexAttrib3s      0000000180043c58     <common>
 0003:0001dc60       glad_glNormal3xOES         0000000180043c60     <common>
 0003:0001dc68       GLAD_GL_ARB_texture_mirrored_repeat 0000000180043c68     <common>
 0003:0001dc70       glad_glTexCoord2hNV        0000000180043c70     <common>
 0003:0001dc78       GLAD_GL_ATI_vertex_streams 0000000180043c78     <common>
 0003:0001dc80       glad_glActiveShaderProgram 0000000180043c80     <common>
 0003:0001dc88       GLAD_GL_ARB_texture_mirror_clamp_to_edge 0000000180043c88     <common>
 0003:0001dc90       glad_glGetFragmentMaterialfvSGIX 0000000180043c90     <common>
 0003:0001dc98       glad_glVertexAttribL2dEXT  0000000180043c98     <common>
 0003:0001dca0       glad_glInvalidateTexSubImage 0000000180043ca0     <common>
 0003:0001dca8       glad_glTextureParameterfvEXT 0000000180043ca8     <common>
 0003:0001dcb0       glad_glGetVertexAttribArrayObjectivATI 0000000180043cb0     <common>
 0003:0001dcb8       GLAD_GL_ARB_texture_gather 0000000180043cb8     <common>
 0003:0001dcbc       GLAD_GL_EXT_gpu_program_parameters 0000000180043cbc     <common>
 0003:0001dcc0       GLAD_GL_ARB_texture_float  0000000180043cc0     <common>
 0003:0001dcc8       glad_glProgramParameteriEXT 0000000180043cc8     <common>
 0003:0001dcd0       glad_glGenerateTextureMipmapEXT 0000000180043cd0     <common>
 0003:0001dcd8       GLAD_GL_ARB_texture_filter_minmax 0000000180043cd8     <common>
 0003:0001dce0       ?_OptionsStorage@?1??__local_stdio_printf_options@@9@9 0000000180043ce0     <common>
 0003:0001dd00       _glfw                      0000000180043d00     <common>
 0003:0001ed30       __dyn_tls_init_callback    0000000180044d30     <common>

 entry point at        0001:0001f530

 Static symbols

 0000:fffb7000       .debug$S                   0000000180000000     kernel32:KERNEL32.dll
 0000:fffb7000       .debug$S                   0000000180000000     game.exp
 0000:fffb7000       .debug$S                   0000000180000000     gdi32:GDI32.dll
 0000:fffb7000       .debug$S                   0000000180000000     gdi32:GDI32.dll
 0000:fffb7000       .debug$S                   0000000180000000     shell32:SHELL32.dll
 0000:fffb7000       .debug$S                   0000000180000000     shell32:SHELL32.dll
 0000:fffb7000       .debug$S                   0000000180000000     shell32:SHELL32.dll
 0000:fffb7000       .debug$S                   0000000180000000     ucrt:api-ms-win-crt-heap-l1-1-0.dll
 0000:fffb7000       .debug$S                   0000000180000000     ucrt:api-ms-win-crt-heap-l1-1-0.dll
 0000:fffb7000       .debug$S                   0000000180000000     ucrt:api-ms-win-crt-heap-l1-1-0.dll
 0000:fffb7000       .debug$S                   0000000180000000     ucrt:api-ms-win-crt-heap-l1-1-0.dll
 0000:fffb7000       .debug$S                   0000000180000000     ucrt:api-ms-win-crt-heap-l1-1-0.dll
 0000:fffb7000       .debug$S                   0000000180000000     kernel32:KERNEL32.dll
 0000:fffb7000       .debug$S                   0000000180000000     ucrt:api-ms-win-crt-math-l1-1-0.dll
 0000:fffb7000       .debug$S                   0000000180000000     ucrt:api-ms-win-crt-math-l1-1-0.dll
 0000:fffb7000       .debug$S                   0000000180000000     ucrt:api-ms-win-crt-math-l1-1-0.dll
 0000:fffb7000       .debug$S                   0000000180000000     ucrt:api-ms-win-crt-math-l1-1-0.dll
 0000:fffb7000       .debug$S                   0000000180000000     kernel32:KERNEL32.dll
 0000:fffb7000       .debug$S                   0000000180000000     ucrt:api-ms-win-crt-runtime-l1-1-0.dll
 0000:fffb7000       .debug$S                   0000000180000000     ucrt:api-ms-win-crt-runtime-l1-1-0.dll
 0000:fffb7000       .debug$S                   0000000180000000     ucrt:api-ms-win-crt-runtime-l1-1-0.dll
 0000:fffb7000       .debug$S                   0000000180000000     ucrt:api-ms-win-crt-runtime-l1-1-0.dll
 0000:fffb7000       .debug$S                   0000000180000000     ucrt:api-ms-win-crt-runtime-l1-1-0.dll
 0000:fffb7000       .debug$S                   0000000180000000     ucrt:api-ms-win-crt-runtime-l1-1-0.dll
 0000:fffb7000       .debug$S                   0000000180000000     ucrt:api-ms-win-crt-runtime-l1-1-0.dll
 0000:fffb7000       .debug$S                   0000000180000000     ucrt:api-ms-win-crt-runtime-l1-1-0.dll
 0000:fffb7000       .debug$S                   0000000180000000     ucrt:api-ms-win-crt-runtime-l1-1-0.dll
 0000:fffb7000       .debug$S                   0000000180000000     ucrt:api-ms-win-crt-runtime-l1-1-0.dll
 0000:fffb7000       .debug$S                   0000000180000000     ucrt:api-ms-win-crt-runtime-l1-1-0.dll
 0000:fffb7000       .debug$S                   0000000180000000     ucrt:api-ms-win-crt-runtime-l1-1-0.dll
 0000:fffb7000       .debug$S                   0000000180000000     ucrt:api-ms-win-crt-runtime-l1-1-0.dll
 0000:fffb7000       .debug$S                   0000000180000000     ucrt:api-ms-win-crt-runtime-l1-1-0.dll
 0000:fffb7000       .debug$S                   0000000180000000     ucrt:api-ms-win-crt-runtime-l1-1-0.dll
 0000:fffb7000       .debug$S                   0000000180000000     kernel32:KERNEL32.dll
 0000:fffb7000       .debug$S                   0000000180000000     ucrt:api-ms-win-crt-stdio-l1-1-0.dll
 0000:fffb7000       .debug$S                   0000000180000000     ucrt:api-ms-win-crt-stdio-l1-1-0.dll
 0000:fffb7000       .debug$S                   0000000180000000     ucrt:api-ms-win-crt-string-l1-1-0.dll
 0000:fffb7000       .debug$S                   0000000180000000     ucrt:api-ms-win-crt-string-l1-1-0.dll
 0000:fffb7000       .debug$S                   0000000180000000     ucrt:api-ms-win-crt-string-l1-1-0.dll
 0000:fffb7000       .debug$S                   0000000180000000     ucrt:api-ms-win-crt-string-l1-1-0.dll
 0002:fffde000       .idata$6                   0000000180000000     ucrt:api-ms-win-crt-utility-l1-1-0.dll
 0000:fffb7000       .debug$S                   0000000180000000     ucrt:api-ms-win-crt-utility-l1-1-0.dll
 0000:fffb7000       .debug$S                   0000000180000000     kernel32:KERNEL32.dll
 0000:fffb7000       .debug$S                   0000000180000000     vcruntime:VCRUNTIME140.dll
 0000:fffb7000       .debug$S                   0000000180000000     vcruntime:VCRUNTIME140.dll
 0000:fffb7000       .debug$S                   0000000180000000     vcruntime:VCRUNTIME140.dll
 0000:fffb7000       .debug$S                   0000000180000000     vcruntime:VCRUNTIME140.dll
 0000:fffb7000       .debug$S                   0000000180000000     vcruntime:VCRUNTIME140.dll
 0000:fffb7000       .debug$S                   0000000180000000     vcruntime:VCRUNTIME140.dll
 0000:fffb7000       .debug$S                   0000000180000000     vcruntime:VCRUNTIME140.dll
 0000:fffb7000       .debug$S                   0000000180000000     vcruntime:VCRUNTIME140.dll
 0000:fffb7000       .debug$S                   0000000180000000     kernel32:KERNEL32.dll
 0000:fffb7000       .debug$S                   0000000180000000     kernel32:KERNEL32.dll
 0000:fffb7000       .debug$S                   0000000180000000     kernel32:KERNEL32.dll
 0000:fffb7000       .debug$S                   0000000180000000     kernel32:KERNEL32.dll
 0000:fffb7000       .debug$S                   0000000180000000     kernel32:KERNEL32.dll
 0000:fffb7000       .debug$S                   0000000180000000     kernel32:KERNEL32.dll
 0000:fffb7000       .debug$S                   0000000180000000     kernel32:KERNEL32.dll
 0000:fffb7000       .debug$S                   0000000180000000     kernel32:KERNEL32.dll
 0000:fffb7000       .debug$S                   0000000180000000     kernel32:KERNEL32.dll
 0000:fffb7000       .debug$S                   0000000180000000     kernel32:KERNEL32.dll
 0000:fffb7000       .debug$S                   0000000180000000     kernel32:KERNEL32.dll
 0000:fffb7000       .debug$S                   0000000180000000     kernel32:KERNEL32.dll
 0000:fffb7000       .debug$S                   0000000180000000     kernel32:KERNEL32.dll
 0000:fffb7000       .debug$S                   0000000180000000     kernel32:KERNEL32.dll
 0000:fffb7000       .debug$S                   0000000180000000     kernel32:KERNEL32.dll
 0000:fffb7000       .debug$S                   0000000180000000     kernel32:KERNEL32.dll
 0000:fffb7000       .debug$S                   0000000180000000     kernel32:KERNEL32.dll
 0000:fffb7000       .debug$S                   0000000180000000     kernel32:KERNEL32.dll
 0000:fffb7000       .debug$S                   0000000180000000     kernel32:KERNEL32.dll
 0000:fffb7000       .debug$S                   0000000180000000     kernel32:KERNEL32.dll
 0000:fffb7000       .debug$S                   0000000180000000     kernel32:KERNEL32.dll
 0000:fffb7000       .debug$S                   0000000180000000     shell32:SHELL32.dll
 0000:fffb7000       .debug$S                   0000000180000000     kernel32:KERNEL32.dll
 0000:fffb7000       .debug$S                   0000000180000000     kernel32:KERNEL32.dll
 0000:fffb7000       .debug$S                   0000000180000000     kernel32:KERNEL32.dll
 0000:fffb7000       .debug$S                   0000000180000000     kernel32:KERNEL32.dll
 0000:fffb7000       .debug$S                   0000000180000000     kernel32:KERNEL32.dll
 0000:fffb7000       .debug$S                   0000000180000000     kernel32:KERNEL32.dll
 0000:fffb7000       .debug$S                   0000000180000000     kernel32:KERNEL32.dll
 0000:fffb7000       .debug$S                   0000000180000000     user32:USER32.dll
 0000:fffb7000       .debug$S                   0000000180000000     user32:USER32.dll
 0000:fffb7000       .debug$S                   0000000180000000     user32:USER32.dll
 0000:fffb7000       .debug$S                   0000000180000000     user32:USER32.dll
 0000:fffb7000       .debug$S                   0000000180000000     user32:USER32.dll
 0000:fffb7000       .debug$S                   0000000180000000     user32:USER32.dll
 0000:fffb7000       .debug$S                   0000000180000000     user32:USER32.dll
 0000:fffb7000       .debug$S                   0000000180000000     user32:USER32.dll
 0000:fffb7000       .debug$S                   0000000180000000     user32:USER32.dll
 0000:fffb7000       .debug$S                   0000000180000000     user32:USER32.dll
 0000:fffb7000       .debug$S                   0000000180000000     user32:USER32.dll
 0000:fffb7000       .debug$S                   0000000180000000     user32:USER32.dll
 0000:fffb7000       .debug$S                   0000000180000000     user32:USER32.dll
 0000:fffb7000       .debug$S                   0000000180000000     user32:USER32.dll
 0000:fffb7000       .debug$S                   0000000180000000     user32:USER32.dll
 0000:fffb7000       .debug$S                   0000000180000000     user32:USER32.dll
 0000:fffb7000       .debug$S                   0000000180000000     user32:USER32.dll
 0000:fffb7000       .debug$S                   0000000180000000     user32:USER32.dll
 0000:fffb7000       .debug$S                   0000000180000000     user32:USER32.dll
 0000:fffb7000       .debug$S                   0000000180000000     user32:USER32.dll
 0000:fffb7000       .debug$S                   0000000180000000     user32:USER32.dll
 0000:fffb7000       .debug$S                   0000000180000000     user32:USER32.dll
 0000:fffb7000       .debug$S                   0000000180000000     user32:USER32.dll
 0000:fffb7000       .debug$S                   0000000180000000     user32:USER32.dll
 0000:fffb7000       .debug$S                   0000000180000000     user32:USER32.dll
 0000:fffb7000       .debug$S                   0000000180000000     user32:USER32.dll
 0000:fffb7000       .debug$S                   0000000180000000     user32:USER32.dll
 0000:fffb7000       .debug$S                   0000000180000000     user32:USER32.dll
 0000:fffb7000       .debug$S                   0000000180000000     user32:USER32.dll
 0000:fffb7000       .debug$S                   0000000180000000     user32:USER32.dll
 0000:fffb7000       .debug$S                   0000000180000000     user32:USER32.dll
 0000:fffb7000       .debug$S                   0000000180000000     user32:USER32.dll
 0000:fffb7000       .debug$S                   0000000180000000     user32:USER32.dll
 0000:fffb7000       .debug$S                   0000000180000000     user32:USER32.dll
 0000:fffb7000       .debug$S                   0000000180000000     user32:USER32.dll
 0000:fffb7000       .debug$S                   0000000180000000     user32:USER32.dll
 0000:fffb7000       .debug$S                   0000000180000000     user32:USER32.dll
 0000:fffb7000       .debug$S                   0000000180000000     user32:USER32.dll
 0000:fffb7000       .debug$S                   0000000180000000     user32:USER32.dll
 0000:fffb7000       .debug$S                   0000000180000000     user32:USER32.dll
 0000:fffb7000       .debug$S                   0000000180000000     user32:USER32.dll
 0000:fffb7000       .debug$S                   0000000180000000     user32:USER32.dll
 0000:fffb7000       .debug$S                   0000000180000000     user32:USER32.dll
 0000:fffb7000       .debug$S                   0000000180000000     user32:USER32.dll
 0000:fffb7000       .debug$S                   0000000180000000     user32:USER32.dll
 0000:fffb7000       .debug$S                   0000000180000000     user32:USER32.dll
 0000:fffb7000       .debug$S                   0000000180000000     user32:USER32.dll
 0000:fffb7000       .debug$S                   0000000180000000     user32:USER32.dll
 0000:fffb7000       .debug$S                   0000000180000000     user32:USER32.dll
 0000:fffb7000       .debug$S                   0000000180000000     user32:USER32.dll
 0000:fffb7000       .debug$S                   0000000180000000     user32:USER32.dll
 0000:fffb7000       .debug$S                   0000000180000000     user32:USER32.dll
 0000:fffb7000       .debug$S                   0000000180000000     user32:USER32.dll
 0000:fffb7000       .debug$S                   0000000180000000     user32:USER32.dll
 0000:fffb7000       .debug$S                   0000000180000000     user32:USER32.dll
 0000:fffb7000       .debug$S                   0000000180000000     user32:USER32.dll
 0000:fffb7000       .debug$S                   0000000180000000     user32:USER32.dll
 0000:fffb7000       .debug$S                   0000000180000000     user32:USER32.dll
 0000:fffb7000       .debug$S                   0000000180000000     user32:USER32.dll
 0000:fffb7000       .debug$S                   0000000180000000     user32:USER32.dll
 0000:fffb7000       .debug$S                   0000000180000000     user32:USER32.dll
 0000:fffb7000       .debug$S                   0000000180000000     user32:USER32.dll
 0000:fffb7000       .debug$S                   0000000180000000     user32:USER32.dll
 0000:fffb7000       .debug$S                   0000000180000000     user32:USER32.dll
 0000:fffb7000       .debug$S                   0000000180000000     user32:USER32.dll
 0000:fffb7000       .debug$S                   0000000180000000     user32:USER32.dll
 0000:fffb7000       .debug$S                   0000000180000000     user32:USER32.dll
 0000:fffb7000       .debug$S                   0000000180000000     user32:USER32.dll
 0000:fffb7000       .debug$S                   0000000180000000     user32:USER32.dll
 0000:fffb7000       .debug$S                   0000000180000000     gdi32:GDI32.dll
 0000:fffb7000       .debug$S                   0000000180000000     gdi32:GDI32.dll
 0000:fffb7000       .debug$S                   0000000180000000     gdi32:GDI32.dll
 0000:fffb7000       .debug$S                   0000000180000000     gdi32:GDI32.dll
 0000:fffb7000       .debug$S                   0000000180000000     gdi32:GDI32.dll
 0000:fffb7000       .debug$S                   0000000180000000     gdi32:GDI32.dll
 0000:fffb7000       .debug$S                   0000000180000000     gdi32:GDI32.dll
 0000:fffb7000       .debug$S                   0000000180000000     gdi32:GDI32.dll
 0000:fffb7000       .debug$S                   0000000180000000     gdi32:GDI32.dll
 0000:fffb7000       .debug$S                   0000000180000000     OpenAL32:OpenAL32.dll
 0000:fffb7000       .debug$S                   0000000180000000     OpenAL32:OpenAL32.dll
 0000:fffb7000       .debug$S                   0000000180000000     OpenAL32:OpenAL32.dll
 0000:fffb7000       .debug$S                   0000000180000000     OpenAL32:OpenAL32.dll
 0000:fffb7000       .debug$S                   0000000180000000     OpenAL32:OpenAL32.dll
 0000:fffb7000       .debug$S                   0000000180000000     OpenAL32:OpenAL32.dll
 0000:fffb7000       .debug$S                   0000000180000000     OpenAL32:OpenAL32.dll
 0002:fffde000       .idata$6                   0000000180000000     shell32:SHELL32.dll
 0000:fffb7000       .debug$S                   0000000180000000     gdi32:GDI32.dll
 0001:00000a80       ?stb__perlin_lerp@@YAMMMM@Z 0000000180001a80 f   game.obj
 0001:00000ac0       ?stb__perlin_fastfloor@@YAHM@Z 0000000180001ac0 f   game.obj
 0001:00000b00       ?stb__perlin_grad@@YAMHMMM@Z 0000000180001b00 f   game.obj
 0001:00000bd0       ?GetKey@@YA_NHPEAUgame_state@@@Z 0000000180001bd0 f   game.obj
 0001:00000c10       ?GetKeyDown@@YA_NHPEAUgame_state@@@Z 0000000180001c10 f   game.obj
 0001:0000a780       get_proc                   000000018000b780 f   glad.obj
 0001:0000a7f0       open_gl                    000000018000b7f0 f   glad.obj
 0001:0000a860       close_gl                   000000018000b860 f   glad.obj
 0001:0000a8a0       get_exts                   000000018000b8a0 f   glad.obj
 0001:0000a970       free_exts                  000000018000b970 f   glad.obj
 0001:0000a9a0       has_ext                    000000018000b9a0 f   glad.obj
 0001:0000aad0       load_GL_VERSION_1_0        000000018000bad0 f   glad.obj
 0001:0000ae60       load_GL_VERSION_1_1        000000018000be60 f   glad.obj
 0001:0000af70       load_GL_VERSION_1_2        000000018000bf70 f   glad.obj
 0001:0000afe0       load_GL_VERSION_1_3        000000018000bfe0 f   glad.obj
 0001:0000b0b0       load_GL_VERSION_1_4        000000018000c0b0 f   glad.obj
 0001:0000b180       load_GL_VERSION_1_5        000000018000c180 f   glad.obj
 0001:0000b300       load_GL_VERSION_2_0        000000018000c300 f   glad.obj
 0001:0000b9b0       load_GL_VERSION_2_1        000000018000c9b0 f   glad.obj
 0001:0000ba40       load_GL_VERSION_3_0        000000018000ca40 f   glad.obj
 0001:0000c050       load_GL_VERSION_3_1        000000018000d050 f   glad.obj
 0001:0000c180       load_GL_VERSION_3_2        000000018000d180 f   glad.obj
 0001:0000c300       load_GL_VERSION_3_3        000000018000d300 f   glad.obj
 0001:0000c740       load_GL_VERSION_4_0        000000018000d740 f   glad.obj
 0001:0000caa0       load_GL_VERSION_4_1        000000018000daa0 f   glad.obj
 0001:0000d100       load_GL_VERSION_4_2        000000018000e100 f   glad.obj
 0001:0000d200       load_GL_VERSION_4_3        000000018000e200 f   glad.obj
 0001:0000d530       load_GL_VERSION_4_4        000000018000e530 f   glad.obj
 0001:0000d600       load_GL_VERSION_4_5        000000018000e600 f   glad.obj
 0001:0000dec0       load_GL_3DFX_tbuffer       000000018000eec0 f   glad.obj
 0001:0000df00       load_GL_AMD_debug_output   000000018000ef00 f   glad.obj
 0001:0000df70       load_GL_AMD_draw_buffers_blend 000000018000ef70 f   glad.obj
 0001:0000dfe0       load_GL_AMD_gpu_shader_int64 000000018000efe0 f   glad.obj
 0001:0000e270       load_GL_AMD_interleaved_elements 000000018000f270 f   glad.obj
 0001:0000e2b0       load_GL_AMD_multi_draw_indirect 000000018000f2b0 f   glad.obj
 0001:0000e300       load_GL_AMD_name_gen_delete 000000018000f300 f   glad.obj
 0001:0000e360       load_GL_AMD_occlusion_query_event 000000018000f360 f   glad.obj
 0001:0000e3a0       load_GL_AMD_performance_monitor 000000018000f3a0 f   glad.obj
 0001:0000e490       load_GL_AMD_sample_positions 000000018000f490 f   glad.obj
 0001:0000e4d0       load_GL_AMD_sparse_texture 000000018000f4d0 f   glad.obj
 0001:0000e520       load_GL_AMD_stencil_operation_extended 000000018000f520 f   glad.obj
 0001:0000e560       load_GL_AMD_vertex_shader_tessellator 000000018000f560 f   glad.obj
 0001:0000e5b0       load_GL_APPLE_element_array 000000018000f5b0 f   glad.obj
 0001:0000e630       load_GL_APPLE_fence        000000018000f630 f   glad.obj
 0001:0000e6f0       load_GL_APPLE_flush_buffer_range 000000018000f6f0 f   glad.obj
 0001:0000e740       load_GL_APPLE_object_purgeable 000000018000f740 f   glad.obj
 0001:0000e7a0       load_GL_APPLE_texture_range 000000018000f7a0 f   glad.obj
 0001:0000e7f0       load_GL_APPLE_vertex_array_object 000000018000f7f0 f   glad.obj
 0001:0000e860       load_GL_APPLE_vertex_array_range 000000018000f860 f   glad.obj
 0001:0000e8c0       load_GL_APPLE_vertex_program_evaluators 000000018000f8c0 f   glad.obj
 0001:0000e960       load_GL_ARB_ES2_compatibility 000000018000f960 f   glad.obj
 0001:0000e9e0       load_GL_ARB_ES3_1_compatibility 000000018000f9e0 f   glad.obj
 0001:0000ea20       load_GL_ARB_ES3_2_compatibility 000000018000fa20 f   glad.obj
 0001:0000ea60       load_GL_ARB_base_instance  000000018000fa60 f   glad.obj
 0001:0000eac0       load_GL_ARB_bindless_texture 000000018000fac0 f   glad.obj
 0001:0000ec10       load_GL_ARB_blend_func_extended 000000018000fc10 f   glad.obj
 0001:0000ec60       load_GL_ARB_buffer_storage 000000018000fc60 f   glad.obj
 0001:0000eca0       load_GL_ARB_cl_event       000000018000fca0 f   glad.obj
 0001:0000ece0       load_GL_ARB_clear_buffer_object 000000018000fce0 f   glad.obj
 0001:0000ed30       load_GL_ARB_clear_texture  000000018000fd30 f   glad.obj
 0001:0000ed80       load_GL_ARB_clip_control   000000018000fd80 f   glad.obj
 0001:0000edc0       load_GL_ARB_color_buffer_float 000000018000fdc0 f   glad.obj
 0001:0000ee00       load_GL_ARB_compute_shader 000000018000fe00 f   glad.obj
 0001:0000ee50       load_GL_ARB_compute_variable_group_size 000000018000fe50 f   glad.obj
 0001:0000ee90       load_GL_ARB_copy_buffer    000000018000fe90 f   glad.obj
 0001:0000eed0       load_GL_ARB_copy_image     000000018000fed0 f   glad.obj
 0001:0000ef10       load_GL_ARB_debug_output   000000018000ff10 f   glad.obj
 0001:0000ef80       load_GL_ARB_direct_state_access 000000018000ff80 f   glad.obj
 0001:0000f680       load_GL_ARB_draw_buffers   0000000180010680 f   glad.obj
 0001:0000f6c0       load_GL_ARB_draw_buffers_blend 00000001800106c0 f   glad.obj
 0001:0000f730       load_GL_ARB_draw_elements_base_vertex 0000000180010730 f   glad.obj
 0001:0000f7a0       load_GL_ARB_draw_indirect  00000001800107a0 f   glad.obj
 0001:0000f7f0       load_GL_ARB_draw_instanced 00000001800107f0 f   glad.obj
 0001:0000f840       load_GL_ARB_fragment_program 0000000180010840 f   glad.obj
 0001:0000f9c0       load_GL_ARB_framebuffer_no_attachments 00000001800109c0 f   glad.obj
 0001:0000fa10       load_GL_ARB_framebuffer_object 0000000180010a10 f   glad.obj
 0001:0000fba0       load_GL_ARB_geometry_shader4 0000000180010ba0 f   glad.obj
 0001:0000fc10       load_GL_ARB_get_program_binary 0000000180010c10 f   glad.obj
 0001:0000fc70       load_GL_ARB_get_texture_sub_image 0000000180010c70 f   glad.obj
 0001:0000fcc0       load_GL_ARB_gpu_shader_fp64 0000000180010cc0 f   glad.obj
 0001:0000fe30       load_GL_ARB_gpu_shader_int64 0000000180010e30 f   glad.obj
 0001:000100e0       load_GL_ARB_imaging        00000001800110e0 f   glad.obj
 0001:00010370       load_GL_ARB_indirect_parameters 0000000180011370 f   glad.obj
 0001:000103c0       load_GL_ARB_instanced_arrays 00000001800113c0 f   glad.obj
 0001:00010400       load_GL_ARB_internalformat_query 0000000180011400 f   glad.obj
 0001:00010440       load_GL_ARB_internalformat_query2 0000000180011440 f   glad.obj
 0001:00010480       load_GL_ARB_invalidate_subdata 0000000180011480 f   glad.obj
 0001:00010510       load_GL_ARB_map_buffer_range 0000000180011510 f   glad.obj
 0001:00010560       load_GL_ARB_matrix_palette 0000000180011560 f   glad.obj
 0001:000105e0       load_GL_ARB_multi_bind     00000001800115e0 f   glad.obj
 0001:00010670       load_GL_ARB_multi_draw_indirect 0000000180011670 f   glad.obj
 0001:000106c0       load_GL_ARB_multisample    00000001800116c0 f   glad.obj
 0001:00010700       load_GL_ARB_multitexture   0000000180011700 f   glad.obj
 0001:00010990       load_GL_ARB_occlusion_query 0000000180011990 f   glad.obj
 0001:00010a50       load_GL_ARB_parallel_shader_compile 0000000180011a50 f   glad.obj
 0001:00010a90       load_GL_ARB_point_parameters 0000000180011a90 f   glad.obj
 0001:00010ae0       load_GL_ARB_program_interface_query 0000000180011ae0 f   glad.obj
 0001:00010b70       load_GL_ARB_provoking_vertex 0000000180011b70 f   glad.obj
 0001:00010bb0       load_GL_ARB_robustness     0000000180011bb0 f   glad.obj
 0001:00010d40       load_GL_ARB_sample_locations 0000000180011d40 f   glad.obj
 0001:00010da0       load_GL_ARB_sample_shading 0000000180011da0 f   glad.obj
 0001:00010de0       load_GL_ARB_sampler_objects 0000000180011de0 f   glad.obj
 0001:00010f00       load_GL_ARB_separate_shader_objects 0000000180011f00 f   glad.obj
 0001:00011360       load_GL_ARB_shader_atomic_counters 0000000180012360 f   glad.obj
 0001:000113a0       load_GL_ARB_shader_image_load_store 00000001800123a0 f   glad.obj
 0001:000113f0       load_GL_ARB_shader_objects 00000001800123f0 f   glad.obj
 0001:000116d0       load_GL_ARB_shader_storage_buffer_object 00000001800126d0 f   glad.obj
 0001:00011710       load_GL_ARB_shader_subroutine 0000000180012710 f   glad.obj
 0001:000117d0       load_GL_ARB_shading_language_include 00000001800127d0 f   glad.obj
 0001:00011860       load_GL_ARB_sparse_buffer  0000000180012860 f   glad.obj
 0001:000118c0       load_GL_ARB_sparse_texture 00000001800128c0 f   glad.obj
 0001:00011900       load_GL_ARB_sync           0000000180012900 f   glad.obj
 0001:000119a0       load_GL_ARB_tessellation_shader 00000001800129a0 f   glad.obj
 0001:000119f0       load_GL_ARB_texture_barrier 00000001800129f0 f   glad.obj
 0001:00011a30       load_GL_ARB_texture_buffer_object 0000000180012a30 f   glad.obj
 0001:00011a70       load_GL_ARB_texture_buffer_range 0000000180012a70 f   glad.obj
 0001:00011ab0       load_GL_ARB_texture_compression 0000000180012ab0 f   glad.obj
 0001:00011b50       load_GL_ARB_texture_multisample 0000000180012b50 f   glad.obj
 0001:00011bc0       load_GL_ARB_texture_storage 0000000180012bc0 f   glad.obj
 0001:00011c20       load_GL_ARB_texture_storage_multisample 0000000180012c20 f   glad.obj
 0001:00011c70       load_GL_ARB_texture_view   0000000180012c70 f   glad.obj
 0001:00011cb0       load_GL_ARB_timer_query    0000000180012cb0 f   glad.obj
 0001:00011d10       load_GL_ARB_transform_feedback2 0000000180012d10 f   glad.obj
 0001:00011db0       load_GL_ARB_transform_feedback3 0000000180012db0 f   glad.obj
 0001:00011e20       load_GL_ARB_transform_feedback_instanced 0000000180012e20 f   glad.obj
 0001:00011e70       load_GL_ARB_transpose_matrix 0000000180012e70 f   glad.obj
 0001:00011ee0       load_GL_ARB_uniform_buffer_object 0000000180012ee0 f   glad.obj
 0001:00011fc0       load_GL_ARB_vertex_array_object 0000000180012fc0 f   glad.obj
 0001:00012030       load_GL_ARB_vertex_attrib_64bit 0000000180013030 f   glad.obj
 0001:00012110       load_GL_ARB_vertex_attrib_binding 0000000180013110 f   glad.obj
 0001:000121a0       load_GL_ARB_vertex_blend   00000001800131a0 f   glad.obj
 0001:00012280       load_GL_ARB_vertex_buffer_object 0000000180013280 f   glad.obj
 0001:00012370       load_GL_ARB_vertex_program 0000000180013370 f   glad.obj
 0001:000127f0       load_GL_ARB_vertex_shader  00000001800137f0 f   glad.obj
 0001:00012b50       load_GL_ARB_vertex_type_2_10_10_10_rev 0000000180013b50 f   glad.obj
 0001:00012e20       load_GL_ARB_viewport_array 0000000180013e20 f   glad.obj
 0001:00012f00       load_GL_ARB_window_pos     0000000180013f00 f   glad.obj
 0001:00013050       load_GL_ATI_draw_buffers   0000000180014050 f   glad.obj
 0001:00013090       load_GL_ATI_element_array  0000000180014090 f   glad.obj
 0001:000130f0       load_GL_ATI_envmap_bumpmap 00000001800140f0 f   glad.obj
 0001:00013160       load_GL_ATI_fragment_shader 0000000180014160 f   glad.obj
 0001:00013280       load_GL_ATI_map_object_buffer 0000000180014280 f   glad.obj
 0001:000132d0       load_GL_ATI_pn_triangles   00000001800142d0 f   glad.obj
 0001:00013320       load_GL_ATI_separate_stencil 0000000180014320 f   glad.obj
 0001:00013370       load_GL_ATI_vertex_array_object 0000000180014370 f   glad.obj
 0001:00013470       load_GL_ATI_vertex_attrib_array_object 0000000180014470 f   glad.obj
 0001:000134d0       load_GL_ATI_vertex_streams 00000001800144d0 f   glad.obj
 0001:00013820       load_GL_EXT_bindable_uniform 0000000180014820 f   glad.obj
 0001:00013880       load_GL_EXT_blend_color    0000000180014880 f   glad.obj
 0001:000138c0       load_GL_EXT_blend_equation_separate 00000001800148c0 f   glad.obj
 0001:00013900       load_GL_EXT_blend_func_separate 0000000180014900 f   glad.obj
 0001:00013940       load_GL_EXT_blend_minmax   0000000180014940 f   glad.obj
 0001:00013980       load_GL_EXT_color_subtable 0000000180014980 f   glad.obj
 0001:000139d0       load_GL_EXT_compiled_vertex_array 00000001800149d0 f   glad.obj
 0001:00013a20       load_GL_EXT_convolution    0000000180014a20 f   glad.obj
 0001:00013b30       load_GL_EXT_coordinate_frame 0000000180014b30 f   glad.obj
 0001:00013ce0       load_GL_EXT_copy_texture   0000000180014ce0 f   glad.obj
 0001:00013d60       load_GL_EXT_cull_vertex    0000000180014d60 f   glad.obj
 0001:00013db0       load_GL_EXT_debug_label    0000000180014db0 f   glad.obj
 0001:00013e00       load_GL_EXT_debug_marker   0000000180014e00 f   glad.obj
 0001:00013e60       load_GL_EXT_depth_bounds_test 0000000180014e60 f   glad.obj
 0001:00013ea0       load_GL_EXT_direct_state_access 0000000180014ea0 f   glad.obj
 0001:000150b0       load_GL_EXT_draw_buffers2  00000001800160b0 f   glad.obj
 0001:00015140       load_GL_EXT_draw_instanced 0000000180016140 f   glad.obj
 0001:00015190       load_GL_EXT_draw_range_elements 0000000180016190 f   glad.obj
 0001:000151d0       load_GL_EXT_fog_coord      00000001800161d0 f   glad.obj
 0001:00015250       load_GL_EXT_framebuffer_blit 0000000180016250 f   glad.obj
 0001:00015290       load_GL_EXT_framebuffer_multisample 0000000180016290 f   glad.obj
 0001:000152d0       load_GL_EXT_framebuffer_object 00000001800162d0 f   glad.obj
 0001:00015430       load_GL_EXT_geometry_shader4 0000000180016430 f   glad.obj
 0001:00015470       load_GL_EXT_gpu_program_parameters 0000000180016470 f   glad.obj
 0001:000154c0       load_GL_EXT_gpu_shader4    00000001800164c0 f   glad.obj
 0001:000155b0       load_GL_EXT_histogram      00000001800165b0 f   glad.obj
 0001:00015690       load_GL_EXT_index_func     0000000180016690 f   glad.obj
 0001:000156d0       load_GL_EXT_index_material 00000001800166d0 f   glad.obj
 0001:00015710       load_GL_EXT_light_texture  0000000180016710 f   glad.obj
 0001:00015770       load_GL_EXT_multi_draw_arrays 0000000180016770 f   glad.obj
 0001:000157c0       load_GL_EXT_multisample    00000001800167c0 f   glad.obj
 0001:00015810       load_GL_EXT_paletted_texture 0000000180016810 f   glad.obj
 0001:00015880       load_GL_EXT_pixel_transform 0000000180016880 f   glad.obj
 0001:00015910       load_GL_EXT_point_parameters 0000000180016910 f   glad.obj
 0001:00015960       load_GL_EXT_polygon_offset 0000000180016960 f   glad.obj
 0001:000159a0       load_GL_EXT_polygon_offset_clamp 00000001800169a0 f   glad.obj
 0001:000159e0       load_GL_EXT_provoking_vertex 00000001800169e0 f   glad.obj
 0001:00015a20       load_GL_EXT_raster_multisample 0000000180016a20 f   glad.obj
 0001:00015a60       load_GL_EXT_secondary_color 0000000180016a60 f   glad.obj
 0001:00015bc0       load_GL_EXT_separate_shader_objects 0000000180016bc0 f   glad.obj
 0001:00015f50       load_GL_EXT_shader_image_load_store 0000000180016f50 f   glad.obj
 0001:00015fa0       load_GL_EXT_stencil_clear_tag 0000000180016fa0 f   glad.obj
 0001:00015fe0       load_GL_EXT_stencil_two_side 0000000180016fe0 f   glad.obj
 0001:00016020       load_GL_EXT_subtexture     0000000180017020 f   glad.obj
 0001:00016070       load_GL_EXT_texture3D      0000000180017070 f   glad.obj
 0001:000160c0       load_GL_EXT_texture_array  00000001800170c0 f   glad.obj
 0001:00016100       load_GL_EXT_texture_buffer_object 0000000180017100 f   glad.obj
 0001:00016140       load_GL_EXT_texture_filter_minmax 0000000180017140 f   glad.obj
 0001:00016180       load_GL_EXT_texture_integer 0000000180017180 f   glad.obj
 0001:00016210       load_GL_EXT_texture_object 0000000180017210 f   glad.obj
 0001:000162a0       load_GL_EXT_texture_perturb_normal 00000001800172a0 f   glad.obj
 0001:000162e0       load_GL_EXT_timer_query    00000001800172e0 f   glad.obj
 0001:00016330       load_GL_EXT_transform_feedback 0000000180017330 f   glad.obj
 0001:000163d0       load_GL_EXT_vertex_array   00000001800173d0 f   glad.obj
 0001:000164a0       load_GL_EXT_vertex_attrib_64bit 00000001800174a0 f   glad.obj
 0001:00016580       load_GL_EXT_vertex_shader  0000000180017580 f   glad.obj
 0001:000168a0       load_GL_EXT_vertex_weighting 00000001800178a0 f   glad.obj
 0001:00016900       load_GL_EXT_window_rectangles 0000000180017900 f   glad.obj
 0001:00016940       load_GL_EXT_x11_sync_object 0000000180017940 f   glad.obj
 0001:00016980       load_GL_GREMEDY_frame_terminator 0000000180017980 f   glad.obj
 0001:000169c0       load_GL_GREMEDY_string_marker 00000001800179c0 f   glad.obj
 0001:00016a00       load_GL_HP_image_transform 0000000180017a00 f   glad.obj
 0001:00016a90       load_GL_IBM_multimode_draw_arrays 0000000180017a90 f   glad.obj
 0001:00016ae0       load_GL_IBM_static_data    0000000180017ae0 f   glad.obj
 0001:00016b20       load_GL_IBM_vertex_array_lists 0000000180017b20 f   glad.obj
 0001:00016be0       load_GL_INGR_blend_func_separate 0000000180017be0 f   glad.obj
 0001:00016c20       load_GL_INTEL_framebuffer_CMAA 0000000180017c20 f   glad.obj
 0001:00016c60       load_GL_INTEL_map_texture  0000000180017c60 f   glad.obj
 0001:00016cc0       load_GL_INTEL_parallel_arrays 0000000180017cc0 f   glad.obj
 0001:00016d30       load_GL_INTEL_performance_query 0000000180017d30 f   glad.obj
 0001:00016e10       load_GL_KHR_blend_equation_advanced 0000000180017e10 f   glad.obj
 0001:00016e50       load_GL_KHR_debug          0000000180017e50 f   glad.obj
 0001:00017000       load_GL_KHR_robustness     0000000180018000 f   glad.obj
 0001:000170e0       load_GL_MESA_resize_buffers 00000001800180e0 f   glad.obj
 0001:00017120       load_GL_MESA_window_pos    0000000180018120 f   glad.obj
 0001:00017300       load_GL_NVX_conditional_render 0000000180018300 f   glad.obj
 0001:00017350       load_GL_NV_bindless_multi_draw_indirect 0000000180018350 f   glad.obj
 0001:000173a0       load_GL_NV_bindless_multi_draw_indirect_count 00000001800183a0 f   glad.obj
 0001:000173f0       load_GL_NV_bindless_texture 00000001800183f0 f   glad.obj
 0001:00017500       load_GL_NV_blend_equation_advanced 0000000180018500 f   glad.obj
 0001:00017550       load_GL_NV_clip_space_w_scaling 0000000180018550 f   glad.obj
 0001:00017590       load_GL_NV_command_list    0000000180018590 f   glad.obj
 0001:000176f0       load_GL_NV_conditional_render 00000001800186f0 f   glad.obj
 0001:00017740       load_GL_NV_conservative_raster 0000000180018740 f   glad.obj
 0001:00017780       load_GL_NV_conservative_raster_dilate 0000000180018780 f   glad.obj
 0001:000177c0       load_GL_NV_conservative_raster_pre_snap_triangles 00000001800187c0 f   glad.obj
 0001:00017800       load_GL_NV_copy_image      0000000180018800 f   glad.obj
 0001:00017840       load_GL_NV_depth_buffer_float 0000000180018840 f   glad.obj
 0001:000178a0       load_GL_NV_draw_texture    00000001800188a0 f   glad.obj
 0001:000178e0       load_GL_NV_evaluators      00000001800188e0 f   glad.obj
 0001:000179b0       load_GL_NV_explicit_multisample 00000001800189b0 f   glad.obj
 0001:00017a10       load_GL_NV_fence           0000000180018a10 f   glad.obj
 0001:00017ab0       load_GL_NV_fragment_coverage_to_color 0000000180018ab0 f   glad.obj
 0001:00017af0       load_GL_NV_fragment_program 0000000180018af0 f   glad.obj
 0001:00017b80       load_GL_NV_framebuffer_mixed_samples 0000000180018b80 f   glad.obj
 0001:00017bf0       load_GL_NV_framebuffer_multisample_coverage 0000000180018bf0 f   glad.obj
 0001:00017c30       load_GL_NV_geometry_program4 0000000180018c30 f   glad.obj
 0001:00017ca0       load_GL_NV_gpu_program4    0000000180018ca0 f   glad.obj
 0001:00017df0       load_GL_NV_gpu_program5    0000000180018df0 f   glad.obj
 0001:00017e40       load_GL_NV_gpu_shader5     0000000180018e40 f   glad.obj
 0001:000180c0       load_GL_NV_half_float      00000001800190c0 f   glad.obj
 0001:00018420       load_GL_NV_internalformat_sample_query 0000000180019420 f   glad.obj
 0001:00018460       load_GL_NV_occlusion_query 0000000180019460 f   glad.obj
 0001:00018500       load_GL_NV_parameter_buffer_object 0000000180019500 f   glad.obj
 0001:00018560       load_GL_NV_path_rendering  0000000180019560 f   glad.obj
 0001:00018a10       load_GL_NV_pixel_data_range 0000000180019a10 f   glad.obj
 0001:00018a60       load_GL_NV_point_sprite    0000000180019a60 f   glad.obj
 0001:00018ab0       load_GL_NV_present_video   0000000180019ab0 f   glad.obj
 0001:00018b40       load_GL_NV_primitive_restart 0000000180019b40 f   glad.obj
 0001:00018b90       load_GL_NV_register_combiners 0000000180019b90 f   glad.obj
 0001:00018ca0       load_GL_NV_register_combiners2 0000000180019ca0 f   glad.obj
 0001:00018cf0       load_GL_NV_sample_locations 0000000180019cf0 f   glad.obj
 0001:00018d50       load_GL_NV_shader_buffer_load 0000000180019d50 f   glad.obj
 0001:00018e70       load_GL_NV_texture_barrier 0000000180019e70 f   glad.obj
 0001:00018eb0       load_GL_NV_texture_multisample 0000000180019eb0 f   glad.obj
 0001:00018f40       load_GL_NV_transform_feedback 0000000180019f40 f   glad.obj
 0001:00019040       load_GL_NV_transform_feedback2 000000018001a040 f   glad.obj
 0001:000190e0       load_GL_NV_vdpau_interop   000000018001a0e0 f   glad.obj
 0001:000191c0       load_GL_NV_vertex_array_range 000000018001a1c0 f   glad.obj
 0001:00019210       load_GL_NV_vertex_attrib_integer_64bit 000000018001a210 f   glad.obj
 0001:00019390       load_GL_NV_vertex_buffer_unified_memory 000000018001a390 f   glad.obj
 0001:00019490       load_GL_NV_vertex_program  000000018001a490 f   glad.obj
 0001:00019940       load_GL_NV_vertex_program4 000000018001a940 f   glad.obj
 0001:00019b00       load_GL_NV_video_capture   000000018001ab00 f   glad.obj
 0001:00019c00       load_GL_NV_viewport_swizzle 000000018001ac00 f   glad.obj
 0001:00019c40       load_GL_OES_byte_coordinates 000000018001ac40 f   glad.obj
 0001:00019df0       load_GL_OES_fixed_point    000000018001adf0 f   glad.obj
 0001:0001a5a0       load_GL_OES_query_matrix   000000018001b5a0 f   glad.obj
 0001:0001a5e0       load_GL_OES_single_precision 000000018001b5e0 f   glad.obj
 0001:0001a670       load_GL_OVR_multiview      000000018001b670 f   glad.obj
 0001:0001a6b0       load_GL_PGI_misc_hints     000000018001b6b0 f   glad.obj
 0001:0001a6f0       load_GL_SGIS_detail_texture 000000018001b6f0 f   glad.obj
 0001:0001a740       load_GL_SGIS_fog_function  000000018001b740 f   glad.obj
 0001:0001a790       load_GL_SGIS_multisample   000000018001b790 f   glad.obj
 0001:0001a7e0       load_GL_SGIS_pixel_texture 000000018001b7e0 f   glad.obj
 0001:0001a870       load_GL_SGIS_point_parameters 000000018001b870 f   glad.obj
 0001:0001a8c0       load_GL_SGIS_sharpen_texture 000000018001b8c0 f   glad.obj
 0001:0001a910       load_GL_SGIS_texture4D     000000018001b910 f   glad.obj
 0001:0001a960       load_GL_SGIS_texture_color_mask 000000018001b960 f   glad.obj
 0001:0001a9a0       load_GL_SGIS_texture_filter4 000000018001b9a0 f   glad.obj
 0001:0001a9f0       load_GL_SGIX_async         000000018001b9f0 f   glad.obj
 0001:0001aa80       load_GL_SGIX_flush_raster  000000018001ba80 f   glad.obj
 0001:0001aac0       load_GL_SGIX_fragment_lighting 000000018001bac0 f   glad.obj
 0001:0001ac30       load_GL_SGIX_framezoom     000000018001bc30 f   glad.obj
 0001:0001ac70       load_GL_SGIX_igloo_interface 000000018001bc70 f   glad.obj
 0001:0001acb0       load_GL_SGIX_instruments   000000018001bcb0 f   glad.obj
 0001:0001ad40       load_GL_SGIX_list_priority 000000018001bd40 f   glad.obj
 0001:0001add0       load_GL_SGIX_pixel_texture 000000018001bdd0 f   glad.obj
 0001:0001ae10       load_GL_SGIX_polynomial_ffd 000000018001be10 f   glad.obj
 0001:0001ae80       load_GL_SGIX_reference_plane 000000018001be80 f   glad.obj
 0001:0001aec0       load_GL_SGIX_sprite        000000018001bec0 f   glad.obj
 0001:0001af30       load_GL_SGIX_tag_sample_buffer 000000018001bf30 f   glad.obj
 0001:0001af70       load_GL_SGI_color_table    000000018001bf70 f   glad.obj
 0001:0001b010       load_GL_SUNX_constant_data 000000018001c010 f   glad.obj
 0001:0001b050       load_GL_SUN_global_alpha   000000018001c050 f   glad.obj
 0001:0001b110       load_GL_SUN_mesh_array     000000018001c110 f   glad.obj
 0001:0001b150       load_GL_SUN_triangle_list  000000018001c150 f   glad.obj
 0001:0001b1f0       load_GL_SUN_vertex         000000018001c1f0 f   glad.obj
 0001:0001b4f0       find_extensionsGL          000000018001c4f0 f   glad.obj
 0001:0001dbf0       find_coreGL                000000018001ebf0 f   glad.obj
 0001:0001e2c0       getErrorString             000000018001f2c0 f   glfw3:init.c.obj
 0001:0001e33c       $LN16                      000000018001f33c     glfw3:init.c.obj
 0001:0001e670       freeLibraries              000000018001f670 f   glfw3:win32_init.c.obj
 0001:0001ecc0       cursorInClientArea         000000018001fcc0 f   glfw3:win32_window.c.obj
 0001:0001f1b0       $$000000                   00000001800201b0     MSVCRT:_amdsecgs_.obj
 0001:0001f1e4       ?dllmain_crt_dispatch@@YAHQEAUHINSTANCE__@@KQEAX@Z 00000001800201e4 f   MSVCRT:dll_dllmain.obj
 0001:0001f234       ?dllmain_crt_process_attach@@YAHQEAUHINSTANCE__@@QEAX@Z 0000000180020234 f   MSVCRT:dll_dllmain.obj
 0001:0001f360       ?dllmain_crt_process_detach@@YAH_N@Z 0000000180020360 f   MSVCRT:dll_dllmain.obj
 0001:0001f3e4       ?dllmain_dispatch@@YAHQEAUHINSTANCE__@@KQEAX@Z 00000001800203e4 f   MSVCRT:dll_dllmain.obj
 0001:0001f4dc       ?dllmain_raw@@YAHQEAUHINSTANCE__@@KQEAX@Z 00000001800204dc f   MSVCRT:dll_dllmain.obj
 0001:0001f570       $$000000                   0000000180020570     MSVCRT:_chkstk_.obj
 0001:0001f7a4       capture_previous_context   00000001800207a4 f   MSVCRT:gs_report.obj
 0001:000201a0       $$000000                   00000001800211a0     MSVCRT:_guard_dispatch_.obj
 0001:000201c0       ?catch$0@?0???$_Buynode@AEBUpiecewise_construct_t@std@@V?$tuple@AEBH@2@V?$tuple@$$V@2@@?$_Tree_comp_alloc@V?$_Tmap_traits@HIU?$less@H@std@@V?$allocator@U?$pair@$$CBHI@std@@@2@$0A@@std@@@std@@QEAAPEAU?$_Tree_node@U?$pair@$$CBHI@std@@PEAX@1@AEBUpiecewise_construct_t@1@$$QEAV?$tuple@AEBH@1@$$QEAV?$tuple@$$V@1@@Z@4HA 00000001800211c0 f   game.obj
 0001:000201cd       __catch$??$_Buynode@AEBUpiecewise_construct_t@std@@V?$tuple@AEBH@2@V?$tuple@$$V@2@@?$_Tree_comp_alloc@V?$_Tmap_traits@HIU?$less@H@std@@V?$allocator@U?$pair@$$CBHI@std@@@2@$0A@@std@@@std@@QEAAPEAU?$_Tree_node@U?$pair@$$CBHI@std@@PEAX@1@AEBUpiecewise_construct_t@1@$$QEAV?$tuple@AEBH@1@$$QEAV?$tuple@$$V@1@@Z$0 00000001800211cd f   game.obj
 0001:00020200       ?catch$0@?0???$_Buynode@AEBUpiecewise_construct_t@std@@V?$tuple@AEBH@2@V?$tuple@$$V@2@@?$_Tree_comp_alloc@V?$_Tmap_traits@H_NU?$less@H@std@@V?$allocator@U?$pair@$$CBH_N@std@@@2@$0A@@std@@@std@@QEAAPEAU?$_Tree_node@U?$pair@$$CBH_N@std@@PEAX@1@AEBUpiecewise_construct_t@1@$$QEAV?$tuple@AEBH@1@$$QEAV?$tuple@$$V@1@@Z@4HA 0000000180021200 f   game.obj
 0001:0002020d       __catch$??$_Buynode@AEBUpiecewise_construct_t@std@@V?$tuple@AEBH@2@V?$tuple@$$V@2@@?$_Tree_comp_alloc@V?$_Tmap_traits@H_NU?$less@H@std@@V?$allocator@U?$pair@$$CBH_N@std@@@2@$0A@@std@@@std@@QEAAPEAU?$_Tree_node@U?$pair@$$CBH_N@std@@PEAX@1@AEBUpiecewise_construct_t@1@$$QEAV?$tuple@AEBH@1@$$QEAV?$tuple@$$V@1@@Z$0 000000018002120d f   game.obj
 0001:00020240       ?catch$0@?0???$_Insert_hint@AEAU?$pair@$$CBHI@std@@PEAU?$_Tree_node@U?$pair@$$CBHI@std@@PEAX@2@@?$_Tree@V?$_Tmap_traits@HIU?$less@H@std@@V?$allocator@U?$pair@$$CBHI@std@@@2@$0A@@std@@@std@@IEAA?AV?$_Tree_iterator@V?$_Tree_val@U?$_Tree_simple_types@U?$pair@$$CBHI@std@@@std@@@std@@@1@V?$_Tree_const_iterator@V?$_Tree_val@U?$_Tree_simple_types@U?$pair@$$CBHI@std@@@std@@@std@@@1@AEAU?$pair@$$CBHI@1@PEAU?$_Tree_node@U?$pair@$$CBHI@std@@PEAX@1@@Z@4HA 0000000180021240 f   game.obj
 0001:0002024d       __catch$??$_Insert_hint@AEAU?$pair@$$CBHI@std@@PEAU?$_Tree_node@U?$pair@$$CBHI@std@@PEAX@2@@?$_Tree@V?$_Tmap_traits@HIU?$less@H@std@@V?$allocator@U?$pair@$$CBHI@std@@@2@$0A@@std@@@std@@IEAA?AV?$_Tree_iterator@V?$_Tree_val@U?$_Tree_simple_types@U?$pair@$$CBHI@std@@@std@@@std@@@1@V?$_Tree_const_iterator@V?$_Tree_val@U?$_Tree_simple_types@U?$pair@$$CBHI@std@@@std@@@std@@@1@AEAU?$pair@$$CBHI@1@PEAU?$_Tree_node@U?$pair@$$CBHI@std@@PEAX@1@@Z$0 000000018002124d f   game.obj
 0001:00020280       ?catch$0@?0???$_Insert_hint@AEAU?$pair@$$CBH_N@std@@PEAU?$_Tree_node@U?$pair@$$CBH_N@std@@PEAX@2@@?$_Tree@V?$_Tmap_traits@H_NU?$less@H@std@@V?$allocator@U?$pair@$$CBH_N@std@@@2@$0A@@std@@@std@@IEAA?AV?$_Tree_iterator@V?$_Tree_val@U?$_Tree_simple_types@U?$pair@$$CBH_N@std@@@std@@@std@@@1@V?$_Tree_const_iterator@V?$_Tree_val@U?$_Tree_simple_types@U?$pair@$$CBH_N@std@@@std@@@std@@@1@AEAU?$pair@$$CBH_N@1@PEAU?$_Tree_node@U?$pair@$$CBH_N@std@@PEAX@1@@Z@4HA 0000000180021280 f   game.obj
 0001:0002028d       __catch$??$_Insert_hint@AEAU?$pair@$$CBH_N@std@@PEAU?$_Tree_node@U?$pair@$$CBH_N@std@@PEAX@2@@?$_Tree@V?$_Tmap_traits@H_NU?$less@H@std@@V?$allocator@U?$pair@$$CBH_N@std@@@2@$0A@@std@@@std@@IEAA?AV?$_Tree_iterator@V?$_Tree_val@U?$_Tree_simple_types@U?$pair@$$CBH_N@std@@@std@@@std@@@1@V?$_Tree_const_iterator@V?$_Tree_val@U?$_Tree_simple_types@U?$pair@$$CBH_N@std@@@std@@@std@@@1@AEAU?$pair@$$CBH_N@1@PEAU?$_Tree_node@U?$pair@$$CBH_N@std@@PEAX@1@@Z$0 000000018002128d f   game.obj
 0001:000202c0       ?catch$0@?0???$_Insert_nohint@AEAU?$pair@$$CBHI@std@@PEAU?$_Tree_node@U?$pair@$$CBHI@std@@PEAX@2@@?$_Tree@V?$_Tmap_traits@HIU?$less@H@std@@V?$allocator@U?$pair@$$CBHI@std@@@2@$0A@@std@@@std@@IEAA?AU?$pair@V?$_Tree_iterator@V?$_Tree_val@U?$_Tree_simple_types@U?$pair@$$CBHI@std@@@std@@@std@@@std@@_N@1@_NAEAU?$pair@$$CBHI@1@PEAU?$_Tree_node@U?$pair@$$CBHI@std@@PEAX@1@@Z@4HA 00000001800212c0 f   game.obj
 0001:000202cd       __catch$??$_Insert_nohint@AEAU?$pair@$$CBHI@std@@PEAU?$_Tree_node@U?$pair@$$CBHI@std@@PEAX@2@@?$_Tree@V?$_Tmap_traits@HIU?$less@H@std@@V?$allocator@U?$pair@$$CBHI@std@@@2@$0A@@std@@@std@@IEAA?AU?$pair@V?$_Tree_iterator@V?$_Tree_val@U?$_Tree_simple_types@U?$pair@$$CBHI@std@@@std@@@std@@@std@@_N@1@_NAEAU?$pair@$$CBHI@1@PEAU?$_Tree_node@U?$pair@$$CBHI@std@@PEAX@1@@Z$0 00000001800212cd f   game.obj
 0001:00020300       ?catch$0@?0???$_Insert_nohint@AEAU?$pair@$$CBH_N@std@@PEAU?$_Tree_node@U?$pair@$$CBH_N@std@@PEAX@2@@?$_Tree@V?$_Tmap_traits@H_NU?$less@H@std@@V?$allocator@U?$pair@$$CBH_N@std@@@2@$0A@@std@@@std@@IEAA?AU?$pair@V?$_Tree_iterator@V?$_Tree_val@U?$_Tree_simple_types@U?$pair@$$CBH_N@std@@@std@@@std@@@std@@_N@1@_NAEAU?$pair@$$CBH_N@1@PEAU?$_Tree_node@U?$pair@$$CBH_N@std@@PEAX@1@@Z@4HA 0000000180021300 f   game.obj
 0001:0002030d       __catch$??$_Insert_nohint@AEAU?$pair@$$CBH_N@std@@PEAU?$_Tree_node@U?$pair@$$CBH_N@std@@PEAX@2@@?$_Tree@V?$_Tmap_traits@H_NU?$less@H@std@@V?$allocator@U?$pair@$$CBH_N@std@@@2@$0A@@std@@@std@@IEAA?AU?$pair@V?$_Tree_iterator@V?$_Tree_val@U?$_Tree_simple_types@U?$pair@$$CBH_N@std@@@std@@@std@@@std@@_N@1@_NAEAU?$pair@$$CBH_N@1@PEAU?$_Tree_node@U?$pair@$$CBH_N@std@@PEAX@1@@Z$0 000000018002130d f   game.obj
 0001:00020340       ?dtor$0@?0???$construct@U?$pair@$$CBH_N@std@@AEBUpiecewise_construct_t@2@V?$tuple@AEBH@2@V?$tuple@$$V@2@@?$allocator@U?$_Tree_node@U?$pair@$$CBH_N@std@@PEAX@std@@@std@@QEAAXPEAU?$pair@$$CBH_N@1@AEBUpiecewise_construct_t@1@$$QEAV?$tuple@AEBH@1@$$QEAV?$tuple@$$V@1@@Z@4HA 0000000180021340 f   game.obj
 0001:00020340       ?dtor$0@?0???$construct@U?$pair@$$CBHI@std@@AEBUpiecewise_construct_t@2@V?$tuple@AEBH@2@V?$tuple@$$V@2@@?$allocator@U?$_Tree_node@U?$pair@$$CBHI@std@@PEAX@std@@@std@@QEAAXPEAU?$pair@$$CBHI@1@AEBUpiecewise_construct_t@1@$$QEAV?$tuple@AEBH@1@$$QEAV?$tuple@$$V@1@@Z@4HA 0000000180021340 f   game.obj
 0001:00020360       ?catch$0@?0??_Buynode0@?$_Tree_comp_alloc@V?$_Tmap_traits@HIU?$less@H@std@@V?$allocator@U?$pair@$$CBHI@std@@@2@$0A@@std@@@std@@QEAAPEAU?$_Tree_node@U?$pair@$$CBHI@std@@PEAX@2@XZ@4HA 0000000180021360 f   game.obj
 0001:0002036d       __catch$?_Buynode0@?$_Tree_comp_alloc@V?$_Tmap_traits@HIU?$less@H@std@@V?$allocator@U?$pair@$$CBHI@std@@@2@$0A@@std@@@std@@QEAAPEAU?$_Tree_node@U?$pair@$$CBHI@std@@PEAX@2@XZ$0 000000018002136d f   game.obj
 0001:000203b0       ?catch$0@?0??_Buynode0@?$_Tree_comp_alloc@V?$_Tmap_traits@H_NU?$less@H@std@@V?$allocator@U?$pair@$$CBH_N@std@@@2@$0A@@std@@@std@@QEAAPEAU?$_Tree_node@U?$pair@$$CBH_N@std@@PEAX@2@XZ@4HA 00000001800213b0 f   game.obj
 0001:000203bd       __catch$?_Buynode0@?$_Tree_comp_alloc@V?$_Tmap_traits@H_NU?$less@H@std@@V?$allocator@U?$pair@$$CBH_N@std@@@2@$0A@@std@@@std@@QEAAPEAU?$_Tree_node@U?$pair@$$CBH_N@std@@PEAX@2@XZ$0 00000001800213bd f   game.obj
 0001:000203f3       ?fin$0@?0??dllmain_crt_process_attach@@YAHQEAUHINSTANCE__@@QEAX@Z@4HA 00000001800213f3 f   MSVCRT:dll_dllmain.obj
 0001:0002040a       ?fin$0@?0??dllmain_crt_process_detach@@YAH_N@Z@4HA 000000018002140a f   MSVCRT:dll_dllmain.obj
 0001:00020426       ?filt$0@?0??dllmain_dispatch@@YAHQEAUHINSTANCE__@@KQEAX@Z@4HA 0000000180021426 f   MSVCRT:dll_dllmain.obj
 0001:0002045c       __scrt_is_nonwritable_in_current_image$filt$0 000000018002145c f   MSVCRT:utility.obj
 0002:00000300       $SG52256                   0000000180022300     game.obj
 0002:00000305       ?piecewise_construct@std@@3Upiecewise_construct_t@1@B 0000000180022305     game.obj
 0002:00000308       $SG51621                   0000000180022308     game.obj
 0002:0000030c       $SG35270                   000000018002230c     game.obj
 0002:00000310       $SG51626                   0000000180022310     game.obj
 0002:00000328       $SG51627                   0000000180022328     game.obj
 0002:00000360       $SG51630                   0000000180022360     game.obj
 0002:00000378       $SG51631                   0000000180022378     game.obj
 0002:000003b0       $SG51635                   00000001800223b0     game.obj
 0002:000003c8       $SG51636                   00000001800223c8     game.obj
 0002:00000400       $SG51637                   0000000180022400     game.obj
 0002:00000418       $SG51639                   0000000180022418     game.obj
 0002:00000430       $SG51640                   0000000180022430     game.obj
 0002:00000468       $SG51650                   0000000180022468     game.obj
 0002:00000488       $SG35269                   0000000180022488     game.obj
 0002:000004a8       $SG51657                   00000001800224a8     game.obj
 0002:000004c8       $SG51658                   00000001800224c8     game.obj
 0002:00000500       $SG51659                   0000000180022500     game.obj
 0002:00000518       $SG51661                   0000000180022518     game.obj
 0002:00000540       $SG51662                   0000000180022540     game.obj
 0002:00000578       $SG51664                   0000000180022578     game.obj
 0002:00000598       $SG51665                   0000000180022598     game.obj
 0002:000005d0       $SG51680                   00000001800225d0     game.obj
 0002:000005f8       $SG51681                   00000001800225f8     game.obj
 0002:00000618       $SG51682                   0000000180022618     game.obj
 0002:00000638       $SG51683                   0000000180022638     game.obj
 0002:00000658       $SG51684                   0000000180022658     game.obj
 0002:00000678       $SG51685                   0000000180022678     game.obj
 0002:00000698       $SG51086                   0000000180022698     game.obj
 0002:000006b8       $SG51087                   00000001800226b8     game.obj
 0002:000006d8       $SG51088                   00000001800226d8     game.obj
 0002:000006f8       $SG51089                   00000001800226f8     game.obj
 0002:00000720       $cppxdata$?_Buynode0@?$_Tree_comp_alloc@V?$_Tmap_traits@H_NU?$less@H@std@@V?$allocator@U?$pair@$$CBH_N@std@@@2@$0A@@std@@@std@@QEAAPEAU?$_Tree_node@U?$pair@$$CBH_N@std@@PEAX@2@XZ 0000000180022720     game.obj
 0002:00000748       $cppxdata$?begin@?$_Tree@V?$_Tmap_traits@H_NU?$less@H@std@@V?$allocator@U?$pair@$$CBH_N@std@@@2@$0A@@std@@@std@@QEAA?AV?$_Tree_iterator@V?$_Tree_val@U?$_Tree_simple_types@U?$pair@$$CBH_N@std@@@std@@@std@@@2@XZ 0000000180022748     game.obj
 0002:00000770       $cppxdata$?end@?$_Tree@V?$_Tmap_traits@H_NU?$less@H@std@@V?$allocator@U?$pair@$$CBH_N@std@@@2@$0A@@std@@@std@@QEAA?AV?$_Tree_iterator@V?$_Tree_val@U?$_Tree_simple_types@U?$pair@$$CBH_N@std@@@std@@@std@@@2@XZ 0000000180022770     game.obj
 0002:00000798       $cppxdata$?_Buynode0@?$_Tree_comp_alloc@V?$_Tmap_traits@HIU?$less@H@std@@V?$allocator@U?$pair@$$CBHI@std@@@2@$0A@@std@@@std@@QEAAPEAU?$_Tree_node@U?$pair@$$CBHI@std@@PEAX@2@XZ 0000000180022798     game.obj
 0002:000007c0       $cppxdata$?begin@?$_Tree@V?$_Tmap_traits@HIU?$less@H@std@@V?$allocator@U?$pair@$$CBHI@std@@@2@$0A@@std@@@std@@QEAA?AV?$_Tree_iterator@V?$_Tree_val@U?$_Tree_simple_types@U?$pair@$$CBHI@std@@@std@@@std@@@2@XZ 00000001800227c0     game.obj
 0002:000007e8       $cppxdata$?end@?$_Tree@V?$_Tmap_traits@HIU?$less@H@std@@V?$allocator@U?$pair@$$CBHI@std@@@2@$0A@@std@@@std@@QEAA?AV?$_Tree_iterator@V?$_Tree_val@U?$_Tree_simple_types@U?$pair@$$CBHI@std@@@std@@@std@@@2@XZ 00000001800227e8     game.obj
 0002:00000810       $cppxdata$??$forward_as_tuple@AEBH@std@@YA?AV?$tuple@AEBH@0@AEBH@Z 0000000180022810     game.obj
 0002:00000838       $cppxdata$??$_Insert_hint@AEAU?$pair@$$CBHI@std@@PEAU?$_Tree_node@U?$pair@$$CBHI@std@@PEAX@2@@?$_Tree@V?$_Tmap_traits@HIU?$less@H@std@@V?$allocator@U?$pair@$$CBHI@std@@@2@$0A@@std@@@std@@IEAA?AV?$_Tree_iterator@V?$_Tree_val@U?$_Tree_simple_types@U?$pair@$$CBHI@std@@@std@@@std@@@1@V?$_Tree_const_iterator@V?$_Tree_val@U?$_Tree_simple_types@U?$pair@$$CBHI@std@@@std@@@std@@@1@AEAU?$pair@$$CBHI@1@PEAU?$_Tree_node@U?$pair@$$CBHI@std@@PEAX@1@@Z 0000000180022838     game.obj
 0002:00000860       $cppxdata$??$_Buynode@AEBUpiecewise_construct_t@std@@V?$tuple@AEBH@2@V?$tuple@$$V@2@@?$_Tree_comp_alloc@V?$_Tmap_traits@HIU?$less@H@std@@V?$allocator@U?$pair@$$CBHI@std@@@2@$0A@@std@@@std@@QEAAPEAU?$_Tree_node@U?$pair@$$CBHI@std@@PEAX@1@AEBUpiecewise_construct_t@1@$$QEAV?$tuple@AEBH@1@$$QEAV?$tuple@$$V@1@@Z 0000000180022860     game.obj
 0002:00000888       $cppxdata$??$_Buynode@AEBUpiecewise_construct_t@std@@V?$tuple@AEBH@2@V?$tuple@$$V@2@@?$_Tree_comp_alloc@V?$_Tmap_traits@H_NU?$less@H@std@@V?$allocator@U?$pair@$$CBH_N@std@@@2@$0A@@std@@@std@@QEAAPEAU?$_Tree_node@U?$pair@$$CBH_N@std@@PEAX@1@AEBUpiecewise_construct_t@1@$$QEAV?$tuple@AEBH@1@$$QEAV?$tuple@$$V@1@@Z 0000000180022888     game.obj
 0002:000008b0       $cppxdata$??$_Insert_hint@AEAU?$pair@$$CBH_N@std@@PEAU?$_Tree_node@U?$pair@$$CBH_N@std@@PEAX@2@@?$_Tree@V?$_Tmap_traits@H_NU?$less@H@std@@V?$allocator@U?$pair@$$CBH_N@std@@@2@$0A@@std@@@std@@IEAA?AV?$_Tree_iterator@V?$_Tree_val@U?$_Tree_simple_types@U?$pair@$$CBH_N@std@@@std@@@std@@@1@V?$_Tree_const_iterator@V?$_Tree_val@U?$_Tree_simple_types@U?$pair@$$CBH_N@std@@@std@@@std@@@1@AEAU?$pair@$$CBH_N@1@PEAU?$_Tree_node@U?$pair@$$CBH_N@std@@PEAX@1@@Z 00000001800228b0     game.obj
 0002:000008d8       $cppxdata$??$_Insert_nohint@AEAU?$pair@$$CBHI@std@@PEAU?$_Tree_node@U?$pair@$$CBHI@std@@PEAX@2@@?$_Tree@V?$_Tmap_traits@HIU?$less@H@std@@V?$allocator@U?$pair@$$CBHI@std@@@2@$0A@@std@@@std@@IEAA?AU?$pair@V?$_Tree_iterator@V?$_Tree_val@U?$_Tree_simple_types@U?$pair@$$CBHI@std@@@std@@@std@@@std@@_N@1@_NAEAU?$pair@$$CBHI@1@PEAU?$_Tree_node@U?$pair@$$CBHI@std@@PEAX@1@@Z 00000001800228d8     game.obj
 0002:00000900       $cppxdata$??$_Insert_nohint@AEAU?$pair@$$CBH_N@std@@PEAU?$_Tree_node@U?$pair@$$CBH_N@std@@PEAX@2@@?$_Tree@V?$_Tmap_traits@H_NU?$less@H@std@@V?$allocator@U?$pair@$$CBH_N@std@@@2@$0A@@std@@@std@@IEAA?AU?$pair@V?$_Tree_iterator@V?$_Tree_val@U?$_Tree_simple_types@U?$pair@$$CBH_N@std@@@std@@@std@@@std@@_N@1@_NAEAU?$pair@$$CBH_N@1@PEAU?$_Tree_node@U?$pair@$$CBH_N@std@@PEAX@1@@Z 0000000180022900     game.obj
 0002:00000928       $cppxdata$??$construct@U?$pair@$$CBHI@std@@AEBUpiecewise_construct_t@2@V?$tuple@AEBH@2@V?$tuple@$$V@2@@?$allocator@U?$_Tree_node@U?$pair@$$CBHI@std@@PEAX@std@@@std@@QEAAXPEAU?$pair@$$CBHI@1@AEBUpiecewise_construct_t@1@$$QEAV?$tuple@AEBH@1@$$QEAV?$tuple@$$V@1@@Z 0000000180022928     game.obj
 0002:00000950       $cppxdata$??$construct@U?$pair@$$CBH_N@std@@AEBUpiecewise_construct_t@2@V?$tuple@AEBH@2@V?$tuple@$$V@2@@?$allocator@U?$_Tree_node@U?$pair@$$CBH_N@std@@PEAX@std@@@std@@QEAAXPEAU?$pair@$$CBH_N@1@AEBUpiecewise_construct_t@1@$$QEAV?$tuple@AEBH@1@$$QEAV?$tuple@$$V@1@@Z 0000000180022950     game.obj
 0002:00000e48       _glfwDataFormat            0000000180022e48     glfw3:win32_joystick.c.obj
 0002:00000f38       GS_ExceptionPointers       0000000180022f38     MSVCRT:gs_report.obj
 0002:00001630       $unwind$sscanf_s           0000000180023630     glad.obj
 0002:00001630       $unwind$??_H@YAXPEAX_K1P6APEAX0@Z@Z 0000000180023630     game.obj
 0002:00001630       $unwind$_vsscanf_s_l       0000000180023630     glad.obj
 0002:00001638       $unwind$?atan2@@YAMMM@Z    0000000180023638     game.obj
 0002:00001640       $unwind$?_Buynode0@?$_Tree_comp_alloc@V?$_Tmap_traits@H_NU?$less@H@std@@V?$allocator@U?$pair@$$CBH_N@std@@@2@$0A@@std@@@std@@QEAAPEAU?$_Tree_node@U?$pair@$$CBH_N@std@@PEAX@2@XZ 0000000180023640     game.obj
 0002:00001650       $stateUnwindMap$?_Buynode0@?$_Tree_comp_alloc@V?$_Tmap_traits@HIU?$less@H@std@@V?$allocator@U?$pair@$$CBHI@std@@@2@$0A@@std@@@std@@QEAAPEAU?$_Tree_node@U?$pair@$$CBHI@std@@PEAX@2@XZ 0000000180023650     game.obj
 0002:00001650       $stateUnwindMap$??$_Buynode@AEBUpiecewise_construct_t@std@@V?$tuple@AEBH@2@V?$tuple@$$V@2@@?$_Tree_comp_alloc@V?$_Tmap_traits@H_NU?$less@H@std@@V?$allocator@U?$pair@$$CBH_N@std@@@2@$0A@@std@@@std@@QEAAPEAU?$_Tree_node@U?$pair@$$CBH_N@std@@PEAX@1@AEBUpiecewise_construct_t@1@$$QEAV?$tuple@AEBH@1@$$QEAV?$tuple@$$V@1@@Z 0000000180023650     game.obj
 0002:00001650       $stateUnwindMap$??$_Buynode@AEBUpiecewise_construct_t@std@@V?$tuple@AEBH@2@V?$tuple@$$V@2@@?$_Tree_comp_alloc@V?$_Tmap_traits@HIU?$less@H@std@@V?$allocator@U?$pair@$$CBHI@std@@@2@$0A@@std@@@std@@QEAAPEAU?$_Tree_node@U?$pair@$$CBHI@std@@PEAX@1@AEBUpiecewise_construct_t@1@$$QEAV?$tuple@AEBH@1@$$QEAV?$tuple@$$V@1@@Z 0000000180023650     game.obj
 0002:00001650       $stateUnwindMap$??$_Insert_hint@AEAU?$pair@$$CBHI@std@@PEAU?$_Tree_node@U?$pair@$$CBHI@std@@PEAX@2@@?$_Tree@V?$_Tmap_traits@HIU?$less@H@std@@V?$allocator@U?$pair@$$CBHI@std@@@2@$0A@@std@@@std@@IEAA?AV?$_Tree_iterator@V?$_Tree_val@U?$_Tree_simple_types@U?$pair@$$CBHI@std@@@std@@@std@@@1@V?$_Tree_const_iterator@V?$_Tree_val@U?$_Tree_simple_types@U?$pair@$$CBHI@std@@@std@@@std@@@1@AEAU?$pair@$$CBHI@1@PEAU?$_Tree_node@U?$pair@$$CBHI@std@@PEAX@1@@Z 0000000180023650     game.obj
 0002:00001650       $stateUnwindMap$??$_Insert_hint@AEAU?$pair@$$CBH_N@std@@PEAU?$_Tree_node@U?$pair@$$CBH_N@std@@PEAX@2@@?$_Tree@V?$_Tmap_traits@H_NU?$less@H@std@@V?$allocator@U?$pair@$$CBH_N@std@@@2@$0A@@std@@@std@@IEAA?AV?$_Tree_iterator@V?$_Tree_val@U?$_Tree_simple_types@U?$pair@$$CBH_N@std@@@std@@@std@@@1@V?$_Tree_const_iterator@V?$_Tree_val@U?$_Tree_simple_types@U?$pair@$$CBH_N@std@@@std@@@std@@@1@AEAU?$pair@$$CBH_N@1@PEAU?$_Tree_node@U?$pair@$$CBH_N@std@@PEAX@1@@Z 0000000180023650     game.obj
 0002:00001650       $stateUnwindMap$??$_Insert_nohint@AEAU?$pair@$$CBHI@std@@PEAU?$_Tree_node@U?$pair@$$CBHI@std@@PEAX@2@@?$_Tree@V?$_Tmap_traits@HIU?$less@H@std@@V?$allocator@U?$pair@$$CBHI@std@@@2@$0A@@std@@@std@@IEAA?AU?$pair@V?$_Tree_iterator@V?$_Tree_val@U?$_Tree_simple_types@U?$pair@$$CBHI@std@@@std@@@std@@@std@@_N@1@_NAEAU?$pair@$$CBHI@1@PEAU?$_Tree_node@U?$pair@$$CBHI@std@@PEAX@1@@Z 0000000180023650     game.obj
 0002:00001650       $stateUnwindMap$??$_Insert_nohint@AEAU?$pair@$$CBH_N@std@@PEAU?$_Tree_node@U?$pair@$$CBH_N@std@@PEAX@2@@?$_Tree@V?$_Tmap_traits@H_NU?$less@H@std@@V?$allocator@U?$pair@$$CBH_N@std@@@2@$0A@@std@@@std@@IEAA?AU?$pair@V?$_Tree_iterator@V?$_Tree_val@U?$_Tree_simple_types@U?$pair@$$CBH_N@std@@@std@@@std@@@std@@_N@1@_NAEAU?$pair@$$CBH_N@1@PEAU?$_Tree_node@U?$pair@$$CBH_N@std@@PEAX@1@@Z 0000000180023650     game.obj
 0002:00001650       $stateUnwindMap$?_Buynode0@?$_Tree_comp_alloc@V?$_Tmap_traits@H_NU?$less@H@std@@V?$allocator@U?$pair@$$CBH_N@std@@@2@$0A@@std@@@std@@QEAAPEAU?$_Tree_node@U?$pair@$$CBH_N@std@@PEAX@2@XZ 0000000180023650     game.obj
 0002:00001660       $tryMap$?_Buynode0@?$_Tree_comp_alloc@V?$_Tmap_traits@H_NU?$less@H@std@@V?$allocator@U?$pair@$$CBH_N@std@@@2@$0A@@std@@@std@@QEAAPEAU?$_Tree_node@U?$pair@$$CBH_N@std@@PEAX@2@XZ 0000000180023660     game.obj
 0002:00001674       $handlerMap$0$?_Buynode0@?$_Tree_comp_alloc@V?$_Tmap_traits@H_NU?$less@H@std@@V?$allocator@U?$pair@$$CBH_N@std@@@2@$0A@@std@@@std@@QEAAPEAU?$_Tree_node@U?$pair@$$CBH_N@std@@PEAX@2@XZ 0000000180023674     game.obj
 0002:00001688       $ip2state$?_Buynode0@?$_Tree_comp_alloc@V?$_Tmap_traits@H_NU?$less@H@std@@V?$allocator@U?$pair@$$CBH_N@std@@@2@$0A@@std@@@std@@QEAAPEAU?$_Tree_node@U?$pair@$$CBH_N@std@@PEAX@2@XZ 0000000180023688     game.obj
 0002:000016b8       $unwind$?catch$0@?0??_Buynode0@?$_Tree_comp_alloc@V?$_Tmap_traits@H_NU?$less@H@std@@V?$allocator@U?$pair@$$CBH_N@std@@@2@$0A@@std@@@std@@QEAAPEAU?$_Tree_node@U?$pair@$$CBH_N@std@@PEAX@2@XZ@4HA 00000001800236b8     game.obj
 0002:000016c8       $unwind$?_Rrotate@?$_Tree@V?$_Tmap_traits@H_NU?$less@H@std@@V?$allocator@U?$pair@$$CBH_N@std@@@2@$0A@@std@@@std@@IEAAXPEAU?$_Tree_node@U?$pair@$$CBH_N@std@@PEAX@2@@Z 00000001800236c8     game.obj
 0002:000016c8       $unwind$?_Lrotate@?$_Tree@V?$_Tmap_traits@H_NU?$less@H@std@@V?$allocator@U?$pair@$$CBH_N@std@@@2@$0A@@std@@@std@@IEAAXPEAU?$_Tree_node@U?$pair@$$CBH_N@std@@PEAX@2@@Z 00000001800236c8     game.obj
 0002:000016c8       $unwind$?_Rrotate@?$_Tree@V?$_Tmap_traits@HIU?$less@H@std@@V?$allocator@U?$pair@$$CBHI@std@@@2@$0A@@std@@@std@@IEAAXPEAU?$_Tree_node@U?$pair@$$CBHI@std@@PEAX@2@@Z 00000001800236c8     game.obj
 0002:000016c8       $unwind$?_Lrotate@?$_Tree@V?$_Tmap_traits@HIU?$less@H@std@@V?$allocator@U?$pair@$$CBHI@std@@@2@$0A@@std@@@std@@IEAAXPEAU?$_Tree_node@U?$pair@$$CBHI@std@@PEAX@2@@Z 00000001800236c8     game.obj
 0002:000016c8       $unwind$?_Freenode0@?$_Tree_comp_alloc@V?$_Tmap_traits@HIU?$less@H@std@@V?$allocator@U?$pair@$$CBHI@std@@@2@$0A@@std@@@std@@QEAAXPEAU?$_Tree_node@U?$pair@$$CBHI@std@@PEAX@2@@Z 00000001800236c8     game.obj
 0002:000016c8       $unwind$?_Freenode0@?$_Tree_comp_alloc@V?$_Tmap_traits@H_NU?$less@H@std@@V?$allocator@U?$pair@$$CBH_N@std@@@2@$0A@@std@@@std@@QEAAXPEAU?$_Tree_node@U?$pair@$$CBH_N@std@@PEAX@2@@Z 00000001800236c8     game.obj
 0002:000016d0       $unwind$??R?$less@H@std@@QEBA_NAEBH0@Z 00000001800236d0     game.obj
 0002:000016d8       $unwind$?begin@?$_Tree@V?$_Tmap_traits@H_NU?$less@H@std@@V?$allocator@U?$pair@$$CBH_N@std@@@2@$0A@@std@@@std@@QEAA?AV?$_Tree_iterator@V?$_Tree_val@U?$_Tree_simple_types@U?$pair@$$CBH_N@std@@@std@@@std@@@2@XZ 00000001800236d8     game.obj
 0002:000016e8       $ip2state$?begin@?$_Tree@V?$_Tmap_traits@H_NU?$less@H@std@@V?$allocator@U?$pair@$$CBH_N@std@@@2@$0A@@std@@@std@@QEAA?AV?$_Tree_iterator@V?$_Tree_val@U?$_Tree_simple_types@U?$pair@$$CBH_N@std@@@std@@@std@@@2@XZ 00000001800236e8     game.obj
 0002:000016f0       $unwind$?end@?$_Tree@V?$_Tmap_traits@H_NU?$less@H@std@@V?$allocator@U?$pair@$$CBH_N@std@@@2@$0A@@std@@@std@@QEAA?AV?$_Tree_iterator@V?$_Tree_val@U?$_Tree_simple_types@U?$pair@$$CBH_N@std@@@std@@@std@@@2@XZ 00000001800236f0     game.obj
 0002:00001700       $ip2state$?end@?$_Tree@V?$_Tmap_traits@H_NU?$less@H@std@@V?$allocator@U?$pair@$$CBH_N@std@@@2@$0A@@std@@@std@@QEAA?AV?$_Tree_iterator@V?$_Tree_val@U?$_Tree_simple_types@U?$pair@$$CBH_N@std@@@std@@@std@@@2@XZ 0000000180023700     game.obj
 0002:00001708       $unwind$?lower_bound@?$_Tree@V?$_Tmap_traits@H_NU?$less@H@std@@V?$allocator@U?$pair@$$CBH_N@std@@@2@$0A@@std@@@std@@QEAA?AV?$_Tree_iterator@V?$_Tree_val@U?$_Tree_simple_types@U?$pair@$$CBH_N@std@@@std@@@std@@@2@AEBH@Z 0000000180023708     game.obj
 0002:00001708       $unwind$??$construct@PEAU?$_Tree_node@U?$pair@$$CBH_N@std@@PEAX@std@@AEAPEAU12@@?$allocator@U?$_Tree_node@U?$pair@$$CBH_N@std@@PEAX@std@@@std@@QEAAXPEAPEAU?$_Tree_node@U?$pair@$$CBH_N@std@@PEAX@1@AEAPEAU21@@Z 0000000180023708     game.obj
 0002:00001708       $unwind$??$construct@PEAU?$_Tree_node@U?$pair@$$CBHI@std@@PEAX@std@@AEAPEAU12@@?$allocator@U?$_Tree_node@U?$pair@$$CBHI@std@@PEAX@std@@@std@@QEAAXPEAPEAU?$_Tree_node@U?$pair@$$CBHI@std@@PEAX@1@AEAPEAU21@@Z 0000000180023708     game.obj
 0002:00001708       $unwind$?lower_bound@?$_Tree@V?$_Tmap_traits@HIU?$less@H@std@@V?$allocator@U?$pair@$$CBHI@std@@@2@$0A@@std@@@std@@QEAA?AV?$_Tree_iterator@V?$_Tree_val@U?$_Tree_simple_types@U?$pair@$$CBHI@std@@@std@@@std@@@2@AEBH@Z 0000000180023708     game.obj
 0002:00001710       $unwind$??$destroy@PEAU?$_Tree_node@U?$pair@$$CBHI@std@@PEAX@std@@@?$allocator_traits@V?$allocator@U?$_Tree_node@U?$pair@$$CBHI@std@@PEAX@std@@@std@@@std@@SAXAEAV?$allocator@U?$_Tree_node@U?$pair@$$CBHI@std@@PEAX@std@@@1@PEAPEAU?$_Tree_node@U?$pair@$$CBHI@std@@PEAX@1@@Z 0000000180023710     game.obj
 0002:00001710       $unwind$??$destroy@PEAU?$_Tree_node@U?$pair@$$CBH_N@std@@PEAX@std@@@?$_Wrap_alloc@V?$allocator@U?$_Tree_node@U?$pair@$$CBH_N@std@@PEAX@std@@@std@@@std@@QEAAXPEAPEAU?$_Tree_node@U?$pair@$$CBH_N@std@@PEAX@1@@Z 0000000180023710     game.obj
 0002:00001710       $unwind$?allocate@?$allocator@U?$_Tree_node@U?$pair@$$CBH_N@std@@PEAX@std@@@std@@QEAAPEAU?$_Tree_node@U?$pair@$$CBH_N@std@@PEAX@2@_K@Z 0000000180023710     game.obj
 0002:00001710       $unwind$??$destroy@U?$pair@$$CBHI@std@@@?$_Wrap_alloc@V?$allocator@U?$_Tree_node@U?$pair@$$CBHI@std@@PEAX@std@@@std@@@std@@QEAAXPEAU?$pair@$$CBHI@1@@Z 0000000180023710     game.obj
 0002:00001710       $unwind$?allocate@?$_Wrap_alloc@V?$allocator@U?$_Tree_node@U?$pair@$$CBH_N@std@@PEAX@std@@@std@@@std@@QEAAPEAU?$_Tree_node@U?$pair@$$CBH_N@std@@PEAX@2@_K@Z 0000000180023710     game.obj
 0002:00001710       $unwind$??$destroy@PEAU?$_Tree_node@U?$pair@$$CBHI@std@@PEAX@std@@@?$_Wrap_alloc@V?$allocator@U?$_Tree_node@U?$pair@$$CBHI@std@@PEAX@std@@@std@@@std@@QEAAXPEAPEAU?$_Tree_node@U?$pair@$$CBHI@std@@PEAX@1@@Z 0000000180023710     game.obj
 0002:00001710       $unwind$??$destroy@U?$pair@$$CBHI@std@@@?$allocator_traits@V?$allocator@U?$_Tree_node@U?$pair@$$CBHI@std@@PEAX@std@@@std@@@std@@SAXAEAV?$allocator@U?$_Tree_node@U?$pair@$$CBHI@std@@PEAX@std@@@1@PEAU?$pair@$$CBHI@1@@Z 0000000180023710     game.obj
 0002:00001710       $unwind$??$?0AEBH@?$_Tuple_val@AEBH@std@@QEAA@AEBH@Z 0000000180023710     game.obj
 0002:00001710       $unwind$?_Kfn@?$_Tree@V?$_Tmap_traits@HIU?$less@H@std@@V?$allocator@U?$pair@$$CBHI@std@@@2@$0A@@std@@@std@@IEBAAEBHAEBU?$pair@$$CBHI@2@@Z 0000000180023710     game.obj
 0002:00001710       $unwind$?_Key@?$_Tree@V?$_Tmap_traits@HIU?$less@H@std@@V?$allocator@U?$pair@$$CBHI@std@@@2@$0A@@std@@@std@@IEBAAEBHPEAU?$_Tree_node@U?$pair@$$CBHI@std@@PEAX@2@@Z 0000000180023710     game.obj
 0002:00001710       $unwind$??$destroy@PEAU?$_Tree_node@U?$pair@$$CBH_N@std@@PEAX@std@@@?$allocator_traits@V?$allocator@U?$_Tree_node@U?$pair@$$CBH_N@std@@PEAX@std@@@std@@@std@@SAXAEAV?$allocator@U?$_Tree_node@U?$pair@$$CBH_N@std@@PEAX@std@@@1@PEAPEAU?$_Tree_node@U?$pair@$$CBH_N@std@@PEAX@1@@Z 0000000180023710     game.obj
 0002:00001710       $unwind$??0?$tuple@AEBH@std@@QEAA@$$QEAV01@@Z 0000000180023710     game.obj
 0002:00001710       $unwind$??$destroy@U?$pair@$$CBH_N@std@@@?$allocator_traits@V?$allocator@U?$_Tree_node@U?$pair@$$CBH_N@std@@PEAX@std@@@std@@@std@@SAXAEAV?$allocator@U?$_Tree_node@U?$pair@$$CBH_N@std@@PEAX@std@@@1@PEAU?$pair@$$CBH_N@1@@Z 0000000180023710     game.obj
 0002:00001710       $unwind$?_Kfn@?$_Tree@V?$_Tmap_traits@H_NU?$less@H@std@@V?$allocator@U?$pair@$$CBH_N@std@@@2@$0A@@std@@@std@@IEBAAEBHAEBU?$pair@$$CBH_N@2@@Z 0000000180023710     game.obj
 0002:00001710       $unwind$?_Key@?$_Tree@V?$_Tmap_traits@H_NU?$less@H@std@@V?$allocator@U?$pair@$$CBH_N@std@@@2@$0A@@std@@@std@@IEBAAEBHPEAU?$_Tree_node@U?$pair@$$CBH_N@std@@PEAX@2@@Z 0000000180023710     game.obj
 0002:00001710       $unwind$?allocate@?$allocator@U?$_Tree_node@U?$pair@$$CBHI@std@@PEAX@std@@@std@@QEAAPEAU?$_Tree_node@U?$pair@$$CBHI@std@@PEAX@2@_K@Z 0000000180023710     game.obj
 0002:00001710       $unwind$??$dot@M$0A@Utvec2@glm@@@glm@@YAMAEBU?$tvec2@M$0A@@0@0@Z 0000000180023710     game.obj
 0002:00001710       $unwind$?allocate@?$_Wrap_alloc@V?$allocator@U?$_Tree_node@U?$pair@$$CBHI@std@@PEAX@std@@@std@@@std@@QEAAPEAU?$_Tree_node@U?$pair@$$CBHI@std@@PEAX@2@_K@Z 0000000180023710     game.obj
 0002:00001710       $unwind$?call@?$compute_normalize@M$0A@Utvec2@glm@@$0A@@detail@glm@@SA?AU?$tvec2@M$0A@@3@AEBU43@@Z 0000000180023710     game.obj
 0002:00001710       $unwind$??$inverse@M$0A@Utmat4x4@glm@@@glm@@YA?AU?$tmat4x4@M$0A@@0@AEBU10@@Z 0000000180023710     game.obj
 0002:00001710       $unwind$??$normalize@M$0A@Utvec2@glm@@@glm@@YA?AU?$tvec2@M$0A@@0@AEBU10@@Z 0000000180023710     game.obj
 0002:00001710       $unwind$??$destroy@U?$pair@$$CBH_N@std@@@?$_Wrap_alloc@V?$allocator@U?$_Tree_node@U?$pair@$$CBH_N@std@@PEAX@std@@@std@@@std@@QEAAXPEAU?$pair@$$CBH_N@1@@Z 0000000180023710     game.obj
 0002:00001718       $unwind$?_Buynode0@?$_Tree_comp_alloc@V?$_Tmap_traits@HIU?$less@H@std@@V?$allocator@U?$pair@$$CBHI@std@@@2@$0A@@std@@@std@@QEAAPEAU?$_Tree_node@U?$pair@$$CBHI@std@@PEAX@2@XZ 0000000180023718     game.obj
 0002:00001728       $tryMap$?_Buynode0@?$_Tree_comp_alloc@V?$_Tmap_traits@HIU?$less@H@std@@V?$allocator@U?$pair@$$CBHI@std@@@2@$0A@@std@@@std@@QEAAPEAU?$_Tree_node@U?$pair@$$CBHI@std@@PEAX@2@XZ 0000000180023728     game.obj
 0002:0000173c       $handlerMap$0$?_Buynode0@?$_Tree_comp_alloc@V?$_Tmap_traits@HIU?$less@H@std@@V?$allocator@U?$pair@$$CBHI@std@@@2@$0A@@std@@@std@@QEAAPEAU?$_Tree_node@U?$pair@$$CBHI@std@@PEAX@2@XZ 000000018002373c     game.obj
 0002:00001750       $ip2state$?_Buynode0@?$_Tree_comp_alloc@V?$_Tmap_traits@HIU?$less@H@std@@V?$allocator@U?$pair@$$CBHI@std@@@2@$0A@@std@@@std@@QEAAPEAU?$_Tree_node@U?$pair@$$CBHI@std@@PEAX@2@XZ 0000000180023750     game.obj
 0002:00001780       $unwind$?catch$0@?0??_Buynode0@?$_Tree_comp_alloc@V?$_Tmap_traits@HIU?$less@H@std@@V?$allocator@U?$pair@$$CBHI@std@@@2@$0A@@std@@@std@@QEAAPEAU?$_Tree_node@U?$pair@$$CBHI@std@@PEAX@2@XZ@4HA 0000000180023780     game.obj
 0002:00001790       $unwind$?_Myval@?$_Tree_comp_alloc@V?$_Tmap_traits@HIU?$less@H@std@@V?$allocator@U?$pair@$$CBHI@std@@@2@$0A@@std@@@std@@SAAEAU?$pair@$$CBHI@2@PEAU?$_Tree_node@U?$pair@$$CBHI@std@@PEAX@2@@Z 0000000180023790     game.obj
 0002:00001790       $unwind$?_Right@?$_Tree_comp_alloc@V?$_Tmap_traits@HIU?$less@H@std@@V?$allocator@U?$pair@$$CBHI@std@@@2@$0A@@std@@@std@@SAAEAPEAU?$_Tree_node@U?$pair@$$CBHI@std@@PEAX@2@PEAU32@@Z 0000000180023790     game.obj
 0002:00001790       $unwind$?_Getcomp@?$_Tree_comp_alloc@V?$_Tmap_traits@HIU?$less@H@std@@V?$allocator@U?$pair@$$CBHI@std@@@2@$0A@@std@@@std@@QEAAAEAU?$less@H@2@XZ 0000000180023790     game.obj
 0002:00001790       $unwind$?_Getcomp@?$_Tree_comp_alloc@V?$_Tmap_traits@HIU?$less@H@std@@V?$allocator@U?$pair@$$CBHI@std@@@2@$0A@@std@@@std@@QEBAAEBU?$less@H@2@XZ 0000000180023790     game.obj
 0002:00001790       $unwind$?_Getal@?$_Tree_comp_alloc@V?$_Tmap_traits@HIU?$less@H@std@@V?$allocator@U?$pair@$$CBHI@std@@@2@$0A@@std@@@std@@QEAAAEAU?$_Wrap_alloc@V?$allocator@U?$_Tree_node@U?$pair@$$CBHI@std@@PEAX@std@@@std@@@2@XZ 0000000180023790     game.obj
 0002:00001790       $unwind$?_Getal@?$_Tree_comp_alloc@V?$_Tmap_traits@HIU?$less@H@std@@V?$allocator@U?$pair@$$CBHI@std@@@2@$0A@@std@@@std@@QEBAAEBU?$_Wrap_alloc@V?$allocator@U?$_Tree_node@U?$pair@$$CBHI@std@@PEAX@std@@@std@@@2@XZ 0000000180023790     game.obj
 0002:00001790       $unwind$?_Get_data@?$_Tree_comp_alloc@V?$_Tmap_traits@HIU?$less@H@std@@V?$allocator@U?$pair@$$CBHI@std@@@2@$0A@@std@@@std@@QEAAAEAV?$_Tree_val@U?$_Tree_simple_types@U?$pair@$$CBHI@std@@@std@@@2@XZ 0000000180023790     game.obj
 0002:00001790       $unwind$?_Get_data@?$_Tree_comp_alloc@V?$_Tmap_traits@HIU?$less@H@std@@V?$allocator@U?$pair@$$CBHI@std@@@2@$0A@@std@@@std@@QEBAAEBV?$_Tree_val@U?$_Tree_simple_types@U?$pair@$$CBHI@std@@@std@@@2@XZ 0000000180023790     game.obj
 0002:00001790       $unwind$?_Myhead@?$_Tree_comp_alloc@V?$_Tmap_traits@HIU?$less@H@std@@V?$allocator@U?$pair@$$CBHI@std@@@2@$0A@@std@@@std@@QEAAAEAPEAU?$_Tree_node@U?$pair@$$CBHI@std@@PEAX@2@XZ 0000000180023790     game.obj
 0002:00001790       $unwind$?_Parent@?$_Tree_comp_alloc@V?$_Tmap_traits@HIU?$less@H@std@@V?$allocator@U?$pair@$$CBHI@std@@@2@$0A@@std@@@std@@SAAEAPEAU?$_Tree_node@U?$pair@$$CBHI@std@@PEAX@2@PEAU32@@Z 0000000180023790     game.obj
 0002:00001790       $unwind$??D?$_Tree_iterator@V?$_Tree_val@U?$_Tree_simple_types@U?$pair@$$CBHI@std@@@std@@@std@@@std@@QEBAAEAU?$pair@$$CBHI@1@XZ 0000000180023790     game.obj
 0002:00001790       $unwind$??C?$_Tree_iterator@V?$_Tree_val@U?$_Tree_simple_types@U?$pair@$$CBHI@std@@@std@@@std@@@std@@QEBAPEAU?$pair@$$CBHI@1@XZ 0000000180023790     game.obj
 0002:00001790       $unwind$?_Left@?$_Tree_comp_alloc@V?$_Tmap_traits@HIU?$less@H@std@@V?$allocator@U?$pair@$$CBHI@std@@@2@$0A@@std@@@std@@SAAEAPEAU?$_Tree_node@U?$pair@$$CBHI@std@@PEAX@2@PEAU32@@Z 0000000180023790     game.obj
 0002:00001790       $unwind$?_Isnil@?$_Tree_comp_alloc@V?$_Tmap_traits@HIU?$less@H@std@@V?$allocator@U?$pair@$$CBHI@std@@@2@$0A@@std@@@std@@SAAEADPEAU?$_Tree_node@U?$pair@$$CBHI@std@@PEAX@2@@Z 0000000180023790     game.obj
 0002:00001790       $unwind$??$get@$0A@AEBH@std@@YAAEBH$$QEAV?$tuple@AEBH@0@@Z 0000000180023790     game.obj
 0002:00001790       $unwind$?_Color@?$_Tree_comp_alloc@V?$_Tmap_traits@HIU?$less@H@std@@V?$allocator@U?$pair@$$CBHI@std@@@2@$0A@@std@@@std@@SAAEADPEAU?$_Tree_node@U?$pair@$$CBHI@std@@PEAX@2@@Z 0000000180023790     game.obj
 0002:00001790       $unwind$?_Myhead@?$_Tree_comp_alloc@V?$_Tmap_traits@HIU?$less@H@std@@V?$allocator@U?$pair@$$CBHI@std@@@2@$0A@@std@@@std@@QEBAAEBQEAU?$_Tree_node@U?$pair@$$CBHI@std@@PEAX@2@XZ 0000000180023790     game.obj
 0002:00001790       $unwind$?_Mysize@?$_Tree_comp_alloc@V?$_Tmap_traits@HIU?$less@H@std@@V?$allocator@U?$pair@$$CBHI@std@@@2@$0A@@std@@@std@@QEAAAEA_KXZ 0000000180023790     game.obj
 0002:00001790       $unwind$?_Mysize@?$_Tree_comp_alloc@V?$_Tmap_traits@HIU?$less@H@std@@V?$allocator@U?$pair@$$CBHI@std@@@2@$0A@@std@@@std@@QEBAAEB_KXZ 0000000180023790     game.obj
 0002:00001790       $unwind$??F?$_Tree_iterator@V?$_Tree_val@U?$_Tree_simple_types@U?$pair@$$CBHI@std@@@std@@@std@@@std@@QEAAAEAV01@XZ 0000000180023790     game.obj
 0002:00001790       $unwind$?_Lmost@?$_Tree@V?$_Tmap_traits@H_NU?$less@H@std@@V?$allocator@U?$pair@$$CBH_N@std@@@2@$0A@@std@@@std@@IEBAAEAPEAU?$_Tree_node@U?$pair@$$CBH_N@std@@PEAX@2@XZ 0000000180023790     game.obj
 0002:00001790       $unwind$?_Max@?$_Tree_val@U?$_Tree_simple_types@U?$pair@$$CBHI@std@@@std@@@std@@SAPEAU?$_Tree_node@U?$pair@$$CBHI@std@@PEAX@2@PEAU32@@Z 0000000180023790     game.obj
 0002:00001790       $unwind$?_Min@?$_Tree_val@U?$_Tree_simple_types@U?$pair@$$CBHI@std@@@std@@@std@@SAPEAU?$_Tree_node@U?$pair@$$CBHI@std@@PEAX@2@PEAU32@@Z 0000000180023790     game.obj
 0002:00001790       $unwind$??0?$_Tree_const_iterator@V?$_Tree_val@U?$_Tree_simple_types@U?$pair@$$CBH_N@std@@@std@@@std@@@std@@QEAA@XZ 0000000180023790     game.obj
 0002:00001790       $unwind$?max_size@?$allocator_traits@V?$allocator@U?$_Tree_node@U?$pair@$$CBHI@std@@PEAX@std@@@std@@@std@@SA_KAEBV?$allocator@U?$_Tree_node@U?$pair@$$CBHI@std@@PEAX@std@@@2@@Z 0000000180023790     game.obj
 0002:00001790       $unwind$??D?$_Tree_const_iterator@V?$_Tree_val@U?$_Tree_simple_types@U?$pair@$$CBH_N@std@@@std@@@std@@@std@@QEBAAEBU?$pair@$$CBH_N@1@XZ 0000000180023790     game.obj
 0002:00001790       $unwind$??E?$_Tree_const_iterator@V?$_Tree_val@U?$_Tree_simple_types@U?$pair@$$CBH_N@std@@@std@@@std@@@std@@QEAAAEAV01@XZ 0000000180023790     game.obj
 0002:00001790       $unwind$??F?$_Tree_const_iterator@V?$_Tree_val@U?$_Tree_simple_types@U?$pair@$$CBH_N@std@@@std@@@std@@@std@@QEAAAEAV01@XZ 0000000180023790     game.obj
 0002:00001790       $unwind$??D?$_Tree_iterator@V?$_Tree_val@U?$_Tree_simple_types@U?$pair@$$CBH_N@std@@@std@@@std@@@std@@QEBAAEAU?$pair@$$CBH_N@1@XZ 0000000180023790     game.obj
 0002:00001790       $unwind$?_Root@?$_Tree@V?$_Tmap_traits@H_NU?$less@H@std@@V?$allocator@U?$pair@$$CBH_N@std@@@2@$0A@@std@@@std@@IEBAAEAPEAU?$_Tree_node@U?$pair@$$CBH_N@std@@PEAX@2@XZ 0000000180023790     game.obj
 0002:00001790       $unwind$??C?$_Tree_iterator@V?$_Tree_val@U?$_Tree_simple_types@U?$pair@$$CBH_N@std@@@std@@@std@@@std@@QEBAPEAU?$pair@$$CBH_N@1@XZ 0000000180023790     game.obj
 0002:00001790       $unwind$?_Rmost@?$_Tree@V?$_Tmap_traits@H_NU?$less@H@std@@V?$allocator@U?$pair@$$CBH_N@std@@@2@$0A@@std@@@std@@IEBAAEAPEAU?$_Tree_node@U?$pair@$$CBH_N@std@@PEAX@2@XZ 0000000180023790     game.obj
 0002:00001790       $unwind$??F?$_Tree_iterator@V?$_Tree_val@U?$_Tree_simple_types@U?$pair@$$CBH_N@std@@@std@@@std@@@std@@QEAAAEAV01@XZ 0000000180023790     game.obj
 0002:00001790       $unwind$?pointer_to@?$pointer_traits@PEAU?$pair@$$CBHI@std@@@std@@SAPEAU?$pair@$$CBHI@2@AEAU32@@Z 0000000180023790     game.obj
 0002:00001790       $unwind$?pointer_to@?$pointer_traits@PEAU?$pair@$$CBH_N@std@@@std@@SAPEAU?$pair@$$CBH_N@2@AEAU32@@Z 0000000180023790     game.obj
 0002:00001790       $unwind$??$forward_as_tuple@$$V@std@@YA?AV?$tuple@$$V@0@XZ 0000000180023790     game.obj
 0002:00001790       $unwind$?size@?$_Tree@V?$_Tmap_traits@H_NU?$less@H@std@@V?$allocator@U?$pair@$$CBH_N@std@@@2@$0A@@std@@@std@@QEBA_KXZ 0000000180023790     game.obj
 0002:00001790       $unwind$?size@?$_Tree@V?$_Tmap_traits@HIU?$less@H@std@@V?$allocator@U?$pair@$$CBHI@std@@@2@$0A@@std@@@std@@QEBA_KXZ 0000000180023790     game.obj
 0002:00001790       $unwind$?_Min@?$_Tree_val@U?$_Tree_simple_types@U?$pair@$$CBH_N@std@@@std@@@std@@SAPEAU?$_Tree_node@U?$pair@$$CBH_N@std@@PEAX@2@PEAU32@@Z 0000000180023790     game.obj
 0002:00001790       $unwind$??E?$_Tree_const_iterator@V?$_Tree_val@U?$_Tree_simple_types@U?$pair@$$CBHI@std@@@std@@@std@@@std@@QEAAAEAV01@XZ 0000000180023790     game.obj
 0002:00001790       $unwind$??D?$_Tree_const_iterator@V?$_Tree_val@U?$_Tree_simple_types@U?$pair@$$CBHI@std@@@std@@@std@@@std@@QEBAAEBU?$pair@$$CBHI@1@XZ 0000000180023790     game.obj
 0002:00001790       $unwind$?_Max@?$_Tree_val@U?$_Tree_simple_types@U?$pair@$$CBH_N@std@@@std@@@std@@SAPEAU?$_Tree_node@U?$pair@$$CBH_N@std@@PEAX@2@PEAU32@@Z 0000000180023790     game.obj
 0002:00001790       $unwind$?max_size@?$allocator_traits@V?$allocator@U?$_Tree_node@U?$pair@$$CBH_N@std@@PEAX@std@@@std@@@std@@SA_KAEBV?$allocator@U?$_Tree_node@U?$pair@$$CBH_N@std@@PEAX@std@@@2@@Z 0000000180023790     game.obj
 0002:00001790       $unwind$?_Mysize@?$_Tree_comp_alloc@V?$_Tmap_traits@H_NU?$less@H@std@@V?$allocator@U?$pair@$$CBH_N@std@@@2@$0A@@std@@@std@@QEBAAEB_KXZ 0000000180023790     game.obj
 0002:00001790       $unwind$?_Mysize@?$_Tree_comp_alloc@V?$_Tmap_traits@H_NU?$less@H@std@@V?$allocator@U?$pair@$$CBH_N@std@@@2@$0A@@std@@@std@@QEAAAEA_KXZ 0000000180023790     game.obj
 0002:00001790       $unwind$?_Myhead@?$_Tree_comp_alloc@V?$_Tmap_traits@H_NU?$less@H@std@@V?$allocator@U?$pair@$$CBH_N@std@@@2@$0A@@std@@@std@@QEBAAEBQEAU?$_Tree_node@U?$pair@$$CBH_N@std@@PEAX@2@XZ 0000000180023790     game.obj
 0002:00001790       $unwind$??0?$_Tree_const_iterator@V?$_Tree_val@U?$_Tree_simple_types@U?$pair@$$CBHI@std@@@std@@@std@@@std@@QEAA@XZ 0000000180023790     game.obj
 0002:00001790       $unwind$?_Myhead@?$_Tree_comp_alloc@V?$_Tmap_traits@H_NU?$less@H@std@@V?$allocator@U?$pair@$$CBH_N@std@@@2@$0A@@std@@@std@@QEAAAEAPEAU?$_Tree_node@U?$pair@$$CBH_N@std@@PEAX@2@XZ 0000000180023790     game.obj
 0002:00001790       $unwind$?_Lmost@?$_Tree@V?$_Tmap_traits@HIU?$less@H@std@@V?$allocator@U?$pair@$$CBHI@std@@@2@$0A@@std@@@std@@IEBAAEAPEAU?$_Tree_node@U?$pair@$$CBHI@std@@PEAX@2@XZ 0000000180023790     game.obj
 0002:00001790       $unwind$?_Color@?$_Tree_comp_alloc@V?$_Tmap_traits@H_NU?$less@H@std@@V?$allocator@U?$pair@$$CBH_N@std@@@2@$0A@@std@@@std@@SAAEADPEAU?$_Tree_node@U?$pair@$$CBH_N@std@@PEAX@2@@Z 0000000180023790     game.obj
 0002:00001790       $unwind$?_Isnil@?$_Tree_comp_alloc@V?$_Tmap_traits@H_NU?$less@H@std@@V?$allocator@U?$pair@$$CBH_N@std@@@2@$0A@@std@@@std@@SAAEADPEAU?$_Tree_node@U?$pair@$$CBH_N@std@@PEAX@2@@Z 0000000180023790     game.obj
 0002:00001790       $unwind$?_Left@?$_Tree_comp_alloc@V?$_Tmap_traits@H_NU?$less@H@std@@V?$allocator@U?$pair@$$CBH_N@std@@@2@$0A@@std@@@std@@SAAEAPEAU?$_Tree_node@U?$pair@$$CBH_N@std@@PEAX@2@PEAU32@@Z 0000000180023790     game.obj
 0002:00001790       $unwind$?_Rmost@?$_Tree@V?$_Tmap_traits@HIU?$less@H@std@@V?$allocator@U?$pair@$$CBHI@std@@@2@$0A@@std@@@std@@IEBAAEAPEAU?$_Tree_node@U?$pair@$$CBHI@std@@PEAX@2@XZ 0000000180023790     game.obj
 0002:00001790       $unwind$?_Root@?$_Tree@V?$_Tmap_traits@HIU?$less@H@std@@V?$allocator@U?$pair@$$CBHI@std@@@2@$0A@@std@@@std@@IEBAAEAPEAU?$_Tree_node@U?$pair@$$CBHI@std@@PEAX@2@XZ 0000000180023790     game.obj
 0002:00001790       $unwind$?_Parent@?$_Tree_comp_alloc@V?$_Tmap_traits@H_NU?$less@H@std@@V?$allocator@U?$pair@$$CBH_N@std@@@2@$0A@@std@@@std@@SAAEAPEAU?$_Tree_node@U?$pair@$$CBH_N@std@@PEAX@2@PEAU32@@Z 0000000180023790     game.obj
 0002:00001790       $unwind$?_Right@?$_Tree_comp_alloc@V?$_Tmap_traits@H_NU?$less@H@std@@V?$allocator@U?$pair@$$CBH_N@std@@@2@$0A@@std@@@std@@SAAEAPEAU?$_Tree_node@U?$pair@$$CBH_N@std@@PEAX@2@PEAU32@@Z 0000000180023790     game.obj
 0002:00001790       $unwind$?_Myval@?$_Tree_comp_alloc@V?$_Tmap_traits@H_NU?$less@H@std@@V?$allocator@U?$pair@$$CBH_N@std@@@2@$0A@@std@@@std@@SAAEAU?$pair@$$CBH_N@2@PEAU?$_Tree_node@U?$pair@$$CBH_N@std@@PEAX@2@@Z 0000000180023790     game.obj
 0002:00001790       $unwind$?_Getcomp@?$_Tree_comp_alloc@V?$_Tmap_traits@H_NU?$less@H@std@@V?$allocator@U?$pair@$$CBH_N@std@@@2@$0A@@std@@@std@@QEAAAEAU?$less@H@2@XZ 0000000180023790     game.obj
 0002:00001790       $unwind$?_Get_data@?$_Tree_comp_alloc@V?$_Tmap_traits@H_NU?$less@H@std@@V?$allocator@U?$pair@$$CBH_N@std@@@2@$0A@@std@@@std@@QEBAAEBV?$_Tree_val@U?$_Tree_simple_types@U?$pair@$$CBH_N@std@@@std@@@2@XZ 0000000180023790     game.obj
 0002:00001790       $unwind$?_Get_data@?$_Tree_comp_alloc@V?$_Tmap_traits@H_NU?$less@H@std@@V?$allocator@U?$pair@$$CBH_N@std@@@2@$0A@@std@@@std@@QEAAAEAV?$_Tree_val@U?$_Tree_simple_types@U?$pair@$$CBH_N@std@@@std@@@2@XZ 0000000180023790     game.obj
 0002:00001790       $unwind$?_Getcomp@?$_Tree_comp_alloc@V?$_Tmap_traits@H_NU?$less@H@std@@V?$allocator@U?$pair@$$CBH_N@std@@@2@$0A@@std@@@std@@QEBAAEBU?$less@H@2@XZ 0000000180023790     game.obj
 0002:00001790       $unwind$?_Getal@?$_Tree_comp_alloc@V?$_Tmap_traits@H_NU?$less@H@std@@V?$allocator@U?$pair@$$CBH_N@std@@@2@$0A@@std@@@std@@QEAAAEAU?$_Wrap_alloc@V?$allocator@U?$_Tree_node@U?$pair@$$CBH_N@std@@PEAX@std@@@std@@@2@XZ 0000000180023790     game.obj
 0002:00001790       $unwind$?_Getal@?$_Tree_comp_alloc@V?$_Tmap_traits@H_NU?$less@H@std@@V?$allocator@U?$pair@$$CBH_N@std@@@2@$0A@@std@@@std@@QEBAAEBU?$_Wrap_alloc@V?$allocator@U?$_Tree_node@U?$pair@$$CBH_N@std@@PEAX@std@@@std@@@2@XZ 0000000180023790     game.obj
 0002:00001790       $unwind$??F?$_Tree_const_iterator@V?$_Tree_val@U?$_Tree_simple_types@U?$pair@$$CBHI@std@@@std@@@std@@@std@@QEAAAEAV01@XZ 0000000180023790     game.obj
 0002:00001798       $unwind$?begin@?$_Tree@V?$_Tmap_traits@HIU?$less@H@std@@V?$allocator@U?$pair@$$CBHI@std@@@2@$0A@@std@@@std@@QEAA?AV?$_Tree_iterator@V?$_Tree_val@U?$_Tree_simple_types@U?$pair@$$CBHI@std@@@std@@@std@@@2@XZ 0000000180023798     game.obj
 0002:000017a8       $ip2state$?begin@?$_Tree@V?$_Tmap_traits@HIU?$less@H@std@@V?$allocator@U?$pair@$$CBHI@std@@@2@$0A@@std@@@std@@QEAA?AV?$_Tree_iterator@V?$_Tree_val@U?$_Tree_simple_types@U?$pair@$$CBHI@std@@@std@@@std@@@2@XZ 00000001800237a8     game.obj
 0002:000017b0       $unwind$?end@?$_Tree@V?$_Tmap_traits@HIU?$less@H@std@@V?$allocator@U?$pair@$$CBHI@std@@@2@$0A@@std@@@std@@QEAA?AV?$_Tree_iterator@V?$_Tree_val@U?$_Tree_simple_types@U?$pair@$$CBHI@std@@@std@@@std@@@2@XZ 00000001800237b0     game.obj
 0002:000017c0       $ip2state$?end@?$_Tree@V?$_Tmap_traits@HIU?$less@H@std@@V?$allocator@U?$pair@$$CBHI@std@@@2@$0A@@std@@@std@@QEAA?AV?$_Tree_iterator@V?$_Tree_val@U?$_Tree_simple_types@U?$pair@$$CBHI@std@@@std@@@std@@@2@XZ 00000001800237c0     game.obj
 0002:000017c8       $unwind$?max_size@?$_Wrap_alloc@V?$allocator@U?$_Tree_node@U?$pair@$$CBHI@std@@PEAX@std@@@std@@@std@@QEBA_KU_Nil@2@@Z 00000001800237c8     game.obj
 0002:000017c8       $unwind$??A?$tvec4@M$0A@@glm@@QEBAAEBMH@Z 00000001800237c8     game.obj
 0002:000017c8       $unwind$??A?$tvec4@M$0A@@glm@@QEAAAEAMH@Z 00000001800237c8     game.obj
 0002:000017c8       $unwind$??A?$tvec3@M$0A@@glm@@QEBAAEBMH@Z 00000001800237c8     game.obj
 0002:000017c8       $unwind$??0?$tmat4x4@M$0A@@glm@@QEAA@W4ctor@1@@Z 00000001800237c8     game.obj
 0002:000017c8       $unwind$??A?$tmat4x4@M$0A@@glm@@QEAAAEAU?$tvec4@M$0A@@1@H@Z 00000001800237c8     game.obj
 0002:000017c8       $unwind$?max_size@?$_Wrap_alloc@V?$allocator@U?$_Tree_node@U?$pair@$$CBH_N@std@@PEAX@std@@@std@@@std@@QEBA_KU_Nil@2@@Z 00000001800237c8     game.obj
 0002:000017c8       $unwind$??A?$tmat4x4@M$0A@@glm@@QEBAAEBU?$tvec4@M$0A@@1@H@Z 00000001800237c8     game.obj
 0002:000017d0       $unwind$stb_perlin_noise3  00000001800237d0     game.obj
 0002:000017d8       $unwind$stb_perlin_ridge_noise3 00000001800237d8     game.obj
 0002:000017e0       $unwind$stb_perlin_fbm_noise3 00000001800237e0     game.obj
 0002:000017e8       $unwind$stb_perlin_turbulence_noise3 00000001800237e8     game.obj
 0002:000017f0       $unwind$?stb__perlin_fastfloor@@YAHM@Z 00000001800237f0     game.obj
 0002:000017f8       $unwind$?stb__perlin_grad@@YAMHMMM@Z 00000001800237f8     game.obj
 0002:00001800       $unwind$?GetKey@@YA_NHPEAUgame_state@@@Z 0000000180023800     game.obj
 0002:00001808       $unwind$?GetKeyDown@@YA_NHPEAUgame_state@@@Z 0000000180023808     game.obj
 0002:00001810       $unwind$?PlaySound@@YAXPEAUloaded_sound@@@Z 0000000180023810     game.obj
 0002:00001818       $unwind$?PlaySoundOnce@@YAXPEAUloaded_sound@@@Z 0000000180023818     game.obj
 0002:00001820       $unwind$?PauseSound@@YAXPEAUloaded_sound@@@Z 0000000180023820     game.obj
 0002:00001828       $unwind$?StopSound@@YAXPEAUloaded_sound@@@Z 0000000180023828     game.obj
 0002:00001830       $unwind$?ExecuteCommand@@YAXPEAUgame_state@@@Z 0000000180023830     game.obj
 0002:00001838       $unwind$Update             0000000180023838     game.obj
 0002:0000184c       $unwind$??0?$tmat4x4@M$0A@@glm@@QEAA@AEBM@Z 000000018002384c     game.obj
 0002:00001858       $unwind$??0?$tmat4x4@M$0A@@glm@@QEAA@AEBU?$tvec4@M$0A@@1@000@Z 0000000180023858     game.obj
 0002:00001864       $unwind$??8?$_Tree_const_iterator@V?$_Tree_val@U?$_Tree_simple_types@U?$pair@$$CBH_N@std@@@std@@@std@@@std@@QEBA_NAEBV01@@Z 0000000180023864     game.obj
 0002:00001864       $unwind$??8?$_Tree_const_iterator@V?$_Tree_val@U?$_Tree_simple_types@U?$pair@$$CBHI@std@@@std@@@std@@@std@@QEBA_NAEBV01@@Z 0000000180023864     game.obj
 0002:0000186c       $unwind$??$unProject@MM$0A@@glm@@YA?AU?$tvec3@M$0A@@0@AEBU10@AEBU?$tmat4x4@M$0A@@0@1AEBU?$tvec4@M$0A@@0@@Z 000000018002386c     game.obj
 0002:00001880       $unwind$??$ortho@M@glm@@YA?AU?$tmat4x4@M$0A@@0@MMMMMM@Z 0000000180023880     game.obj
 0002:00001888       $unwind$??$translate@M$0A@@glm@@YA?AU?$tmat4x4@M$0A@@0@AEBU10@AEBU?$tvec3@M$0A@@0@@Z 0000000180023888     game.obj
 0002:0000189c       $unwind$??E?$_Tree_unchecked_const_iterator@V?$_Tree_val@U?$_Tree_simple_types@U?$pair@$$CBHI@std@@@std@@@std@@U_Iterator_base0@2@@std@@QEAAAEAV01@XZ 000000018002389c     game.obj
 0002:0000189c       $unwind$??E?$_Tree_unchecked_const_iterator@V?$_Tree_val@U?$_Tree_simple_types@U?$pair@$$CBH_N@std@@@std@@@std@@U_Iterator_base0@2@@std@@QEAAAEAV01@XZ 000000018002389c     game.obj
 0002:0000189c       $unwind$__report_gsfailure 000000018002389c     MSVCRT:gs_report.obj
 0002:0000189c       $unwind$?max_size@?$_Tree@V?$_Tmap_traits@H_NU?$less@H@std@@V?$allocator@U?$pair@$$CBH_N@std@@@2@$0A@@std@@@std@@QEBA_KXZ 000000018002389c     game.obj
 0002:0000189c       $unwind$??F?$_Tree_unchecked_const_iterator@V?$_Tree_val@U?$_Tree_simple_types@U?$pair@$$CBHI@std@@@std@@@std@@U_Iterator_base0@2@@std@@QEAAAEAV01@XZ 000000018002389c     game.obj
 0002:0000189c       $unwind$??F?$_Tree_unchecked_const_iterator@V?$_Tree_val@U?$_Tree_simple_types@U?$pair@$$CBH_N@std@@@std@@@std@@U_Iterator_base0@2@@std@@QEAAAEAV01@XZ 000000018002389c     game.obj
 0002:0000189c       $unwind$?max_size@?$_Tree@V?$_Tmap_traits@HIU?$less@H@std@@V?$allocator@U?$pair@$$CBHI@std@@@2@$0A@@std@@@std@@QEBA_KXZ 000000018002389c     game.obj
 0002:000018a4       $unwind$??$?DM$0A@@glm@@YA?AU?$tmat4x4@M$0A@@0@AEBU10@0@Z 00000001800238a4     game.obj
 0002:000018b8       $unwind$??$?DM$0A@@glm@@YA?AU?$tvec4@M$0A@@0@AEBU?$tmat4x4@M$0A@@0@AEBU10@@Z 00000001800238b8     game.obj
 0002:000018c4       $unwind$??$?DM$0A@@glm@@YA?AU?$tvec4@M$0A@@0@AEBU10@M@Z 00000001800238c4     game.obj
 0002:000018c4       $unwind$??$?GM$0A@@glm@@YA?AU?$tvec4@M$0A@@0@AEBU10@M@Z 00000001800238c4     game.obj
 0002:000018d0       $unwind$??$?_0M@?$tvec4@M$0A@@glm@@QEAAAEAU01@M@Z 00000001800238d0     game.obj
 0002:000018d0       $unwind$??$?XM@?$tvec4@M$0A@@glm@@QEAAAEAU01@M@Z 00000001800238d0     game.obj
 0002:000018d0       $unwind$??$?ZM@?$tvec4@M$0A@@glm@@QEAAAEAU01@M@Z 00000001800238d0     game.obj
 0002:000018dc       $unwind$??$orthoRH@M@glm@@YA?AU?$tmat4x4@M$0A@@0@MMMMMM@Z 00000001800238dc     game.obj
 0002:000018f0       $unwind$??$?GM$0A@@glm@@YA?AU?$tvec4@M$0A@@0@AEBU10@0@Z 00000001800238f0     game.obj
 0002:000018f0       $unwind$??$?DM$0A@@glm@@YA?AU?$tvec4@M$0A@@0@AEBU10@0@Z 00000001800238f0     game.obj
 0002:000018f0       $unwind$??$?HM$0A@@glm@@YA?AU?$tvec4@M$0A@@0@AEBU10@0@Z 00000001800238f0     game.obj
 0002:000018fc       $unwind$??$_Try_emplace@AEBH$$V@?$map@HIU?$less@H@std@@V?$allocator@U?$pair@$$CBHI@std@@@2@@std@@QEAA?AU?$pair@V?$_Tree_iterator@V?$_Tree_val@U?$_Tree_simple_types@U?$pair@$$CBHI@std@@@std@@@std@@@std@@_N@1@AEBH@Z 00000001800238fc     game.obj
 0002:000018fc       $unwind$??$_Try_emplace@AEBH$$V@?$map@H_NU?$less@H@std@@V?$allocator@U?$pair@$$CBH_N@std@@@2@@std@@QEAA?AU?$pair@V?$_Tree_iterator@V?$_Tree_val@U?$_Tree_simple_types@U?$pair@$$CBH_N@std@@@std@@@std@@@std@@_N@1@AEBH@Z 00000001800238fc     game.obj
 0002:00001904       $unwind$??$inversesqrt@M@glm@@YAMM@Z 0000000180023904     game.obj
 0002:00001904       $unwind$?sqrt@@YAMM@Z      0000000180023904     game.obj
 0002:0000190c       $unwind$??$?DM$0A@@glm@@YA?AU?$tvec2@M$0A@@0@AEBU10@M@Z 000000018002390c     game.obj
 0002:00001914       $unwind$?call@?$compute_inverse@Utmat4x4@glm@@M$0A@$0A@@detail@glm@@SA?AU?$tmat4x4@M$0A@@3@AEBU43@@Z 0000000180023914     game.obj
 0002:00001924       $unwind$?call@?$compute_vec4_mul@M$0A@$0A@@detail@glm@@SA?AU?$tvec4@M$0A@@3@AEBU43@0@Z 0000000180023924     game.obj
 0002:00001924       $unwind$?call@?$compute_vec4_sub@M$0A@$0A@@detail@glm@@SA?AU?$tvec4@M$0A@@3@AEBU43@0@Z 0000000180023924     game.obj
 0002:00001924       $unwind$?call@?$compute_vec4_div@M$0A@$0A@@detail@glm@@SA?AU?$tvec4@M$0A@@3@AEBU43@0@Z 0000000180023924     game.obj
 0002:00001924       $unwind$?call@?$compute_vec4_add@M$0A@$0A@@detail@glm@@SA?AU?$tvec4@M$0A@@3@AEBU43@0@Z 0000000180023924     game.obj
 0002:00001924       $unwind$?_Deallocate@std@@YAXPEAX_K1@Z 0000000180023924     game.obj
 0002:00001924       $unwind$?_Allocate@std@@YAPEAX_K0_N@Z 0000000180023924     game.obj
 0002:0000192c       $unwind$??$?XM@?$tvec4@M$0A@@glm@@QEAAAEAU01@AEBU01@@Z 000000018002392c     game.obj
 0002:0000192c       $unwind$??$?ZM@?$tvec4@M$0A@@glm@@QEAAAEAU01@AEBU01@@Z 000000018002392c     game.obj
 0002:0000192c       $unwind$??$?YM@?$tvec4@M$0A@@glm@@QEAAAEAU01@AEBU01@@Z 000000018002392c     game.obj
 0002:00001938       $unwind$??$forward_as_tuple@AEBH@std@@YA?AV?$tuple@AEBH@0@AEBH@Z 0000000180023938     game.obj
 0002:00001948       $ip2state$??$forward_as_tuple@AEBH@std@@YA?AV?$tuple@AEBH@0@AEBH@Z 0000000180023948     game.obj
 0002:00001950       $unwind$?_Compare@?$_Tree@V?$_Tmap_traits@H_NU?$less@H@std@@V?$allocator@U?$pair@$$CBH_N@std@@@2@$0A@@std@@@std@@IEBA_NAEBH0@Z 0000000180023950     game.obj
 0002:00001950       $unwind$??$?0AEAV?$_Tree_iterator@V?$_Tree_val@U?$_Tree_simple_types@U?$pair@$$CBHI@std@@@std@@@std@@@std@@_NX$0A@@?$pair@V?$_Tree_iterator@V?$_Tree_val@U?$_Tree_simple_types@U?$pair@$$CBHI@std@@@std@@@std@@@std@@_N@std@@QEAA@AEAV?$_Tree_iterator@V?$_Tree_val@U?$_Tree_simple_types@U?$pair@$$CBHI@std@@@std@@@std@@@1@$$QEA_N@Z 0000000180023950     game.obj
 0002:00001950       $unwind$vsscanf_s          0000000180023950     glad.obj
 0002:00001950       $unwind$??$?DM$0A@@glm@@YA?AU?$tvec2@M$0A@@0@AEBU10@0@Z 0000000180023950     game.obj
 0002:00001950       $unwind$??$?0V?$_Tree_iterator@V?$_Tree_val@U?$_Tree_simple_types@U?$pair@$$CBHI@std@@@std@@@std@@@std@@_NX$0A@@?$pair@V?$_Tree_iterator@V?$_Tree_val@U?$_Tree_simple_types@U?$pair@$$CBHI@std@@@std@@@std@@@std@@_N@std@@QEAA@$$QEAV?$_Tree_iterator@V?$_Tree_val@U?$_Tree_simple_types@U?$pair@$$CBHI@std@@@std@@@std@@@1@$$QEA_N@Z 0000000180023950     game.obj
 0002:00001950       $unwind$??$?0V?$_Tree_iterator@V?$_Tree_val@U?$_Tree_simple_types@U?$pair@$$CBH_N@std@@@std@@@std@@@std@@_NX$0A@@?$pair@V?$_Tree_iterator@V?$_Tree_val@U?$_Tree_simple_types@U?$pair@$$CBH_N@std@@@std@@@std@@@std@@_N@std@@QEAA@$$QEAV?$_Tree_iterator@V?$_Tree_val@U?$_Tree_simple_types@U?$pair@$$CBH_N@std@@@std@@@std@@@1@$$QEA_N@Z 0000000180023950     game.obj
 0002:00001950       $unwind$??0?$_Tree_unchecked_const_iterator@V?$_Tree_val@U?$_Tree_simple_types@U?$pair@$$CBHI@std@@@std@@@std@@U_Iterator_base0@2@@std@@QEAA@PEAU?$_Tree_node@U?$pair@$$CBHI@std@@PEAX@1@PEBV?$_Tree_val@U?$_Tree_simple_types@U?$pair@$$CBHI@std@@@std@@@1@@Z 0000000180023950     game.obj
 0002:00001950       $unwind$??$construct@PEAU?$_Tree_node@U?$pair@$$CBH_N@std@@PEAX@std@@AEAPEAU12@@?$_Wrap_alloc@V?$allocator@U?$_Tree_node@U?$pair@$$CBH_N@std@@PEAX@std@@@std@@@std@@QEAAXPEAPEAU?$_Tree_node@U?$pair@$$CBH_N@std@@PEAX@1@AEAPEAU21@@Z 0000000180023950     game.obj
 0002:00001950       $unwind$??0?$_Tree_iterator@V?$_Tree_val@U?$_Tree_simple_types@U?$pair@$$CBH_N@std@@@std@@@std@@@std@@QEAA@PEAU?$_Tree_node@U?$pair@$$CBH_N@std@@PEAX@1@PEBV?$_Tree_val@U?$_Tree_simple_types@U?$pair@$$CBH_N@std@@@std@@@1@@Z 0000000180023950     game.obj
 0002:00001950       $unwind$?deallocate@?$_Wrap_alloc@V?$allocator@U?$_Tree_node@U?$pair@$$CBH_N@std@@PEAX@std@@@std@@@std@@QEAAXPEAU?$_Tree_node@U?$pair@$$CBH_N@std@@PEAX@2@_K@Z 0000000180023950     game.obj
 0002:00001950       $unwind$??0?$_Tree_const_iterator@V?$_Tree_val@U?$_Tree_simple_types@U?$pair@$$CBHI@std@@@std@@@std@@@std@@QEAA@PEAU?$_Tree_node@U?$pair@$$CBHI@std@@PEAX@1@PEBV?$_Tree_val@U?$_Tree_simple_types@U?$pair@$$CBHI@std@@@std@@@1@@Z 0000000180023950     game.obj
 0002:00001950       $unwind$??0?$_Tree_iterator@V?$_Tree_val@U?$_Tree_simple_types@U?$pair@$$CBHI@std@@@std@@@std@@@std@@QEAA@PEAU?$_Tree_node@U?$pair@$$CBHI@std@@PEAX@1@PEBV?$_Tree_val@U?$_Tree_simple_types@U?$pair@$$CBHI@std@@@std@@@1@@Z 0000000180023950     game.obj
 0002:00001950       $unwind$?deallocate@?$allocator@U?$_Tree_node@U?$pair@$$CBHI@std@@PEAX@std@@@std@@QEAAXPEAU?$_Tree_node@U?$pair@$$CBHI@std@@PEAX@2@_K@Z 0000000180023950     game.obj
 0002:00001950       $unwind$??0?$_Tree_const_iterator@V?$_Tree_val@U?$_Tree_simple_types@U?$pair@$$CBH_N@std@@@std@@@std@@@std@@QEAA@PEAU?$_Tree_node@U?$pair@$$CBH_N@std@@PEAX@1@PEBV?$_Tree_val@U?$_Tree_simple_types@U?$pair@$$CBH_N@std@@@std@@@1@@Z 0000000180023950     game.obj
 0002:00001950       $unwind$??$construct@PEAU?$_Tree_node@U?$pair@$$CBHI@std@@PEAX@std@@AEAPEAU12@@?$allocator_traits@V?$allocator@U?$_Tree_node@U?$pair@$$CBHI@std@@PEAX@std@@@std@@@std@@SAXAEAV?$allocator@U?$_Tree_node@U?$pair@$$CBHI@std@@PEAX@std@@@1@PEAPEAU?$_Tree_node@U?$pair@$$CBHI@std@@PEAX@1@AEAPEAU31@@Z 0000000180023950     game.obj
 0002:00001950       $unwind$??$construct@PEAU?$_Tree_node@U?$pair@$$CBH_N@std@@PEAX@std@@AEAPEAU12@@?$allocator_traits@V?$allocator@U?$_Tree_node@U?$pair@$$CBH_N@std@@PEAX@std@@@std@@@std@@SAXAEAV?$allocator@U?$_Tree_node@U?$pair@$$CBH_N@std@@PEAX@std@@@1@PEAPEAU?$_Tree_node@U?$pair@$$CBH_N@std@@PEAX@1@AEAPEAU31@@Z 0000000180023950     game.obj
 0002:00001950       $unwind$??$?0AEAV?$_Tree_iterator@V?$_Tree_val@U?$_Tree_simple_types@U?$pair@$$CBH_N@std@@@std@@@std@@@std@@_NX$0A@@?$pair@V?$_Tree_iterator@V?$_Tree_val@U?$_Tree_simple_types@U?$pair@$$CBH_N@std@@@std@@@std@@@std@@_N@std@@QEAA@AEAV?$_Tree_iterator@V?$_Tree_val@U?$_Tree_simple_types@U?$pair@$$CBH_N@std@@@std@@@std@@@1@$$QEA_N@Z 0000000180023950     game.obj
 0002:00001950       $unwind$??0?$_Tree_unchecked_const_iterator@V?$_Tree_val@U?$_Tree_simple_types@U?$pair@$$CBH_N@std@@@std@@@std@@U_Iterator_base0@2@@std@@QEAA@PEAU?$_Tree_node@U?$pair@$$CBH_N@std@@PEAX@1@PEBV?$_Tree_val@U?$_Tree_simple_types@U?$pair@$$CBH_N@std@@@std@@@1@@Z 0000000180023950     game.obj
 0002:00001950       $unwind$??$try_emplace@$$V@?$map@H_NU?$less@H@std@@V?$allocator@U?$pair@$$CBH_N@std@@@2@@std@@QEAA?AU?$pair@V?$_Tree_iterator@V?$_Tree_val@U?$_Tree_simple_types@U?$pair@$$CBH_N@std@@@std@@@std@@@std@@_N@1@AEBH@Z 0000000180023950     game.obj
 0002:00001950       $unwind$??$try_emplace@$$V@?$map@HIU?$less@H@std@@V?$allocator@U?$pair@$$CBHI@std@@@2@@std@@QEAA?AU?$pair@V?$_Tree_iterator@V?$_Tree_val@U?$_Tree_simple_types@U?$pair@$$CBHI@std@@@std@@@std@@@std@@_N@1@AEBH@Z 0000000180023950     game.obj
 0002:00001950       $unwind$??$construct@PEAU?$_Tree_node@U?$pair@$$CBHI@std@@PEAX@std@@AEAPEAU12@@?$_Wrap_alloc@V?$allocator@U?$_Tree_node@U?$pair@$$CBHI@std@@PEAX@std@@@std@@@std@@QEAAXPEAPEAU?$_Tree_node@U?$pair@$$CBHI@std@@PEAX@1@AEAPEAU21@@Z 0000000180023950     game.obj
 0002:00001950       $unwind$?deallocate@?$allocator@U?$_Tree_node@U?$pair@$$CBH_N@std@@PEAX@std@@@std@@QEAAXPEAU?$_Tree_node@U?$pair@$$CBH_N@std@@PEAX@2@_K@Z 0000000180023950     game.obj
 0002:00001950       $unwind$?deallocate@?$_Wrap_alloc@V?$allocator@U?$_Tree_node@U?$pair@$$CBHI@std@@PEAX@std@@@std@@@std@@QEAAXPEAU?$_Tree_node@U?$pair@$$CBHI@std@@PEAX@2@_K@Z 0000000180023950     game.obj
 0002:00001950       $unwind$??$?GM$0A@@glm@@YA?AU?$tvec2@M$0A@@0@AEBU10@0@Z 0000000180023950     game.obj
 0002:00001950       $unwind$?_Compare@?$_Tree@V?$_Tmap_traits@HIU?$less@H@std@@V?$allocator@U?$pair@$$CBHI@std@@@2@$0A@@std@@@std@@IEBA_NAEBH0@Z 0000000180023950     game.obj
 0002:00001958       $unwind$??$?DM$0A@@glm@@YA?AU?$tmat4x4@M$0A@@0@AEBU10@AEBM@Z 0000000180023958     game.obj
 0002:00001960       $unwind$?call@?$compute_dot@Utvec2@glm@@M$0A@$0A@@detail@glm@@SAMAEBU?$tvec2@M$0A@@3@0@Z 0000000180023960     game.obj
 0002:00001960       $unwind$?_Destroy_if_not_nil@?$_Tree@V?$_Tmap_traits@H_NU?$less@H@std@@V?$allocator@U?$pair@$$CBH_N@std@@@2@$0A@@std@@@std@@IEAAXPEAU?$_Tree_node@U?$pair@$$CBH_N@std@@PEAX@2@@Z 0000000180023960     game.obj
 0002:00001960       $unwind$??A?$map@HIU?$less@H@std@@V?$allocator@U?$pair@$$CBHI@std@@@2@@std@@QEAAAEAIAEBH@Z 0000000180023960     game.obj
 0002:00001960       $unwind$??A?$map@H_NU?$less@H@std@@V?$allocator@U?$pair@$$CBH_N@std@@@2@@std@@QEAAAEA_NAEBH@Z 0000000180023960     game.obj
 0002:00001960       $unwind$??$_Lbound@H@?$_Tree@V?$_Tmap_traits@H_NU?$less@H@std@@V?$allocator@U?$pair@$$CBH_N@std@@@2@$0A@@std@@@std@@IEBAPEAU?$_Tree_node@U?$pair@$$CBH_N@std@@PEAX@1@AEBH@Z 0000000180023960     game.obj
 0002:00001960       $unwind$??$_Lbound@H@?$_Tree@V?$_Tmap_traits@HIU?$less@H@std@@V?$allocator@U?$pair@$$CBHI@std@@@2@$0A@@std@@@std@@IEBAPEAU?$_Tree_node@U?$pair@$$CBHI@std@@PEAX@1@AEBH@Z 0000000180023960     game.obj
 0002:00001960       $unwind$?_Destroy_if_not_nil@?$_Tree@V?$_Tmap_traits@HIU?$less@H@std@@V?$allocator@U?$pair@$$CBHI@std@@@2@$0A@@std@@@std@@IEAAXPEAU?$_Tree_node@U?$pair@$$CBHI@std@@PEAX@2@@Z 0000000180023960     game.obj
 0002:00001968       $unwind$??$_Insert_hint@AEAU?$pair@$$CBHI@std@@PEAU?$_Tree_node@U?$pair@$$CBHI@std@@PEAX@2@@?$_Tree@V?$_Tmap_traits@HIU?$less@H@std@@V?$allocator@U?$pair@$$CBHI@std@@@2@$0A@@std@@@std@@IEAA?AV?$_Tree_iterator@V?$_Tree_val@U?$_Tree_simple_types@U?$pair@$$CBHI@std@@@std@@@std@@@1@V?$_Tree_const_iterator@V?$_Tree_val@U?$_Tree_simple_types@U?$pair@$$CBHI@std@@@std@@@std@@@1@AEAU?$pair@$$CBHI@1@PEAU?$_Tree_node@U?$pair@$$CBHI@std@@PEAX@1@@Z 0000000180023968     game.obj
 0002:00001978       $tryMap$??$_Insert_hint@AEAU?$pair@$$CBHI@std@@PEAU?$_Tree_node@U?$pair@$$CBHI@std@@PEAX@2@@?$_Tree@V?$_Tmap_traits@HIU?$less@H@std@@V?$allocator@U?$pair@$$CBHI@std@@@2@$0A@@std@@@std@@IEAA?AV?$_Tree_iterator@V?$_Tree_val@U?$_Tree_simple_types@U?$pair@$$CBHI@std@@@std@@@std@@@1@V?$_Tree_const_iterator@V?$_Tree_val@U?$_Tree_simple_types@U?$pair@$$CBHI@std@@@std@@@std@@@1@AEAU?$pair@$$CBHI@1@PEAU?$_Tree_node@U?$pair@$$CBHI@std@@PEAX@1@@Z 0000000180023978     game.obj
 0002:0000198c       $handlerMap$0$??$_Insert_hint@AEAU?$pair@$$CBHI@std@@PEAU?$_Tree_node@U?$pair@$$CBHI@std@@PEAX@2@@?$_Tree@V?$_Tmap_traits@HIU?$less@H@std@@V?$allocator@U?$pair@$$CBHI@std@@@2@$0A@@std@@@std@@IEAA?AV?$_Tree_iterator@V?$_Tree_val@U?$_Tree_simple_types@U?$pair@$$CBHI@std@@@std@@@std@@@1@V?$_Tree_const_iterator@V?$_Tree_val@U?$_Tree_simple_types@U?$pair@$$CBHI@std@@@std@@@std@@@1@AEAU?$pair@$$CBHI@1@PEAU?$_Tree_node@U?$pair@$$CBHI@std@@PEAX@1@@Z 000000018002398c     game.obj
 0002:000019a0       $ip2state$??$_Insert_hint@AEAU?$pair@$$CBHI@std@@PEAU?$_Tree_node@U?$pair@$$CBHI@std@@PEAX@2@@?$_Tree@V?$_Tmap_traits@HIU?$less@H@std@@V?$allocator@U?$pair@$$CBHI@std@@@2@$0A@@std@@@std@@IEAA?AV?$_Tree_iterator@V?$_Tree_val@U?$_Tree_simple_types@U?$pair@$$CBHI@std@@@std@@@std@@@1@V?$_Tree_const_iterator@V?$_Tree_val@U?$_Tree_simple_types@U?$pair@$$CBHI@std@@@std@@@std@@@1@AEAU?$pair@$$CBHI@1@PEAU?$_Tree_node@U?$pair@$$CBHI@std@@PEAX@1@@Z 00000001800239a0     game.obj
 0002:000019d0       $unwind$?catch$0@?0???$_Insert_hint@AEAU?$pair@$$CBHI@std@@PEAU?$_Tree_node@U?$pair@$$CBHI@std@@PEAX@2@@?$_Tree@V?$_Tmap_traits@HIU?$less@H@std@@V?$allocator@U?$pair@$$CBHI@std@@@2@$0A@@std@@@std@@IEAA?AV?$_Tree_iterator@V?$_Tree_val@U?$_Tree_simple_types@U?$pair@$$CBHI@std@@@std@@@std@@@1@V?$_Tree_const_iterator@V?$_Tree_val@U?$_Tree_simple_types@U?$pair@$$CBHI@std@@@std@@@std@@@1@AEAU?$pair@$$CBHI@1@PEAU?$_Tree_node@U?$pair@$$CBHI@std@@PEAX@1@@Z@4HA 00000001800239d0     game.obj
 0002:000019e0       $unwind$??$?0AEBH$0A@@?$tuple@AEBH@std@@QEAA@AEBH@Z 00000001800239e0     game.obj
 0002:000019e8       $unwind$??$_Buynode@AEBUpiecewise_construct_t@std@@V?$tuple@AEBH@2@V?$tuple@$$V@2@@?$_Tree_comp_alloc@V?$_Tmap_traits@HIU?$less@H@std@@V?$allocator@U?$pair@$$CBHI@std@@@2@$0A@@std@@@std@@QEAAPEAU?$_Tree_node@U?$pair@$$CBHI@std@@PEAX@1@AEBUpiecewise_construct_t@1@$$QEAV?$tuple@AEBH@1@$$QEAV?$tuple@$$V@1@@Z 00000001800239e8     game.obj
 0002:000019f8       $tryMap$??$_Buynode@AEBUpiecewise_construct_t@std@@V?$tuple@AEBH@2@V?$tuple@$$V@2@@?$_Tree_comp_alloc@V?$_Tmap_traits@HIU?$less@H@std@@V?$allocator@U?$pair@$$CBHI@std@@@2@$0A@@std@@@std@@QEAAPEAU?$_Tree_node@U?$pair@$$CBHI@std@@PEAX@1@AEBUpiecewise_construct_t@1@$$QEAV?$tuple@AEBH@1@$$QEAV?$tuple@$$V@1@@Z 00000001800239f8     game.obj
 0002:00001a0c       $handlerMap$0$??$_Buynode@AEBUpiecewise_construct_t@std@@V?$tuple@AEBH@2@V?$tuple@$$V@2@@?$_Tree_comp_alloc@V?$_Tmap_traits@HIU?$less@H@std@@V?$allocator@U?$pair@$$CBHI@std@@@2@$0A@@std@@@std@@QEAAPEAU?$_Tree_node@U?$pair@$$CBHI@std@@PEAX@1@AEBUpiecewise_construct_t@1@$$QEAV?$tuple@AEBH@1@$$QEAV?$tuple@$$V@1@@Z 0000000180023a0c     game.obj
 0002:00001a20       $ip2state$??$_Buynode@AEBUpiecewise_construct_t@std@@V?$tuple@AEBH@2@V?$tuple@$$V@2@@?$_Tree_comp_alloc@V?$_Tmap_traits@HIU?$less@H@std@@V?$allocator@U?$pair@$$CBHI@std@@@2@$0A@@std@@@std@@QEAAPEAU?$_Tree_node@U?$pair@$$CBHI@std@@PEAX@1@AEBUpiecewise_construct_t@1@$$QEAV?$tuple@AEBH@1@$$QEAV?$tuple@$$V@1@@Z 0000000180023a20     game.obj
 0002:00001a50       $unwind$?catch$0@?0???$_Buynode@AEBUpiecewise_construct_t@std@@V?$tuple@AEBH@2@V?$tuple@$$V@2@@?$_Tree_comp_alloc@V?$_Tmap_traits@HIU?$less@H@std@@V?$allocator@U?$pair@$$CBHI@std@@@2@$0A@@std@@@std@@QEAAPEAU?$_Tree_node@U?$pair@$$CBHI@std@@PEAX@1@AEBUpiecewise_construct_t@1@$$QEAV?$tuple@AEBH@1@$$QEAV?$tuple@$$V@1@@Z@4HA 0000000180023a50     game.obj
 0002:00001a60       $unwind$??$_Buynode@AEBUpiecewise_construct_t@std@@V?$tuple@AEBH@2@V?$tuple@$$V@2@@?$_Tree_comp_alloc@V?$_Tmap_traits@H_NU?$less@H@std@@V?$allocator@U?$pair@$$CBH_N@std@@@2@$0A@@std@@@std@@QEAAPEAU?$_Tree_node@U?$pair@$$CBH_N@std@@PEAX@1@AEBUpiecewise_construct_t@1@$$QEAV?$tuple@AEBH@1@$$QEAV?$tuple@$$V@1@@Z 0000000180023a60     game.obj
 0002:00001a70       $tryMap$??$_Buynode@AEBUpiecewise_construct_t@std@@V?$tuple@AEBH@2@V?$tuple@$$V@2@@?$_Tree_comp_alloc@V?$_Tmap_traits@H_NU?$less@H@std@@V?$allocator@U?$pair@$$CBH_N@std@@@2@$0A@@std@@@std@@QEAAPEAU?$_Tree_node@U?$pair@$$CBH_N@std@@PEAX@1@AEBUpiecewise_construct_t@1@$$QEAV?$tuple@AEBH@1@$$QEAV?$tuple@$$V@1@@Z 0000000180023a70     game.obj
 0002:00001a84       $handlerMap$0$??$_Buynode@AEBUpiecewise_construct_t@std@@V?$tuple@AEBH@2@V?$tuple@$$V@2@@?$_Tree_comp_alloc@V?$_Tmap_traits@H_NU?$less@H@std@@V?$allocator@U?$pair@$$CBH_N@std@@@2@$0A@@std@@@std@@QEAAPEAU?$_Tree_node@U?$pair@$$CBH_N@std@@PEAX@1@AEBUpiecewise_construct_t@1@$$QEAV?$tuple@AEBH@1@$$QEAV?$tuple@$$V@1@@Z 0000000180023a84     game.obj
 0002:00001a98       $ip2state$??$_Buynode@AEBUpiecewise_construct_t@std@@V?$tuple@AEBH@2@V?$tuple@$$V@2@@?$_Tree_comp_alloc@V?$_Tmap_traits@H_NU?$less@H@std@@V?$allocator@U?$pair@$$CBH_N@std@@@2@$0A@@std@@@std@@QEAAPEAU?$_Tree_node@U?$pair@$$CBH_N@std@@PEAX@1@AEBUpiecewise_construct_t@1@$$QEAV?$tuple@AEBH@1@$$QEAV?$tuple@$$V@1@@Z 0000000180023a98     game.obj
 0002:00001ac8       $unwind$?catch$0@?0???$_Buynode@AEBUpiecewise_construct_t@std@@V?$tuple@AEBH@2@V?$tuple@$$V@2@@?$_Tree_comp_alloc@V?$_Tmap_traits@H_NU?$less@H@std@@V?$allocator@U?$pair@$$CBH_N@std@@@2@$0A@@std@@@std@@QEAAPEAU?$_Tree_node@U?$pair@$$CBH_N@std@@PEAX@1@AEBUpiecewise_construct_t@1@$$QEAV?$tuple@AEBH@1@$$QEAV?$tuple@$$V@1@@Z@4HA 0000000180023ac8     game.obj
 0002:00001ad8       $unwind$??$_Insert_hint@AEAU?$pair@$$CBH_N@std@@PEAU?$_Tree_node@U?$pair@$$CBH_N@std@@PEAX@2@@?$_Tree@V?$_Tmap_traits@H_NU?$less@H@std@@V?$allocator@U?$pair@$$CBH_N@std@@@2@$0A@@std@@@std@@IEAA?AV?$_Tree_iterator@V?$_Tree_val@U?$_Tree_simple_types@U?$pair@$$CBH_N@std@@@std@@@std@@@1@V?$_Tree_const_iterator@V?$_Tree_val@U?$_Tree_simple_types@U?$pair@$$CBH_N@std@@@std@@@std@@@1@AEAU?$pair@$$CBH_N@1@PEAU?$_Tree_node@U?$pair@$$CBH_N@std@@PEAX@1@@Z 0000000180023ad8     game.obj
 0002:00001ae8       $tryMap$??$_Insert_hint@AEAU?$pair@$$CBH_N@std@@PEAU?$_Tree_node@U?$pair@$$CBH_N@std@@PEAX@2@@?$_Tree@V?$_Tmap_traits@H_NU?$less@H@std@@V?$allocator@U?$pair@$$CBH_N@std@@@2@$0A@@std@@@std@@IEAA?AV?$_Tree_iterator@V?$_Tree_val@U?$_Tree_simple_types@U?$pair@$$CBH_N@std@@@std@@@std@@@1@V?$_Tree_const_iterator@V?$_Tree_val@U?$_Tree_simple_types@U?$pair@$$CBH_N@std@@@std@@@std@@@1@AEAU?$pair@$$CBH_N@1@PEAU?$_Tree_node@U?$pair@$$CBH_N@std@@PEAX@1@@Z 0000000180023ae8     game.obj
 0002:00001afc       $handlerMap$0$??$_Insert_hint@AEAU?$pair@$$CBH_N@std@@PEAU?$_Tree_node@U?$pair@$$CBH_N@std@@PEAX@2@@?$_Tree@V?$_Tmap_traits@H_NU?$less@H@std@@V?$allocator@U?$pair@$$CBH_N@std@@@2@$0A@@std@@@std@@IEAA?AV?$_Tree_iterator@V?$_Tree_val@U?$_Tree_simple_types@U?$pair@$$CBH_N@std@@@std@@@std@@@1@V?$_Tree_const_iterator@V?$_Tree_val@U?$_Tree_simple_types@U?$pair@$$CBH_N@std@@@std@@@std@@@1@AEAU?$pair@$$CBH_N@1@PEAU?$_Tree_node@U?$pair@$$CBH_N@std@@PEAX@1@@Z 0000000180023afc     game.obj
 0002:00001b10       $ip2state$??$_Insert_hint@AEAU?$pair@$$CBH_N@std@@PEAU?$_Tree_node@U?$pair@$$CBH_N@std@@PEAX@2@@?$_Tree@V?$_Tmap_traits@H_NU?$less@H@std@@V?$allocator@U?$pair@$$CBH_N@std@@@2@$0A@@std@@@std@@IEAA?AV?$_Tree_iterator@V?$_Tree_val@U?$_Tree_simple_types@U?$pair@$$CBH_N@std@@@std@@@std@@@1@V?$_Tree_const_iterator@V?$_Tree_val@U?$_Tree_simple_types@U?$pair@$$CBH_N@std@@@std@@@std@@@1@AEAU?$pair@$$CBH_N@1@PEAU?$_Tree_node@U?$pair@$$CBH_N@std@@PEAX@1@@Z 0000000180023b10     game.obj
 0002:00001b40       $unwind$?catch$0@?0???$_Insert_hint@AEAU?$pair@$$CBH_N@std@@PEAU?$_Tree_node@U?$pair@$$CBH_N@std@@PEAX@2@@?$_Tree@V?$_Tmap_traits@H_NU?$less@H@std@@V?$allocator@U?$pair@$$CBH_N@std@@@2@$0A@@std@@@std@@IEAA?AV?$_Tree_iterator@V?$_Tree_val@U?$_Tree_simple_types@U?$pair@$$CBH_N@std@@@std@@@std@@@1@V?$_Tree_const_iterator@V?$_Tree_val@U?$_Tree_simple_types@U?$pair@$$CBH_N@std@@@std@@@std@@@1@AEAU?$pair@$$CBH_N@1@PEAU?$_Tree_node@U?$pair@$$CBH_N@std@@PEAX@1@@Z@4HA 0000000180023b40     game.obj
 0002:00001b50       $unwind$??$emplace_hint@AEBUpiecewise_construct_t@std@@V?$tuple@AEBH@2@V?$tuple@$$V@2@@?$_Tree@V?$_Tmap_traits@HIU?$less@H@std@@V?$allocator@U?$pair@$$CBHI@std@@@2@$0A@@std@@@std@@QEAA?AV?$_Tree_iterator@V?$_Tree_val@U?$_Tree_simple_types@U?$pair@$$CBHI@std@@@std@@@std@@@1@V?$_Tree_const_iterator@V?$_Tree_val@U?$_Tree_simple_types@U?$pair@$$CBHI@std@@@std@@@std@@@1@AEBUpiecewise_construct_t@1@$$QEAV?$tuple@AEBH@1@$$QEAV?$tuple@$$V@1@@Z 0000000180023b50     game.obj
 0002:00001b50       $unwind$??$emplace_hint@AEBUpiecewise_construct_t@std@@V?$tuple@AEBH@2@V?$tuple@$$V@2@@?$_Tree@V?$_Tmap_traits@H_NU?$less@H@std@@V?$allocator@U?$pair@$$CBH_N@std@@@2@$0A@@std@@@std@@QEAA?AV?$_Tree_iterator@V?$_Tree_val@U?$_Tree_simple_types@U?$pair@$$CBH_N@std@@@std@@@std@@@1@V?$_Tree_const_iterator@V?$_Tree_val@U?$_Tree_simple_types@U?$pair@$$CBH_N@std@@@std@@@std@@@1@AEBUpiecewise_construct_t@1@$$QEAV?$tuple@AEBH@1@$$QEAV?$tuple@$$V@1@@Z 0000000180023b50     game.obj
 0002:00001b50       $unwind$??$_Insert_at@AEAU?$pair@$$CBHI@std@@PEAU?$_Tree_node@U?$pair@$$CBHI@std@@PEAX@2@@?$_Tree@V?$_Tmap_traits@HIU?$less@H@std@@V?$allocator@U?$pair@$$CBHI@std@@@2@$0A@@std@@@std@@IEAA?AV?$_Tree_iterator@V?$_Tree_val@U?$_Tree_simple_types@U?$pair@$$CBHI@std@@@std@@@std@@@1@_NPEAU?$_Tree_node@U?$pair@$$CBHI@std@@PEAX@1@AEAU?$pair@$$CBHI@1@1@Z 0000000180023b50     game.obj
 0002:00001b50       $unwind$??$_Insert_at@AEAU?$pair@$$CBH_N@std@@PEAU?$_Tree_node@U?$pair@$$CBH_N@std@@PEAX@2@@?$_Tree@V?$_Tmap_traits@H_NU?$less@H@std@@V?$allocator@U?$pair@$$CBH_N@std@@@2@$0A@@std@@@std@@IEAA?AV?$_Tree_iterator@V?$_Tree_val@U?$_Tree_simple_types@U?$pair@$$CBH_N@std@@@std@@@std@@@1@_NPEAU?$_Tree_node@U?$pair@$$CBH_N@std@@PEAX@1@AEAU?$pair@$$CBH_N@1@1@Z 0000000180023b50     game.obj
 0002:00001b58       $unwind$??$_Insert_nohint@AEAU?$pair@$$CBHI@std@@PEAU?$_Tree_node@U?$pair@$$CBHI@std@@PEAX@2@@?$_Tree@V?$_Tmap_traits@HIU?$less@H@std@@V?$allocator@U?$pair@$$CBHI@std@@@2@$0A@@std@@@std@@IEAA?AU?$pair@V?$_Tree_iterator@V?$_Tree_val@U?$_Tree_simple_types@U?$pair@$$CBHI@std@@@std@@@std@@@std@@_N@1@_NAEAU?$pair@$$CBHI@1@PEAU?$_Tree_node@U?$pair@$$CBHI@std@@PEAX@1@@Z 0000000180023b58     game.obj
 0002:00001b68       $tryMap$??$_Insert_nohint@AEAU?$pair@$$CBHI@std@@PEAU?$_Tree_node@U?$pair@$$CBHI@std@@PEAX@2@@?$_Tree@V?$_Tmap_traits@HIU?$less@H@std@@V?$allocator@U?$pair@$$CBHI@std@@@2@$0A@@std@@@std@@IEAA?AU?$pair@V?$_Tree_iterator@V?$_Tree_val@U?$_Tree_simple_types@U?$pair@$$CBHI@std@@@std@@@std@@@std@@_N@1@_NAEAU?$pair@$$CBHI@1@PEAU?$_Tree_node@U?$pair@$$CBHI@std@@PEAX@1@@Z 0000000180023b68     game.obj
 0002:00001b7c       $handlerMap$0$??$_Insert_nohint@AEAU?$pair@$$CBHI@std@@PEAU?$_Tree_node@U?$pair@$$CBHI@std@@PEAX@2@@?$_Tree@V?$_Tmap_traits@HIU?$less@H@std@@V?$allocator@U?$pair@$$CBHI@std@@@2@$0A@@std@@@std@@IEAA?AU?$pair@V?$_Tree_iterator@V?$_Tree_val@U?$_Tree_simple_types@U?$pair@$$CBHI@std@@@std@@@std@@@std@@_N@1@_NAEAU?$pair@$$CBHI@1@PEAU?$_Tree_node@U?$pair@$$CBHI@std@@PEAX@1@@Z 0000000180023b7c     game.obj
 0002:00001b90       $ip2state$??$_Insert_nohint@AEAU?$pair@$$CBHI@std@@PEAU?$_Tree_node@U?$pair@$$CBHI@std@@PEAX@2@@?$_Tree@V?$_Tmap_traits@HIU?$less@H@std@@V?$allocator@U?$pair@$$CBHI@std@@@2@$0A@@std@@@std@@IEAA?AU?$pair@V?$_Tree_iterator@V?$_Tree_val@U?$_Tree_simple_types@U?$pair@$$CBHI@std@@@std@@@std@@@std@@_N@1@_NAEAU?$pair@$$CBHI@1@PEAU?$_Tree_node@U?$pair@$$CBHI@std@@PEAX@1@@Z 0000000180023b90     game.obj
 0002:00001bb0       $unwind$?catch$0@?0???$_Insert_nohint@AEAU?$pair@$$CBHI@std@@PEAU?$_Tree_node@U?$pair@$$CBHI@std@@PEAX@2@@?$_Tree@V?$_Tmap_traits@HIU?$less@H@std@@V?$allocator@U?$pair@$$CBHI@std@@@2@$0A@@std@@@std@@IEAA?AU?$pair@V?$_Tree_iterator@V?$_Tree_val@U?$_Tree_simple_types@U?$pair@$$CBHI@std@@@std@@@std@@@std@@_N@1@_NAEAU?$pair@$$CBHI@1@PEAU?$_Tree_node@U?$pair@$$CBHI@std@@PEAX@1@@Z@4HA 0000000180023bb0     game.obj
 0002:00001bc0       $unwind$??$_Insert_nohint@AEAU?$pair@$$CBH_N@std@@PEAU?$_Tree_node@U?$pair@$$CBH_N@std@@PEAX@2@@?$_Tree@V?$_Tmap_traits@H_NU?$less@H@std@@V?$allocator@U?$pair@$$CBH_N@std@@@2@$0A@@std@@@std@@IEAA?AU?$pair@V?$_Tree_iterator@V?$_Tree_val@U?$_Tree_simple_types@U?$pair@$$CBH_N@std@@@std@@@std@@@std@@_N@1@_NAEAU?$pair@$$CBH_N@1@PEAU?$_Tree_node@U?$pair@$$CBH_N@std@@PEAX@1@@Z 0000000180023bc0     game.obj
 0002:00001bd0       $tryMap$??$_Insert_nohint@AEAU?$pair@$$CBH_N@std@@PEAU?$_Tree_node@U?$pair@$$CBH_N@std@@PEAX@2@@?$_Tree@V?$_Tmap_traits@H_NU?$less@H@std@@V?$allocator@U?$pair@$$CBH_N@std@@@2@$0A@@std@@@std@@IEAA?AU?$pair@V?$_Tree_iterator@V?$_Tree_val@U?$_Tree_simple_types@U?$pair@$$CBH_N@std@@@std@@@std@@@std@@_N@1@_NAEAU?$pair@$$CBH_N@1@PEAU?$_Tree_node@U?$pair@$$CBH_N@std@@PEAX@1@@Z 0000000180023bd0     game.obj
 0002:00001be4       $handlerMap$0$??$_Insert_nohint@AEAU?$pair@$$CBH_N@std@@PEAU?$_Tree_node@U?$pair@$$CBH_N@std@@PEAX@2@@?$_Tree@V?$_Tmap_traits@H_NU?$less@H@std@@V?$allocator@U?$pair@$$CBH_N@std@@@2@$0A@@std@@@std@@IEAA?AU?$pair@V?$_Tree_iterator@V?$_Tree_val@U?$_Tree_simple_types@U?$pair@$$CBH_N@std@@@std@@@std@@@std@@_N@1@_NAEAU?$pair@$$CBH_N@1@PEAU?$_Tree_node@U?$pair@$$CBH_N@std@@PEAX@1@@Z 0000000180023be4     game.obj
 0002:00001bf8       $ip2state$??$_Insert_nohint@AEAU?$pair@$$CBH_N@std@@PEAU?$_Tree_node@U?$pair@$$CBH_N@std@@PEAX@2@@?$_Tree@V?$_Tmap_traits@H_NU?$less@H@std@@V?$allocator@U?$pair@$$CBH_N@std@@@2@$0A@@std@@@std@@IEAA?AU?$pair@V?$_Tree_iterator@V?$_Tree_val@U?$_Tree_simple_types@U?$pair@$$CBH_N@std@@@std@@@std@@@std@@_N@1@_NAEAU?$pair@$$CBH_N@1@PEAU?$_Tree_node@U?$pair@$$CBH_N@std@@PEAX@1@@Z 0000000180023bf8     game.obj
 0002:00001c18       $unwind$?catch$0@?0???$_Insert_nohint@AEAU?$pair@$$CBH_N@std@@PEAU?$_Tree_node@U?$pair@$$CBH_N@std@@PEAX@2@@?$_Tree@V?$_Tmap_traits@H_NU?$less@H@std@@V?$allocator@U?$pair@$$CBH_N@std@@@2@$0A@@std@@@std@@IEAA?AU?$pair@V?$_Tree_iterator@V?$_Tree_val@U?$_Tree_simple_types@U?$pair@$$CBH_N@std@@@std@@@std@@@std@@_N@1@_NAEAU?$pair@$$CBH_N@1@PEAU?$_Tree_node@U?$pair@$$CBH_N@std@@PEAX@1@@Z@4HA 0000000180023c18     game.obj
 0002:00001c28       $unwind$??$construct@U?$pair@$$CBHI@std@@AEBUpiecewise_construct_t@2@V?$tuple@AEBH@2@V?$tuple@$$V@2@@?$_Wrap_alloc@V?$allocator@U?$_Tree_node@U?$pair@$$CBHI@std@@PEAX@std@@@std@@@std@@QEAAXPEAU?$pair@$$CBHI@1@AEBUpiecewise_construct_t@1@$$QEAV?$tuple@AEBH@1@$$QEAV?$tuple@$$V@1@@Z 0000000180023c28     game.obj
 0002:00001c28       $unwind$??$construct@U?$pair@$$CBH_N@std@@AEBUpiecewise_construct_t@2@V?$tuple@AEBH@2@V?$tuple@$$V@2@@?$_Wrap_alloc@V?$allocator@U?$_Tree_node@U?$pair@$$CBH_N@std@@PEAX@std@@@std@@@std@@QEAAXPEAU?$pair@$$CBH_N@1@AEBUpiecewise_construct_t@1@$$QEAV?$tuple@AEBH@1@$$QEAV?$tuple@$$V@1@@Z 0000000180023c28     game.obj
 0002:00001c28       $unwind$??$construct@U?$pair@$$CBHI@std@@AEBUpiecewise_construct_t@2@V?$tuple@AEBH@2@V?$tuple@$$V@2@@?$allocator_traits@V?$allocator@U?$_Tree_node@U?$pair@$$CBHI@std@@PEAX@std@@@std@@@std@@SAXAEAV?$allocator@U?$_Tree_node@U?$pair@$$CBHI@std@@PEAX@std@@@1@PEAU?$pair@$$CBHI@1@AEBUpiecewise_construct_t@1@$$QEAV?$tuple@AEBH@1@$$QEAV?$tuple@$$V@1@@Z 0000000180023c28     game.obj
 0002:00001c28       $unwind$??$construct@U?$pair@$$CBH_N@std@@AEBUpiecewise_construct_t@2@V?$tuple@AEBH@2@V?$tuple@$$V@2@@?$allocator_traits@V?$allocator@U?$_Tree_node@U?$pair@$$CBH_N@std@@PEAX@std@@@std@@@std@@SAXAEAV?$allocator@U?$_Tree_node@U?$pair@$$CBH_N@std@@PEAX@std@@@1@PEAU?$pair@$$CBH_N@1@AEBUpiecewise_construct_t@1@$$QEAV?$tuple@AEBH@1@$$QEAV?$tuple@$$V@1@@Z 0000000180023c28     game.obj
 0002:00001c30       $unwind$??$construct@U?$pair@$$CBHI@std@@AEBUpiecewise_construct_t@2@V?$tuple@AEBH@2@V?$tuple@$$V@2@@?$allocator@U?$_Tree_node@U?$pair@$$CBHI@std@@PEAX@std@@@std@@QEAAXPEAU?$pair@$$CBHI@1@AEBUpiecewise_construct_t@1@$$QEAV?$tuple@AEBH@1@$$QEAV?$tuple@$$V@1@@Z 0000000180023c30     game.obj
 0002:00001c40       $ip2state$??$construct@U?$pair@$$CBHI@std@@AEBUpiecewise_construct_t@2@V?$tuple@AEBH@2@V?$tuple@$$V@2@@?$allocator@U?$_Tree_node@U?$pair@$$CBHI@std@@PEAX@std@@@std@@QEAAXPEAU?$pair@$$CBHI@1@AEBUpiecewise_construct_t@1@$$QEAV?$tuple@AEBH@1@$$QEAV?$tuple@$$V@1@@Z 0000000180023c40     game.obj
 0002:00001c58       $unwind$??$construct@U?$pair@$$CBH_N@std@@AEBUpiecewise_construct_t@2@V?$tuple@AEBH@2@V?$tuple@$$V@2@@?$allocator@U?$_Tree_node@U?$pair@$$CBH_N@std@@PEAX@std@@@std@@QEAAXPEAU?$pair@$$CBH_N@1@AEBUpiecewise_construct_t@1@$$QEAV?$tuple@AEBH@1@$$QEAV?$tuple@$$V@1@@Z 0000000180023c58     game.obj
 0002:00001c68       $stateUnwindMap$??$construct@U?$pair@$$CBH_N@std@@AEBUpiecewise_construct_t@2@V?$tuple@AEBH@2@V?$tuple@$$V@2@@?$allocator@U?$_Tree_node@U?$pair@$$CBH_N@std@@PEAX@std@@@std@@QEAAXPEAU?$pair@$$CBH_N@1@AEBUpiecewise_construct_t@1@$$QEAV?$tuple@AEBH@1@$$QEAV?$tuple@$$V@1@@Z 0000000180023c68     game.obj
 0002:00001c68       $stateUnwindMap$??$construct@U?$pair@$$CBHI@std@@AEBUpiecewise_construct_t@2@V?$tuple@AEBH@2@V?$tuple@$$V@2@@?$allocator@U?$_Tree_node@U?$pair@$$CBHI@std@@PEAX@std@@@std@@QEAAXPEAU?$pair@$$CBHI@1@AEBUpiecewise_construct_t@1@$$QEAV?$tuple@AEBH@1@$$QEAV?$tuple@$$V@1@@Z 0000000180023c68     game.obj
 0002:00001c70       $ip2state$??$construct@U?$pair@$$CBH_N@std@@AEBUpiecewise_construct_t@2@V?$tuple@AEBH@2@V?$tuple@$$V@2@@?$allocator@U?$_Tree_node@U?$pair@$$CBH_N@std@@PEAX@std@@@std@@QEAAXPEAU?$pair@$$CBH_N@1@AEBUpiecewise_construct_t@1@$$QEAV?$tuple@AEBH@1@$$QEAV?$tuple@$$V@1@@Z 0000000180023c70     game.obj
 0002:00001c88       $unwind$?dtor$0@?0???$construct@U?$pair@$$CBHI@std@@AEBUpiecewise_construct_t@2@V?$tuple@AEBH@2@V?$tuple@$$V@2@@?$allocator@U?$_Tree_node@U?$pair@$$CBHI@std@@PEAX@std@@@std@@QEAAXPEAU?$pair@$$CBHI@1@AEBUpiecewise_construct_t@1@$$QEAV?$tuple@AEBH@1@$$QEAV?$tuple@$$V@1@@Z@4HA 0000000180023c88     game.obj
 0002:00001c88       $unwind$?dtor$0@?0???$construct@U?$pair@$$CBH_N@std@@AEBUpiecewise_construct_t@2@V?$tuple@AEBH@2@V?$tuple@$$V@2@@?$allocator@U?$_Tree_node@U?$pair@$$CBH_N@std@@PEAX@std@@@std@@QEAAXPEAU?$pair@$$CBH_N@1@AEBUpiecewise_construct_t@1@$$QEAV?$tuple@AEBH@1@$$QEAV?$tuple@$$V@1@@Z@4HA 0000000180023c88     game.obj
 0002:00001c88       $unwind$?fin$0@?0??dllmain_crt_process_attach@@YAHQEAUHINSTANCE__@@QEAX@Z@4HA 0000000180023c88     MSVCRT:dll_dllmain.obj
 0002:00001c88       $unwind$?fin$0@?0??dllmain_crt_process_detach@@YAH_N@Z@4HA 0000000180023c88     MSVCRT:dll_dllmain.obj
 0002:00001c90       $unwind$??$?0AEBH$$Z$$V@?$pair@$$CBHI@std@@QEAA@Upiecewise_construct_t@1@V?$tuple@AEBH@1@V?$tuple@$$V@1@@Z 0000000180023c90     game.obj
 0002:00001c90       $unwind$??$?0AEBH$$Z$$V@?$pair@$$CBH_N@std@@QEAA@Upiecewise_construct_t@1@V?$tuple@AEBH@1@V?$tuple@$$V@1@@Z 0000000180023c90     game.obj
 0002:00001c98       $unwind$??$?0V?$tuple@AEBH@std@@V?$tuple@$$V@1@$0A@$$Z$S@?$pair@$$CBH_N@std@@QEAA@AEAV?$tuple@AEBH@1@AEAV?$tuple@$$V@1@U?$integer_sequence@_K$0A@@1@U?$integer_sequence@_K$S@1@@Z 0000000180023c98     game.obj
 0002:00001c98       $unwind$??$?0V?$tuple@AEBH@std@@V?$tuple@$$V@1@$0A@$$Z$S@?$pair@$$CBHI@std@@QEAA@AEAV?$tuple@AEBH@1@AEAV?$tuple@$$V@1@U?$integer_sequence@_K$0A@@1@U?$integer_sequence@_K$S@1@@Z 0000000180023c98     game.obj
 0002:00001ca0       $unwind$gladLoadGL         0000000180023ca0     glad.obj
 0002:00001ca8       $unwind$gladLoadGLLoader   0000000180023ca8     glad.obj
 0002:00001cb0       $unwind$get_proc           0000000180023cb0     glad.obj
 0002:00001cb8       $unwind$open_gl            0000000180023cb8     glad.obj
 0002:00001cc0       $unwind$close_gl           0000000180023cc0     glad.obj
 0002:00001cc8       $unwind$get_exts           0000000180023cc8     glad.obj
 0002:00001cd0       $unwind$free_exts          0000000180023cd0     glad.obj
 0002:00001cd8       $unwind$has_ext            0000000180023cd8     glad.obj
 0002:00001ce0       $unwind$load_GL_VERSION_1_0 0000000180023ce0     glad.obj
 0002:00001ce8       $unwind$load_GL_VERSION_1_1 0000000180023ce8     glad.obj
 0002:00001cf0       $unwind$load_GL_VERSION_1_2 0000000180023cf0     glad.obj
 0002:00001cf8       $unwind$load_GL_VERSION_1_3 0000000180023cf8     glad.obj
 0002:00001d00       $unwind$load_GL_VERSION_1_4 0000000180023d00     glad.obj
 0002:00001d08       $unwind$load_GL_VERSION_1_5 0000000180023d08     glad.obj
 0002:00001d10       $unwind$load_GL_VERSION_2_0 0000000180023d10     glad.obj
 0002:00001d18       $unwind$load_GL_VERSION_2_1 0000000180023d18     glad.obj
 0002:00001d20       $unwind$load_GL_VERSION_3_0 0000000180023d20     glad.obj
 0002:00001d28       $unwind$load_GL_VERSION_3_1 0000000180023d28     glad.obj
 0002:00001d30       $unwind$load_GL_VERSION_3_2 0000000180023d30     glad.obj
 0002:00001d38       $unwind$load_GL_VERSION_3_3 0000000180023d38     glad.obj
 0002:00001d40       $unwind$load_GL_VERSION_4_0 0000000180023d40     glad.obj
 0002:00001d48       $unwind$load_GL_VERSION_4_1 0000000180023d48     glad.obj
 0002:00001d50       $unwind$load_GL_VERSION_4_2 0000000180023d50     glad.obj
 0002:00001d58       $unwind$load_GL_VERSION_4_3 0000000180023d58     glad.obj
 0002:00001d60       $unwind$load_GL_VERSION_4_4 0000000180023d60     glad.obj
 0002:00001d68       $unwind$load_GL_VERSION_4_5 0000000180023d68     glad.obj
 0002:00001d70       $unwind$load_GL_3DFX_tbuffer 0000000180023d70     glad.obj
 0002:00001d78       $unwind$load_GL_AMD_debug_output 0000000180023d78     glad.obj
 0002:00001d80       $unwind$load_GL_AMD_draw_buffers_blend 0000000180023d80     glad.obj
 0002:00001d88       $unwind$load_GL_AMD_gpu_shader_int64 0000000180023d88     glad.obj
 0002:00001d90       $unwind$load_GL_AMD_interleaved_elements 0000000180023d90     glad.obj
 0002:00001d98       $unwind$load_GL_AMD_multi_draw_indirect 0000000180023d98     glad.obj
 0002:00001da0       $unwind$load_GL_AMD_name_gen_delete 0000000180023da0     glad.obj
 0002:00001da8       $unwind$load_GL_AMD_occlusion_query_event 0000000180023da8     glad.obj
 0002:00001db0       $unwind$load_GL_AMD_performance_monitor 0000000180023db0     glad.obj
 0002:00001db8       $unwind$load_GL_AMD_sample_positions 0000000180023db8     glad.obj
 0002:00001dc0       $unwind$load_GL_AMD_sparse_texture 0000000180023dc0     glad.obj
 0002:00001dc8       $unwind$load_GL_AMD_stencil_operation_extended 0000000180023dc8     glad.obj
 0002:00001dd0       $unwind$load_GL_AMD_vertex_shader_tessellator 0000000180023dd0     glad.obj
 0002:00001dd8       $unwind$load_GL_APPLE_element_array 0000000180023dd8     glad.obj
 0002:00001de0       $unwind$load_GL_APPLE_fence 0000000180023de0     glad.obj
 0002:00001de8       $unwind$load_GL_APPLE_flush_buffer_range 0000000180023de8     glad.obj
 0002:00001df0       $unwind$load_GL_APPLE_object_purgeable 0000000180023df0     glad.obj
 0002:00001df8       $unwind$load_GL_APPLE_texture_range 0000000180023df8     glad.obj
 0002:00001e00       $unwind$load_GL_APPLE_vertex_array_object 0000000180023e00     glad.obj
 0002:00001e08       $unwind$load_GL_APPLE_vertex_array_range 0000000180023e08     glad.obj
 0002:00001e10       $unwind$load_GL_APPLE_vertex_program_evaluators 0000000180023e10     glad.obj
 0002:00001e18       $unwind$load_GL_ARB_ES2_compatibility 0000000180023e18     glad.obj
 0002:00001e20       $unwind$load_GL_ARB_ES3_1_compatibility 0000000180023e20     glad.obj
 0002:00001e28       $unwind$load_GL_ARB_ES3_2_compatibility 0000000180023e28     glad.obj
 0002:00001e30       $unwind$load_GL_ARB_base_instance 0000000180023e30     glad.obj
 0002:00001e38       $unwind$load_GL_ARB_bindless_texture 0000000180023e38     glad.obj
 0002:00001e40       $unwind$load_GL_ARB_blend_func_extended 0000000180023e40     glad.obj
 0002:00001e48       $unwind$load_GL_ARB_buffer_storage 0000000180023e48     glad.obj
 0002:00001e50       $unwind$load_GL_ARB_cl_event 0000000180023e50     glad.obj
 0002:00001e58       $unwind$load_GL_ARB_clear_buffer_object 0000000180023e58     glad.obj
 0002:00001e60       $unwind$load_GL_ARB_clear_texture 0000000180023e60     glad.obj
 0002:00001e68       $unwind$load_GL_ARB_clip_control 0000000180023e68     glad.obj
 0002:00001e70       $unwind$load_GL_ARB_color_buffer_float 0000000180023e70     glad.obj
 0002:00001e78       $unwind$load_GL_ARB_compute_shader 0000000180023e78     glad.obj
 0002:00001e80       $unwind$load_GL_ARB_compute_variable_group_size 0000000180023e80     glad.obj
 0002:00001e88       $unwind$load_GL_ARB_copy_buffer 0000000180023e88     glad.obj
 0002:00001e90       $unwind$load_GL_ARB_copy_image 0000000180023e90     glad.obj
 0002:00001e98       $unwind$load_GL_ARB_debug_output 0000000180023e98     glad.obj
 0002:00001ea0       $unwind$load_GL_ARB_direct_state_access 0000000180023ea0     glad.obj
 0002:00001ea8       $unwind$load_GL_ARB_draw_buffers 0000000180023ea8     glad.obj
 0002:00001eb0       $unwind$load_GL_ARB_draw_buffers_blend 0000000180023eb0     glad.obj
 0002:00001eb8       $unwind$load_GL_ARB_draw_elements_base_vertex 0000000180023eb8     glad.obj
 0002:00001ec0       $unwind$load_GL_ARB_draw_indirect 0000000180023ec0     glad.obj
 0002:00001ec8       $unwind$load_GL_ARB_draw_instanced 0000000180023ec8     glad.obj
 0002:00001ed0       $unwind$load_GL_ARB_fragment_program 0000000180023ed0     glad.obj
 0002:00001ed8       $unwind$load_GL_ARB_framebuffer_no_attachments 0000000180023ed8     glad.obj
 0002:00001ee0       $unwind$load_GL_ARB_framebuffer_object 0000000180023ee0     glad.obj
 0002:00001ee8       $unwind$load_GL_ARB_geometry_shader4 0000000180023ee8     glad.obj
 0002:00001ef0       $unwind$load_GL_ARB_get_program_binary 0000000180023ef0     glad.obj
 0002:00001ef8       $unwind$load_GL_ARB_get_texture_sub_image 0000000180023ef8     glad.obj
 0002:00001f00       $unwind$load_GL_ARB_gpu_shader_fp64 0000000180023f00     glad.obj
 0002:00001f08       $unwind$load_GL_ARB_gpu_shader_int64 0000000180023f08     glad.obj
 0002:00001f10       $unwind$load_GL_ARB_imaging 0000000180023f10     glad.obj
 0002:00001f18       $unwind$load_GL_ARB_indirect_parameters 0000000180023f18     glad.obj
 0002:00001f20       $unwind$load_GL_ARB_instanced_arrays 0000000180023f20     glad.obj
 0002:00001f28       $unwind$load_GL_ARB_internalformat_query 0000000180023f28     glad.obj
 0002:00001f30       $unwind$load_GL_ARB_internalformat_query2 0000000180023f30     glad.obj
 0002:00001f38       $unwind$load_GL_ARB_invalidate_subdata 0000000180023f38     glad.obj
 0002:00001f40       $unwind$load_GL_ARB_map_buffer_range 0000000180023f40     glad.obj
 0002:00001f48       $unwind$load_GL_ARB_matrix_palette 0000000180023f48     glad.obj
 0002:00001f50       $unwind$load_GL_ARB_multi_bind 0000000180023f50     glad.obj
 0002:00001f58       $unwind$load_GL_ARB_multi_draw_indirect 0000000180023f58     glad.obj
 0002:00001f60       $unwind$load_GL_ARB_multisample 0000000180023f60     glad.obj
 0002:00001f68       $unwind$load_GL_ARB_multitexture 0000000180023f68     glad.obj
 0002:00001f70       $unwind$load_GL_ARB_occlusion_query 0000000180023f70     glad.obj
 0002:00001f78       $unwind$load_GL_ARB_parallel_shader_compile 0000000180023f78     glad.obj
 0002:00001f80       $unwind$load_GL_ARB_point_parameters 0000000180023f80     glad.obj
 0002:00001f88       $unwind$load_GL_ARB_program_interface_query 0000000180023f88     glad.obj
 0002:00001f90       $unwind$load_GL_ARB_provoking_vertex 0000000180023f90     glad.obj
 0002:00001f98       $unwind$load_GL_ARB_robustness 0000000180023f98     glad.obj
 0002:00001fa0       $unwind$load_GL_ARB_sample_locations 0000000180023fa0     glad.obj
 0002:00001fa8       $unwind$load_GL_ARB_sample_shading 0000000180023fa8     glad.obj
 0002:00001fb0       $unwind$load_GL_ARB_sampler_objects 0000000180023fb0     glad.obj
 0002:00001fb8       $unwind$load_GL_ARB_separate_shader_objects 0000000180023fb8     glad.obj
 0002:00001fc0       $unwind$load_GL_ARB_shader_atomic_counters 0000000180023fc0     glad.obj
 0002:00001fc8       $unwind$load_GL_ARB_shader_image_load_store 0000000180023fc8     glad.obj
 0002:00001fd0       $unwind$load_GL_ARB_shader_objects 0000000180023fd0     glad.obj
 0002:00001fd8       $unwind$load_GL_ARB_shader_storage_buffer_object 0000000180023fd8     glad.obj
 0002:00001fe0       $unwind$load_GL_ARB_shader_subroutine 0000000180023fe0     glad.obj
 0002:00001fe8       $unwind$load_GL_ARB_shading_language_include 0000000180023fe8     glad.obj
 0002:00001ff0       $unwind$load_GL_ARB_sparse_buffer 0000000180023ff0     glad.obj
 0002:00001ff8       $unwind$load_GL_ARB_sparse_texture 0000000180023ff8     glad.obj
 0002:00002000       $unwind$load_GL_ARB_sync   0000000180024000     glad.obj
 0002:00002008       $unwind$load_GL_ARB_tessellation_shader 0000000180024008     glad.obj
 0002:00002010       $unwind$load_GL_ARB_texture_barrier 0000000180024010     glad.obj
 0002:00002018       $unwind$load_GL_ARB_texture_buffer_object 0000000180024018     glad.obj
 0002:00002020       $unwind$load_GL_ARB_texture_buffer_range 0000000180024020     glad.obj
 0002:00002028       $unwind$load_GL_ARB_texture_compression 0000000180024028     glad.obj
 0002:00002030       $unwind$load_GL_ARB_texture_multisample 0000000180024030     glad.obj
 0002:00002038       $unwind$load_GL_ARB_texture_storage 0000000180024038     glad.obj
 0002:00002040       $unwind$load_GL_ARB_texture_storage_multisample 0000000180024040     glad.obj
 0002:00002048       $unwind$load_GL_ARB_texture_view 0000000180024048     glad.obj
 0002:00002050       $unwind$load_GL_ARB_timer_query 0000000180024050     glad.obj
 0002:00002058       $unwind$load_GL_ARB_transform_feedback2 0000000180024058     glad.obj
 0002:00002060       $unwind$load_GL_ARB_transform_feedback3 0000000180024060     glad.obj
 0002:00002068       $unwind$load_GL_ARB_transform_feedback_instanced 0000000180024068     glad.obj
 0002:00002070       $unwind$load_GL_ARB_transpose_matrix 0000000180024070     glad.obj
 0002:00002078       $unwind$load_GL_ARB_uniform_buffer_object 0000000180024078     glad.obj
 0002:00002080       $unwind$load_GL_ARB_vertex_array_object 0000000180024080     glad.obj
 0002:00002088       $unwind$load_GL_ARB_vertex_attrib_64bit 0000000180024088     glad.obj
 0002:00002090       $unwind$load_GL_ARB_vertex_attrib_binding 0000000180024090     glad.obj
 0002:00002098       $unwind$load_GL_ARB_vertex_blend 0000000180024098     glad.obj
 0002:000020a0       $unwind$load_GL_ARB_vertex_buffer_object 00000001800240a0     glad.obj
 0002:000020a8       $unwind$load_GL_ARB_vertex_program 00000001800240a8     glad.obj
 0002:000020b0       $unwind$load_GL_ARB_vertex_shader 00000001800240b0     glad.obj
 0002:000020b8       $unwind$load_GL_ARB_vertex_type_2_10_10_10_rev 00000001800240b8     glad.obj
 0002:000020c0       $unwind$load_GL_ARB_viewport_array 00000001800240c0     glad.obj
 0002:000020c8       $unwind$load_GL_ARB_window_pos 00000001800240c8     glad.obj
 0002:000020d0       $unwind$load_GL_ATI_draw_buffers 00000001800240d0     glad.obj
 0002:000020d8       $unwind$load_GL_ATI_element_array 00000001800240d8     glad.obj
 0002:000020e0       $unwind$load_GL_ATI_envmap_bumpmap 00000001800240e0     glad.obj
 0002:000020e8       $unwind$load_GL_ATI_fragment_shader 00000001800240e8     glad.obj
 0002:000020f0       $unwind$load_GL_ATI_map_object_buffer 00000001800240f0     glad.obj
 0002:000020f8       $unwind$load_GL_ATI_pn_triangles 00000001800240f8     glad.obj
 0002:00002100       $unwind$load_GL_ATI_separate_stencil 0000000180024100     glad.obj
 0002:00002108       $unwind$load_GL_ATI_vertex_array_object 0000000180024108     glad.obj
 0002:00002110       $unwind$load_GL_ATI_vertex_attrib_array_object 0000000180024110     glad.obj
 0002:00002118       $unwind$load_GL_ATI_vertex_streams 0000000180024118     glad.obj
 0002:00002120       $unwind$load_GL_EXT_bindable_uniform 0000000180024120     glad.obj
 0002:00002128       $unwind$load_GL_EXT_blend_color 0000000180024128     glad.obj
 0002:00002130       $unwind$load_GL_EXT_blend_equation_separate 0000000180024130     glad.obj
 0002:00002138       $unwind$load_GL_EXT_blend_func_separate 0000000180024138     glad.obj
 0002:00002140       $unwind$load_GL_EXT_blend_minmax 0000000180024140     glad.obj
 0002:00002148       $unwind$load_GL_EXT_color_subtable 0000000180024148     glad.obj
 0002:00002150       $unwind$load_GL_EXT_compiled_vertex_array 0000000180024150     glad.obj
 0002:00002158       $unwind$load_GL_EXT_convolution 0000000180024158     glad.obj
 0002:00002160       $unwind$load_GL_EXT_coordinate_frame 0000000180024160     glad.obj
 0002:00002168       $unwind$load_GL_EXT_copy_texture 0000000180024168     glad.obj
 0002:00002170       $unwind$load_GL_EXT_cull_vertex 0000000180024170     glad.obj
 0002:00002178       $unwind$load_GL_EXT_debug_label 0000000180024178     glad.obj
 0002:00002180       $unwind$load_GL_EXT_debug_marker 0000000180024180     glad.obj
 0002:00002188       $unwind$load_GL_EXT_depth_bounds_test 0000000180024188     glad.obj
 0002:00002190       $unwind$load_GL_EXT_direct_state_access 0000000180024190     glad.obj
 0002:00002198       $unwind$load_GL_EXT_draw_buffers2 0000000180024198     glad.obj
 0002:000021a0       $unwind$load_GL_EXT_draw_instanced 00000001800241a0     glad.obj
 0002:000021a8       $unwind$load_GL_EXT_draw_range_elements 00000001800241a8     glad.obj
 0002:000021b0       $unwind$load_GL_EXT_fog_coord 00000001800241b0     glad.obj
 0002:000021b8       $unwind$load_GL_EXT_framebuffer_blit 00000001800241b8     glad.obj
 0002:000021c0       $unwind$load_GL_EXT_framebuffer_multisample 00000001800241c0     glad.obj
 0002:000021c8       $unwind$load_GL_EXT_framebuffer_object 00000001800241c8     glad.obj
 0002:000021d0       $unwind$load_GL_EXT_geometry_shader4 00000001800241d0     glad.obj
 0002:000021d8       $unwind$load_GL_EXT_gpu_program_parameters 00000001800241d8     glad.obj
 0002:000021e0       $unwind$load_GL_EXT_gpu_shader4 00000001800241e0     glad.obj
 0002:000021e8       $unwind$load_GL_EXT_histogram 00000001800241e8     glad.obj
 0002:000021f0       $unwind$load_GL_EXT_index_func 00000001800241f0     glad.obj
 0002:000021f8       $unwind$load_GL_EXT_index_material 00000001800241f8     glad.obj
 0002:00002200       $unwind$load_GL_EXT_light_texture 0000000180024200     glad.obj
 0002:00002208       $unwind$load_GL_EXT_multi_draw_arrays 0000000180024208     glad.obj
 0002:00002210       $unwind$load_GL_EXT_multisample 0000000180024210     glad.obj
 0002:00002218       $unwind$load_GL_EXT_paletted_texture 0000000180024218     glad.obj
 0002:00002220       $unwind$load_GL_EXT_pixel_transform 0000000180024220     glad.obj
 0002:00002228       $unwind$load_GL_EXT_point_parameters 0000000180024228     glad.obj
 0002:00002230       $unwind$load_GL_EXT_polygon_offset 0000000180024230     glad.obj
 0002:00002238       $unwind$load_GL_EXT_polygon_offset_clamp 0000000180024238     glad.obj
 0002:00002240       $unwind$load_GL_EXT_provoking_vertex 0000000180024240     glad.obj
 0002:00002248       $unwind$load_GL_EXT_raster_multisample 0000000180024248     glad.obj
 0002:00002250       $unwind$load_GL_EXT_secondary_color 0000000180024250     glad.obj
 0002:00002258       $unwind$load_GL_EXT_separate_shader_objects 0000000180024258     glad.obj
 0002:00002260       $unwind$load_GL_EXT_shader_image_load_store 0000000180024260     glad.obj
 0002:00002268       $unwind$load_GL_EXT_stencil_clear_tag 0000000180024268     glad.obj
 0002:00002270       $unwind$load_GL_EXT_stencil_two_side 0000000180024270     glad.obj
 0002:00002278       $unwind$load_GL_EXT_subtexture 0000000180024278     glad.obj
 0002:00002280       $unwind$load_GL_EXT_texture3D 0000000180024280     glad.obj
 0002:00002288       $unwind$load_GL_EXT_texture_array 0000000180024288     glad.obj
 0002:00002290       $unwind$load_GL_EXT_texture_buffer_object 0000000180024290     glad.obj
 0002:00002298       $unwind$load_GL_EXT_texture_filter_minmax 0000000180024298     glad.obj
 0002:000022a0       $unwind$load_GL_EXT_texture_integer 00000001800242a0     glad.obj
 0002:000022a8       $unwind$load_GL_EXT_texture_object 00000001800242a8     glad.obj
 0002:000022b0       $unwind$load_GL_EXT_texture_perturb_normal 00000001800242b0     glad.obj
 0002:000022b8       $unwind$load_GL_EXT_timer_query 00000001800242b8     glad.obj
 0002:000022c0       $unwind$load_GL_EXT_transform_feedback 00000001800242c0     glad.obj
 0002:000022c8       $unwind$load_GL_EXT_vertex_array 00000001800242c8     glad.obj
 0002:000022d0       $unwind$load_GL_EXT_vertex_attrib_64bit 00000001800242d0     glad.obj
 0002:000022d8       $unwind$load_GL_EXT_vertex_shader 00000001800242d8     glad.obj
 0002:000022e0       $unwind$load_GL_EXT_vertex_weighting 00000001800242e0     glad.obj
 0002:000022e8       $unwind$load_GL_EXT_window_rectangles 00000001800242e8     glad.obj
 0002:000022f0       $unwind$load_GL_EXT_x11_sync_object 00000001800242f0     glad.obj
 0002:000022f8       $unwind$load_GL_GREMEDY_frame_terminator 00000001800242f8     glad.obj
 0002:00002300       $unwind$load_GL_GREMEDY_string_marker 0000000180024300     glad.obj
 0002:00002308       $unwind$load_GL_HP_image_transform 0000000180024308     glad.obj
 0002:00002310       $unwind$load_GL_IBM_multimode_draw_arrays 0000000180024310     glad.obj
 0002:00002318       $unwind$load_GL_IBM_static_data 0000000180024318     glad.obj
 0002:00002320       $unwind$load_GL_IBM_vertex_array_lists 0000000180024320     glad.obj
 0002:00002328       $unwind$load_GL_INGR_blend_func_separate 0000000180024328     glad.obj
 0002:00002330       $unwind$load_GL_INTEL_framebuffer_CMAA 0000000180024330     glad.obj
 0002:00002338       $unwind$load_GL_INTEL_map_texture 0000000180024338     glad.obj
 0002:00002340       $unwind$load_GL_INTEL_parallel_arrays 0000000180024340     glad.obj
 0002:00002348       $unwind$load_GL_INTEL_performance_query 0000000180024348     glad.obj
 0002:00002350       $unwind$load_GL_KHR_blend_equation_advanced 0000000180024350     glad.obj
 0002:00002358       $unwind$load_GL_KHR_debug  0000000180024358     glad.obj
 0002:00002360       $unwind$load_GL_KHR_robustness 0000000180024360     glad.obj
 0002:00002368       $unwind$load_GL_MESA_resize_buffers 0000000180024368     glad.obj
 0002:00002370       $unwind$load_GL_MESA_window_pos 0000000180024370     glad.obj
 0002:00002378       $unwind$load_GL_NVX_conditional_render 0000000180024378     glad.obj
 0002:00002380       $unwind$load_GL_NV_bindless_multi_draw_indirect 0000000180024380     glad.obj
 0002:00002388       $unwind$load_GL_NV_bindless_multi_draw_indirect_count 0000000180024388     glad.obj
 0002:00002390       $unwind$load_GL_NV_bindless_texture 0000000180024390     glad.obj
 0002:00002398       $unwind$load_GL_NV_blend_equation_advanced 0000000180024398     glad.obj
 0002:000023a0       $unwind$load_GL_NV_clip_space_w_scaling 00000001800243a0     glad.obj
 0002:000023a8       $unwind$load_GL_NV_command_list 00000001800243a8     glad.obj
 0002:000023b0       $unwind$load_GL_NV_conditional_render 00000001800243b0     glad.obj
 0002:000023b8       $unwind$load_GL_NV_conservative_raster 00000001800243b8     glad.obj
 0002:000023c0       $unwind$load_GL_NV_conservative_raster_dilate 00000001800243c0     glad.obj
 0002:000023c8       $unwind$load_GL_NV_conservative_raster_pre_snap_triangles 00000001800243c8     glad.obj
 0002:000023d0       $unwind$load_GL_NV_copy_image 00000001800243d0     glad.obj
 0002:000023d8       $unwind$load_GL_NV_depth_buffer_float 00000001800243d8     glad.obj
 0002:000023e0       $unwind$load_GL_NV_draw_texture 00000001800243e0     glad.obj
 0002:000023e8       $unwind$load_GL_NV_evaluators 00000001800243e8     glad.obj
 0002:000023f0       $unwind$load_GL_NV_explicit_multisample 00000001800243f0     glad.obj
 0002:000023f8       $unwind$load_GL_NV_fence   00000001800243f8     glad.obj
 0002:00002400       $unwind$load_GL_NV_fragment_coverage_to_color 0000000180024400     glad.obj
 0002:00002408       $unwind$load_GL_NV_fragment_program 0000000180024408     glad.obj
 0002:00002410       $unwind$load_GL_NV_framebuffer_mixed_samples 0000000180024410     glad.obj
 0002:00002418       $unwind$load_GL_NV_framebuffer_multisample_coverage 0000000180024418     glad.obj
 0002:00002420       $unwind$load_GL_NV_geometry_program4 0000000180024420     glad.obj
 0002:00002428       $unwind$load_GL_NV_gpu_program4 0000000180024428     glad.obj
 0002:00002430       $unwind$load_GL_NV_gpu_program5 0000000180024430     glad.obj
 0002:00002438       $unwind$load_GL_NV_gpu_shader5 0000000180024438     glad.obj
 0002:00002440       $unwind$load_GL_NV_half_float 0000000180024440     glad.obj
 0002:00002448       $unwind$load_GL_NV_internalformat_sample_query 0000000180024448     glad.obj
 0002:00002450       $unwind$load_GL_NV_occlusion_query 0000000180024450     glad.obj
 0002:00002458       $unwind$load_GL_NV_parameter_buffer_object 0000000180024458     glad.obj
 0002:00002460       $unwind$load_GL_NV_path_rendering 0000000180024460     glad.obj
 0002:00002468       $unwind$load_GL_NV_pixel_data_range 0000000180024468     glad.obj
 0002:00002470       $unwind$load_GL_NV_point_sprite 0000000180024470     glad.obj
 0002:00002478       $unwind$load_GL_NV_present_video 0000000180024478     glad.obj
 0002:00002480       $unwind$load_GL_NV_primitive_restart 0000000180024480     glad.obj
 0002:00002488       $unwind$load_GL_NV_register_combiners 0000000180024488     glad.obj
 0002:00002490       $unwind$load_GL_NV_register_combiners2 0000000180024490     glad.obj
 0002:00002498       $unwind$load_GL_NV_sample_locations 0000000180024498     glad.obj
 0002:000024a0       $unwind$load_GL_NV_shader_buffer_load 00000001800244a0     glad.obj
 0002:000024a8       $unwind$load_GL_NV_texture_barrier 00000001800244a8     glad.obj
 0002:000024b0       $unwind$load_GL_NV_texture_multisample 00000001800244b0     glad.obj
 0002:000024b8       $unwind$load_GL_NV_transform_feedback 00000001800244b8     glad.obj
 0002:000024c0       $unwind$load_GL_NV_transform_feedback2 00000001800244c0     glad.obj
 0002:000024c8       $unwind$load_GL_NV_vdpau_interop 00000001800244c8     glad.obj
 0002:000024d0       $unwind$load_GL_NV_vertex_array_range 00000001800244d0     glad.obj
 0002:000024d8       $unwind$load_GL_NV_vertex_attrib_integer_64bit 00000001800244d8     glad.obj
 0002:000024e0       $unwind$load_GL_NV_vertex_buffer_unified_memory 00000001800244e0     glad.obj
 0002:000024e8       $unwind$load_GL_NV_vertex_program 00000001800244e8     glad.obj
 0002:000024f0       $unwind$load_GL_NV_vertex_program4 00000001800244f0     glad.obj
 0002:000024f8       $unwind$load_GL_NV_video_capture 00000001800244f8     glad.obj
 0002:00002500       $unwind$load_GL_NV_viewport_swizzle 0000000180024500     glad.obj
 0002:00002508       $unwind$load_GL_OES_byte_coordinates 0000000180024508     glad.obj
 0002:00002510       $unwind$load_GL_OES_fixed_point 0000000180024510     glad.obj
 0002:00002518       $unwind$load_GL_OES_query_matrix 0000000180024518     glad.obj
 0002:00002520       $unwind$load_GL_OES_single_precision 0000000180024520     glad.obj
 0002:00002528       $unwind$load_GL_OVR_multiview 0000000180024528     glad.obj
 0002:00002530       $unwind$load_GL_PGI_misc_hints 0000000180024530     glad.obj
 0002:00002538       $unwind$load_GL_SGIS_detail_texture 0000000180024538     glad.obj
 0002:00002540       $unwind$load_GL_SGIS_fog_function 0000000180024540     glad.obj
 0002:00002548       $unwind$load_GL_SGIS_multisample 0000000180024548     glad.obj
 0002:00002550       $unwind$load_GL_SGIS_pixel_texture 0000000180024550     glad.obj
 0002:00002558       $unwind$load_GL_SGIS_point_parameters 0000000180024558     glad.obj
 0002:00002560       $unwind$load_GL_SGIS_sharpen_texture 0000000180024560     glad.obj
 0002:00002568       $unwind$load_GL_SGIS_texture4D 0000000180024568     glad.obj
 0002:00002570       $unwind$load_GL_SGIS_texture_color_mask 0000000180024570     glad.obj
 0002:00002578       $unwind$load_GL_SGIS_texture_filter4 0000000180024578     glad.obj
 0002:00002580       $unwind$load_GL_SGIX_async 0000000180024580     glad.obj
 0002:00002588       $unwind$load_GL_SGIX_flush_raster 0000000180024588     glad.obj
 0002:00002590       $unwind$load_GL_SGIX_fragment_lighting 0000000180024590     glad.obj
 0002:00002598       $unwind$load_GL_SGIX_framezoom 0000000180024598     glad.obj
 0002:000025a0       $unwind$load_GL_SGIX_igloo_interface 00000001800245a0     glad.obj
 0002:000025a8       $unwind$load_GL_SGIX_instruments 00000001800245a8     glad.obj
 0002:000025b0       $unwind$load_GL_SGIX_list_priority 00000001800245b0     glad.obj
 0002:000025b8       $unwind$load_GL_SGIX_pixel_texture 00000001800245b8     glad.obj
 0002:000025c0       $unwind$load_GL_SGIX_polynomial_ffd 00000001800245c0     glad.obj
 0002:000025c8       $unwind$load_GL_SGIX_reference_plane 00000001800245c8     glad.obj
 0002:000025d0       $unwind$load_GL_SGIX_sprite 00000001800245d0     glad.obj
 0002:000025d8       $unwind$load_GL_SGIX_tag_sample_buffer 00000001800245d8     glad.obj
 0002:000025e0       $unwind$load_GL_SGI_color_table 00000001800245e0     glad.obj
 0002:000025e8       $unwind$load_GL_SUNX_constant_data 00000001800245e8     glad.obj
 0002:000025f0       $unwind$load_GL_SUN_global_alpha 00000001800245f0     glad.obj
 0002:000025f8       $unwind$load_GL_SUN_mesh_array 00000001800245f8     glad.obj
 0002:00002600       $unwind$load_GL_SUN_triangle_list 0000000180024600     glad.obj
 0002:00002608       $unwind$load_GL_SUN_vertex 0000000180024608     glad.obj
 0002:00002610       $unwind$find_extensionsGL  0000000180024610     glad.obj
 0002:00002618       $unwind$find_coreGL        0000000180024618     glad.obj
 0002:00002628       $chain$0$glfwTerminate     0000000180024628     glfw3:init.c.obj
 0002:0000263c       $chain$1$glfwTerminate     000000018002463c     glfw3:init.c.obj
 0002:00002650       $chain$2$glfwTerminate     0000000180024650     glfw3:init.c.obj
 0002:00002660       $chain$3$glfwTerminate     0000000180024660     glfw3:init.c.obj
 0002:00002670       $unwind$_glfwInputError    0000000180024670     glfw3:init.c.obj
 0002:00002684       $chain$0$_glfwInputError   0000000180024684     glfw3:init.c.obj
 0002:00002698       $chain$1$_glfwInputError   0000000180024698     glfw3:init.c.obj
 0002:000026a8       $unwind$glfwDestroyCursor  00000001800246a8     glfw3:input.c.obj
 0002:000026b0       $chain$0$glfwDestroyCursor 00000001800246b0     glfw3:input.c.obj
 0002:000026c4       $chain$1$glfwDestroyCursor 00000001800246c4     glfw3:input.c.obj
 0002:000026d8       $chain$2$glfwDestroyCursor 00000001800246d8     glfw3:input.c.obj
 0002:000026e8       $chain$3$glfwDestroyCursor 00000001800246e8     glfw3:input.c.obj
 0002:000026f8       $unwind$_glfwRestoreVideoModeWin32 00000001800246f8     glfw3:win32_monitor.c.obj
 0002:000026f8       $unwind$??0length_error@std@@QEAA@PEBD@Z 00000001800246f8     libcpmt:xthrow.obj
 0002:00002700       $unwind$_glfwPlatformSetGammaRamp 0000000180024700     glfw3:win32_monitor.c.obj
 0002:00002714       $unwind$_glfwFreeMonitors  0000000180024714     glfw3:monitor.c.obj
 0002:00002724       $chain$0$_glfwFreeMonitors 0000000180024724     glfw3:monitor.c.obj
 0002:00002738       $chain$1$_glfwFreeMonitors 0000000180024738     glfw3:monitor.c.obj
 0002:00002748       $unwind$??_Gbad_array_new_length@std@@UEAAPEAXI@Z 0000000180024748     MSVCRT:throw_bad_alloc.obj
 0002:00002748       $unwind$??_Gexception@std@@UEAAPEAXI@Z 0000000180024748     libcpmt:xthrow.obj
 0002:00002748       $unwind$??_Gbad_alloc@std@@UEAAPEAXI@Z 0000000180024748     libcpmt:xthrow.obj
 0002:00002748       $unwind$??_Glogic_error@std@@UEAAPEAXI@Z 0000000180024748     libcpmt:xthrow.obj
 0002:00002748       $unwind$??_Glength_error@std@@UEAAPEAXI@Z 0000000180024748     libcpmt:xthrow.obj
 0002:00002748       $unwind$_glfwPlatformDestroyWindow 0000000180024748     glfw3:win32_window.c.obj
 0002:00002754       $unwind$_glfwPlatformGetFramebufferSize 0000000180024754     glfw3:win32_window.c.obj
 0002:00002768       $unwind$cursorInClientArea 0000000180024768     glfw3:win32_window.c.obj
 0002:0000277c       $unwind$_onexit            000000018002477c     MSVCRT:utility.obj
 0002:0000277c       $unwind$__scrt_release_startup_lock 000000018002477c     MSVCRT:utility.obj
 0002:0000277c       $unwind$??0exception@std@@QEAA@AEBV01@@Z 000000018002477c     libcpmt:xthrow.obj
 0002:0000277c       $unwind$__scrt_initialize_crt 000000018002477c     MSVCRT:utility.obj
 0002:0000277c       $unwind$??0bad_alloc@std@@QEAA@AEBV01@@Z 000000018002477c     libcpmt:xthrow.obj
 0002:0000277c       $unwind$__scrt_uninitialize_crt 000000018002477c     MSVCRT:utility.obj
 0002:0000277c       $unwind$??0bad_array_new_length@std@@QEAA@AEBV01@@Z 000000018002477c     MSVCRT:throw_bad_alloc.obj
 0002:0000277c       $unwind$??2@YAPEAX_K@Z     000000018002477c     MSVCRT:new_scalar.obj
 0002:0000277c       $unwind$??0logic_error@std@@QEAA@AEBV01@@Z 000000018002477c     libcpmt:xthrow.obj
 0002:0000277c       $unwind$glfwDestroyWindow  000000018002477c     glfw3:window.c.obj
 0002:0000277c       $unwind$_glfwTerminateVulkan 000000018002477c     glfw3:vulkan.c.obj
 0002:0000277c       $unwind$??0length_error@std@@QEAA@AEBV01@@Z 000000018002477c     libcpmt:xthrow.obj
 0002:0000277c       $unwind$_glfwPlatformSetCursor 000000018002477c     glfw3:win32_window.c.obj
 0002:0000277c       $unwind$??_Gtype_info@@UEAAPEAXI@Z 000000018002477c     MSVCRT:std_type_info_static.obj
 0002:0000277c       $unwind$__raise_securityfailure 000000018002477c     MSVCRT:gs_report.obj
 0002:0000277c       $unwind$glfwMakeContextCurrent 000000018002477c     glfw3:context.c.obj
 0002:00002784       $unwind$?__scrt_throw_std_bad_array_new_length@@YAXXZ 0000000180024784     MSVCRT:throw_bad_alloc.obj
 0002:00002784       $unwind$?_Xlength_error@std@@YAXPEBD@Z 0000000180024784     libcpmt:xthrow.obj
 0002:00002784       $unwind$?_Xbad_alloc@std@@YAXXZ 0000000180024784     libcpmt:xthrow.obj
 0002:00002784       $unwind$?__scrt_throw_std_bad_alloc@@YAXXZ 0000000180024784     MSVCRT:throw_bad_alloc.obj
 0002:0000278c       $unwind$__GSHandlerCheckCommon 000000018002478c     MSVCRT:_gshandler_.obj
 0002:00002798       $xdatasym                  0000000180024798     MSVCRT:_amdsecgs_.obj
 0002:0000279c       $unwind$?dllmain_crt_process_attach@@YAHQEAUHINSTANCE__@@QEAX@Z 000000018002479c     MSVCRT:dll_dllmain.obj
 0002:000027c8       $unwind$?dllmain_crt_process_detach@@YAH_N@Z 00000001800247c8     MSVCRT:dll_dllmain.obj
 0002:000027f0       $unwind$?dllmain_raw@@YAHQEAUHINSTANCE__@@KQEAX@Z 00000001800247f0     MSVCRT:dll_dllmain.obj
 0002:000027f0       $unwind$__scrt_dllmain_exception_filter 00000001800247f0     MSVCRT:utility.obj
 0002:00002804       $unwind$?dllmain_dispatch@@YAHQEAUHINSTANCE__@@KQEAX@Z 0000000180024804     MSVCRT:dll_dllmain.obj
 0002:0000282c       $unwind$?filt$0@?0??dllmain_dispatch@@YAHQEAUHINSTANCE__@@KQEAX@Z@4HA 000000018002482c     MSVCRT:dll_dllmain.obj
 0002:00002838       $xdatasym                  0000000180024838     MSVCRT:_chkstk_.obj
 0002:00002840       $unwind$capture_previous_context 0000000180024840     MSVCRT:gs_report.obj
 0002:0000284c       $unwind$__scrt_is_nonwritable_in_current_image 000000018002484c     MSVCRT:utility.obj
 0002:0000286c       $unwind$__scrt_is_nonwritable_in_current_image$filt$0 000000018002486c     MSVCRT:utility.obj
 0002:00002874       $unwind$__scrt_initialize_onexit_tables 0000000180024874     MSVCRT:utility.obj
 0002:00002880       $unwind$_glfwTerminateEGL  0000000180024880     glfw3:egl_context.c.obj
 0002:00002880       $unwind$__GSHandlerCheck   0000000180024880     MSVCRT:_gshandler_.obj
 0002:00002880       $unwind$glfwTerminate      0000000180024880     glfw3:init.c.obj
