 main

 Timestamp is 58f4f649 (Mon Apr 17 19:07:21 2017)

 Preferred load address is 0000000140000000

 Start         Length     Name                   Class
 0001:00000000 00000270H .text$di                CODE
 0001:00000270 00149ea0H .text$mn                CODE
 0001:0014a110 00000020H .text$mn$00             CODE
 0001:0014a130 00001d10H .text$x                 CODE
 0001:0014be40 00000272H .text$yd                CODE
 0002:00000000 00000938H .idata$5                DATA
 0002:00000938 00000010H .00cfg                  DATA
 0002:00000948 00000008H .CRT$XCA                DATA
 0002:00000950 00000008H .CRT$XCAA               DATA
 0002:00000958 00000068H .CRT$XCC                DATA
 0002:000009c0 00000010H .CRT$XCL                DATA
 0002:000009d0 00000020H .CRT$XCU                DATA
 0002:000009f0 00000008H .CRT$XCZ                DATA
 0002:000009f8 00000008H .CRT$XIA                DATA
 0002:00000a00 00000008H .CRT$XIAA               DATA
 0002:00000a08 00000008H .CRT$XIAC               DATA
 0002:00000a10 00000010H .CRT$XIC                DATA
 0002:00000a20 00000008H .CRT$XIZ                DATA
 0002:00000a28 00000008H .CRT$XLA                DATA
 0002:00000a30 00000008H .CRT$XLZ                DATA
 0002:00000a38 00000008H .CRT$XPA                DATA
 0002:00000a40 00000008H .CRT$XPB                DATA
 0002:00000a48 00000008H .CRT$XPZ                DATA
 0002:00000a50 00000008H .CRT$XTA                DATA
 0002:00000a58 00000008H .CRT$XTZ                DATA
 0002:00000a60 00036638H .rdata                  DATA
 0002:00037098 00000028H .rdata$T                DATA
 0002:000370c0 00003954H .rdata$r                DATA
 0002:0003aa14 000003f4H .rdata$zzzdbg           DATA
 0002:0003ae08 00000008H .rtc$IAA                DATA
 0002:0003ae10 00000000H .rtc$IMZ                DATA
 0002:0003ae10 00000008H .rtc$IZZ                DATA
 0002:0003ae18 00000008H .rtc$TAA                DATA
 0002:0003ae20 00000000H .rtc$TMZ                DATA
 0002:0003ae20 00000010H .rtc$TZZ                DATA
 0002:0003ae30 0000a820H .xdata                  DATA
 0002:00045650 00000a84H .xdata$x                DATA
 0002:000460d4 00000000H .edata                  DATA
 0002:000460d4 00000154H .idata$2                DATA
 0002:00046228 00000018H .idata$3                DATA
 0002:00046240 00000938H .idata$4                DATA
 0002:00046b78 0000149aH .idata$6                DATA
 0003:00000000 00032ad0H .data                   DATA
 0003:00032ad0 00001bb0H .data$r                 DATA
 0003:00034680 0000c430H .bss                    DATA
 0004:00000000 0000b958H .pdata                  DATA
 0005:00000000 0000096cH .gfids$y                DATA
 0006:00000000 00000004H .tls                    DATA
 0006:00000004 00000004H .tls$                   DATA
 0006:00000008 00000001H .tls$ZZZ                DATA

  Address         Publics by Value              Rva+Base               Lib:Object

 0000:00000000       __guard_longjmp_table      0000000000000000     <absolute>
 0000:00000000       __dynamic_value_reloc_table 0000000000000000     <absolute>
 0000:00000000       __guard_fids_count         0000000000000000     <absolute>
 0000:00000000       __guard_longjmp_count      0000000000000000     <absolute>
 0000:00000000       ___safe_se_handler_table   0000000000000000     <absolute>
 0000:00000000       ___safe_se_handler_count   0000000000000000     <absolute>
 0000:00000000       __guard_fids_table         0000000000000000     <absolute>
 0000:00000000       __guard_iat_table          0000000000000000     <absolute>
 0000:00000000       __guard_iat_count          0000000000000000     <absolute>
 0000:00000100       __guard_flags              0000000000000100     <absolute>
 0000:00000000       __ImageBase                0000000140000000     <linker-defined>
 0001:000003e0       stbi_load                  00000001400013e0 f   main.obj
 0001:00000490       stbi_load_from_memory      0000000140001490 f   main.obj
 0001:00000530       stbi_load_from_callbacks   0000000140001530 f   main.obj
 0001:000005d0       stbi_load_from_file        00000001400015d0 f   main.obj
 0001:000006a0       stbi_load_16               00000001400016a0 f   main.obj
 0001:00000750       stbi_load_from_file_16     0000000140001750 f   main.obj
 0001:00000820       stbi_loadf                 0000000140001820 f   main.obj
 0001:000008d0       stbi_loadf_from_memory     00000001400018d0 f   main.obj
 0001:00000970       stbi_loadf_from_callbacks  0000000140001970 f   main.obj
 0001:00000a10       stbi_loadf_from_file       0000000140001a10 f   main.obj
 0001:00000aa0       stbi_hdr_to_ldr_gamma      0000000140001aa0 f   main.obj
 0001:00000ad0       stbi_hdr_to_ldr_scale      0000000140001ad0 f   main.obj
 0001:00000b00       stbi_ldr_to_hdr_gamma      0000000140001b00 f   main.obj
 0001:00000b20       stbi_ldr_to_hdr_scale      0000000140001b20 f   main.obj
 0001:00000b40       stbi_is_hdr_from_callbacks 0000000140001b40 f   main.obj
 0001:00000bb0       stbi_is_hdr_from_memory    0000000140001bb0 f   main.obj
 0001:00000c20       stbi_is_hdr                0000000140001c20 f   main.obj
 0001:00000c80       stbi_is_hdr_from_file      0000000140001c80 f   main.obj
 0001:00000ce0       stbi_failure_reason        0000000140001ce0 f   main.obj
 0001:00000cf0       stbi_image_free            0000000140001cf0 f   main.obj
 0001:00000d10       stbi_info_from_memory      0000000140001d10 f   main.obj
 0001:00000da0       stbi_info_from_callbacks   0000000140001da0 f   main.obj
 0001:00000e30       stbi_info                  0000000140001e30 f   main.obj
 0001:00000eb0       stbi_info_from_file        0000000140001eb0 f   main.obj
 0001:00000f60       stbi_set_unpremultiply_on_load 0000000140001f60 f   main.obj
 0001:00000f80       stbi_convert_iphone_png_to_rgb 0000000140001f80 f   main.obj
 0001:00000fa0       stbi_set_flip_vertically_on_load 0000000140001fa0 f   main.obj
 0001:00000fc0       stbi_zlib_decode_malloc_guesssize 0000000140001fc0 f   main.obj
 0001:000010c0       stbi_zlib_decode_malloc_guesssize_headerflag 00000001400020c0 f   main.obj
 0001:000011d0       stbi_zlib_decode_malloc    00000001400021d0 f   main.obj
 0001:00001210       stbi_zlib_decode_buffer    0000000140002210 f   main.obj
 0001:000012d0       stbi_zlib_decode_noheader_malloc 00000001400022d0 f   main.obj
 0001:000013d0       stbi_zlib_decode_noheader_buffer 00000001400023d0 f   main.obj
 0001:0001a470       stb_perlin_noise3          000000014001b470 f   main.obj
 0001:0001aae0       stb_perlin_ridge_noise3    000000014001bae0 f   main.obj
 0001:0001ac80       stb_perlin_fbm_noise3      000000014001bc80 f   main.obj
 0001:0001ada0       stb_perlin_turbulence_noise3 000000014001bda0 f   main.obj
 0001:0001b010       ?UpdateStub@@YAXNPEAUgame_state@@@Z 000000014001c010 f   main.obj
 0001:0001ef70       ?CharacterCallback@@YAXPEAUGLFWwindow@@I@Z 000000014001ff70 f   main.obj
 0001:0001f000       ?LoadConfig@@YA?AV?$map@V?$basic_string@DU?$char_traits@D@std@@V?$allocator@D@2@@std@@V12@U?$less@V?$basic_string@DU?$char_traits@D@std@@V?$allocator@D@2@@std@@@2@V?$allocator@U?$pair@$$CBV?$basic_string@DU?$char_traits@D@std@@V?$allocator@D@2@@std@@V12@@std@@@2@@std@@V?$basic_string@DU?$char_traits@D@std@@V?$allocator@D@2@@2@@Z 0000000140020000 f   main.obj
 0001:0001f470       ?FramebufferSizeCallback@@YAXPEAUGLFWwindow@@HH@Z 0000000140020470 f   main.obj
 0001:0001f4c0       main                       00000001400204c0 f   main.obj
 0001:0001ff30       ??$?0$$QEAH$$Z$$V@?$pair@$$CBHI@std@@QEAA@Upiecewise_construct_t@1@V?$tuple@$$QEAH@1@V?$tuple@$$V@1@@Z 0000000140020f30 f i main.obj
 0001:0001ff30       ??$?0AEBH$$Z$$V@?$pair@$$CBHI@std@@QEAA@Upiecewise_construct_t@1@V?$tuple@AEBH@1@V?$tuple@$$V@1@@Z 0000000140020f30 f i main.obj
 0001:0001ff80       ??$?0$$QEAV?$basic_string@DU?$char_traits@D@std@@V?$allocator@D@2@@std@@$$Z$$V@?$pair@$$CBV?$basic_string@DU?$char_traits@D@std@@V?$allocator@D@2@@std@@V12@@std@@QEAA@Upiecewise_construct_t@1@V?$tuple@$$QEAV?$basic_string@DU?$char_traits@D@std@@V?$allocator@D@2@@std@@@1@V?$tuple@$$V@1@@Z 0000000140020f80 f i main.obj
 0001:0001ffd0       ??$?0$$V@?$_Compressed_pair@U?$_Wrap_alloc@V?$allocator@D@std@@@std@@V?$_String_val@U?$_Simple_types@D@std@@@2@$00@std@@QEAA@U_Zero_then_variadic_args_t@1@@Z 0000000140020fd0 f i main.obj
 0001:00020000       ??$?0$$V@?$_Compressed_pair@U?$_Wrap_alloc@V?$allocator@D@std@@@std@@V?$_Vector_val@U?$_Simple_types@D@std@@@2@$00@std@@QEAA@U_Zero_then_variadic_args_t@1@@Z 0000000140021000 f i main.obj
 0001:00020030       ??$?0$$V@?$_Compressed_pair@U?$_Wrap_alloc@V?$allocator@U?$_Tree_node@U?$pair@$$CBV?$basic_string@DU?$char_traits@D@std@@V?$allocator@D@2@@std@@V12@@std@@PEAX@std@@@std@@@std@@V?$_Tree_val@U?$_Tree_simple_types@U?$pair@$$CBV?$basic_string@DU?$char_traits@D@std@@V?$allocator@D@2@@std@@V12@@std@@@std@@@2@$00@std@@QEAA@U_Zero_then_variadic_args_t@1@@Z 0000000140021030 f i main.obj
 0001:00020030       ??$?0$$V@?$_Compressed_pair@U?$_Wrap_alloc@V?$allocator@U?$_Tree_node@U?$pair@$$CBHI@std@@PEAX@std@@@std@@@std@@V?$_Tree_val@U?$_Tree_simple_types@U?$pair@$$CBHI@std@@@std@@@2@$00@std@@QEAA@U_Zero_then_variadic_args_t@1@@Z 0000000140021030 f i main.obj
 0001:00020030       ??$?0$$V@?$_Compressed_pair@U?$_Wrap_alloc@V?$allocator@U?$_Tree_node@U?$pair@$$CBH_N@std@@PEAX@std@@@std@@@std@@V?$_Tree_val@U?$_Tree_simple_types@U?$pair@$$CBH_N@std@@@std@@@2@$00@std@@QEAA@U_Zero_then_variadic_args_t@1@@Z 0000000140021030 f i main.obj
 0001:00020060       ??$?0AEAPEAV?$tuple@P6AXPEAUasset_manager@@@ZPEAU1@@std@@@?$_Compressed_pair@U?$default_delete@V?$tuple@P6AXPEAUasset_manager@@@ZPEAU1@@std@@@std@@PEAV?$tuple@P6AXPEAUasset_manager@@@ZPEAU1@@2@$00@std@@QEAA@U_Zero_then_variadic_args_t@1@AEAPEAV?$tuple@P6AXPEAUasset_manager@@@ZPEAU1@@1@@Z 0000000140021060 f i main.obj
 0001:000200a0       ??$?0AEBH$$Z$$V@?$pair@$$CBH_N@std@@QEAA@Upiecewise_construct_t@1@V?$tuple@AEBH@1@V?$tuple@$$V@1@@Z 00000001400210a0 f i main.obj
 0001:000200f0       ??$?0AEBH$0A@@?$tuple@AEBH@std@@QEAA@AEBH@Z 00000001400210f0 f i main.obj
 0001:000200f0       ??$?0AEBV?$basic_string@DU?$char_traits@D@std@@V?$allocator@D@2@@std@@$0A@@?$tuple@AEBV?$basic_string@DU?$char_traits@D@std@@V?$allocator@D@2@@std@@@std@@QEAA@AEBV?$basic_string@DU?$char_traits@D@std@@V?$allocator@D@2@@1@@Z 00000001400210f0 f i main.obj
 0001:00020140       ??$?0AEBU?$less@H@std@@U_Zero_then_variadic_args_t@1@@?$_Compressed_pair@U?$less@H@std@@V?$_Compressed_pair@U?$_Wrap_alloc@V?$allocator@U?$_Tree_node@U?$pair@$$CBHI@std@@PEAX@std@@@std@@@std@@V?$_Tree_val@U?$_Tree_simple_types@U?$pair@$$CBHI@std@@@std@@@2@$00@2@$00@std@@QEAA@U_One_then_variadic_args_t@1@AEBU?$less@H@1@$$QEAU_Zero_then_variadic_args_t@1@@Z 0000000140021140 f i main.obj
 0001:00020140       ??$?0AEBU?$less@V?$basic_string@DU?$char_traits@D@std@@V?$allocator@D@2@@std@@@std@@U_Zero_then_variadic_args_t@1@@?$_Compressed_pair@U?$less@V?$basic_string@DU?$char_traits@D@std@@V?$allocator@D@2@@std@@@std@@V?$_Compressed_pair@U?$_Wrap_alloc@V?$allocator@U?$_Tree_node@U?$pair@$$CBV?$basic_string@DU?$char_traits@D@std@@V?$allocator@D@2@@std@@V12@@std@@PEAX@std@@@std@@@std@@V?$_Tree_val@U?$_Tree_simple_types@U?$pair@$$CBV?$basic_string@DU?$char_traits@D@std@@V?$allocator@D@2@@std@@V12@@std@@@std@@@2@$00@2@$00@std@@QEAA@U_One_then_variadic_args_t@1@AEBU?$less@V?$basic_string@DU?$char_traits@D@std@@V?$allocator@D@2@@std@@@1@$$QEAU_Zero_then_variadic_args_t@1@@Z 0000000140021140 f i main.obj
 0001:00020140       ??$?0AEBU?$less@H@std@@U_Zero_then_variadic_args_t@1@@?$_Compressed_pair@U?$less@H@std@@V?$_Compressed_pair@U?$_Wrap_alloc@V?$allocator@U?$_Tree_node@U?$pair@$$CBH_N@std@@PEAX@std@@@std@@@std@@V?$_Tree_val@U?$_Tree_simple_types@U?$pair@$$CBH_N@std@@@std@@@2@$00@2@$00@std@@QEAA@U_One_then_variadic_args_t@1@AEBU?$less@H@1@$$QEAU_Zero_then_variadic_args_t@1@@Z 0000000140021140 f i main.obj
 0001:00020190       ??$?0AEBU?$less@V?$basic_string@DU?$char_traits@D@std@@V?$allocator@D@2@@std@@@std@@U_One_then_variadic_args_t@1@U?$_Wrap_alloc@V?$allocator@U?$_Tree_node@U?$pair@$$CBV?$basic_string@DU?$char_traits@D@std@@V?$allocator@D@2@@std@@V12@@std@@PEAX@std@@@std@@@1@@?$_Compressed_pair@U?$less@V?$basic_string@DU?$char_traits@D@std@@V?$allocator@D@2@@std@@@std@@V?$_Compressed_pair@U?$_Wrap_alloc@V?$allocator@U?$_Tree_node@U?$pair@$$CBV?$basic_string@DU?$char_traits@D@std@@V?$allocator@D@2@@std@@V12@@std@@PEAX@std@@@std@@@std@@V?$_Tree_val@U?$_Tree_simple_types@U?$pair@$$CBV?$basic_string@DU?$char_traits@D@std@@V?$allocator@D@2@@std@@V12@@std@@@std@@@2@$00@2@$00@std@@QEAA@U_One_then_variadic_args_t@1@AEBU?$less@V?$basic_string@DU?$char_traits@D@std@@V?$allocator@D@2@@std@@@1@$$QEAU21@$$QEAU?$_Wrap_alloc@V?$allocator@U?$_Tree_node@U?$pair@$$CBV?$basic_string@DU?$char_traits@D@std@@V?$allocator@D@2@@std@@V12@@std@@PEAX@std@@@std@@@1@@Z 0000000140021190 f i main.obj
 0001:000201f0       ??$?0AEBV?$basic_string@DU?$char_traits@D@std@@V?$allocator@D@2@@std@@$$Z$$V@?$pair@$$CBV?$basic_string@DU?$char_traits@D@std@@V?$allocator@D@2@@std@@V12@@std@@QEAA@Upiecewise_construct_t@1@V?$tuple@AEBV?$basic_string@DU?$char_traits@D@std@@V?$allocator@D@2@@std@@@1@V?$tuple@$$V@1@@Z 00000001400211f0 f i main.obj
 0001:00020240       ??$?0V?$basic_string@DU?$char_traits@D@std@@V?$allocator@D@2@@std@@@?$_Tuple_val@$$QEAV?$basic_string@DU?$char_traits@D@std@@V?$allocator@D@2@@std@@@std@@QEAA@$$QEAV?$basic_string@DU?$char_traits@D@std@@V?$allocator@D@2@@1@@Z 0000000140021240 f i main.obj
 0001:00020240       ??$?0AEBV?$basic_string@DU?$char_traits@D@std@@V?$allocator@D@2@@std@@@?$_Tuple_val@AEBV?$basic_string@DU?$char_traits@D@std@@V?$allocator@D@2@@std@@@std@@QEAA@AEBV?$basic_string@DU?$char_traits@D@std@@V?$allocator@D@2@@1@@Z 0000000140021240 f i main.obj
 0001:00020240       ??$?0H@?$_Tuple_val@$$QEAH@std@@QEAA@$$QEAH@Z 0000000140021240 f i main.obj
 0001:00020240       ??$?0AEBH@?$_Tuple_val@AEBH@std@@QEAA@AEBH@Z 0000000140021240 f i main.obj
 0001:00020270       ??$?0HH@?$tvec2@M$0A@@glm@@QEAA@HH@Z 0000000140021270 f i main.obj
 0001:000202b0       ??$?0HHH@?$tvec3@M$0A@@glm@@QEAA@HHH@Z 00000001400212b0 f i main.obj
 0001:00020300       ??$?0HHHH@?$tvec4@M$0A@@glm@@QEAA@HHHH@Z 0000000140021300 f i main.obj
 0001:00020360       ??$?0HHHM@?$tvec4@M$0A@@glm@@QEAA@HHHM@Z 0000000140021360 f i main.obj
 0001:000203c0       ??$?0HHM@?$tvec3@M$0A@@glm@@QEAA@HHM@Z 00000001400213c0 f i main.obj
 0001:00020410       ??$?0HHMH@?$tvec4@M$0A@@glm@@QEAA@HHMH@Z 0000000140021410 f i main.obj
 0001:00020470       ??$?0HMHH@?$tvec4@M$0A@@glm@@QEAA@HMHH@Z 0000000140021470 f i main.obj
 0001:000204d0       ??$?0HNH@?$tvec3@M$0A@@glm@@QEAA@HNH@Z 00000001400214d0 f i main.obj
 0001:00020520       ??$?0HW4Key_Mode@@X$0A@@?$pair@$$CBHI@std@@QEAA@$$QEAH$$QEAW4Key_Mode@@@Z 0000000140021520 f i main.obj
 0001:00020570       ??$?0H_NX$0A@@?$pair@$$CBH_N@std@@QEAA@$$QEAH$$QEA_N@Z 0000000140021570 f i main.obj
 0001:000205c0       ??$?0MH@?$tvec2@M$0A@@glm@@QEAA@MH@Z 00000001400215c0 f i main.obj
 0001:00020600       ??$?0MHHH@?$tvec4@M$0A@@glm@@QEAA@MHHH@Z 0000000140021600 f i main.obj
 0001:00020660       ??$?0NNNN@?$tvec4@M$0A@@glm@@QEAA@NNNN@Z 0000000140021660 f i main.obj
 0001:000206c0       ??$?0OX@?$duration@NU?$ratio@$00$00@std@@@chrono@std@@QEAA@AEBO@Z 00000001400216c0 f i main.obj
 0001:000206c0       ??$?0NX@?$duration@NU?$ratio@$00$00@std@@@chrono@std@@QEAA@AEBN@Z 00000001400216c0 f i main.obj
 0001:000206f0       ??$?0PEAUasset_manager@@@?$_Tuple_val@PEAUasset_manager@@@std@@QEAA@$$QEAPEAUasset_manager@@@Z 00000001400216f0 f i main.obj
 0001:000206f0       ??$?0P6AXPEAUasset_manager@@@Z@?$_Tuple_val@P6AXPEAUasset_manager@@@Z@std@@QEAA@$$QEAP6AXPEAUasset_manager@@@Z@Z 00000001400216f0 f i main.obj
 0001:00020720       ??$?0P6AXPEAUasset_manager@@@ZPEAU0@$0A@@?$tuple@P6AXPEAUasset_manager@@@ZPEAU1@@std@@QEAA@$$QEAP6AXPEAUasset_manager@@@Z$$QEAPEAU2@@Z 0000000140021720 f i main.obj
 0001:00020790       ??$?0P6AXPEAUasset_manager@@@ZPEAU0@X@thread@std@@QEAA@$$QEAP6AXPEAUasset_manager@@@Z$$QEAPEAU2@@Z 0000000140021790 f i main.obj
 0001:00020810       ??$?0PEAV?$tuple@P6AXPEAUasset_manager@@@ZPEAU1@@std@@@?$_Unique_ptr_base@V?$tuple@P6AXPEAUasset_manager@@@ZPEAU1@@std@@U?$default_delete@V?$tuple@P6AXPEAUasset_manager@@@ZPEAU1@@std@@@2@@std@@QEAA@PEAV?$tuple@P6AXPEAUasset_manager@@@ZPEAU1@@1@@Z 0000000140021810 f i main.obj
 0001:00020840       ??$?0PEAV?$tuple@P6AXPEAUasset_manager@@@ZPEAU1@@std@@U?$default_delete@V?$tuple@P6AXPEAUasset_manager@@@ZPEAU1@@std@@@1@@?$_Unique_ptr_base@V?$tuple@P6AXPEAUasset_manager@@@ZPEAU1@@std@@U?$default_delete@V?$tuple@P6AXPEAUasset_manager@@@ZPEAU1@@std@@@2@@std@@QEAA@PEAV?$tuple@P6AXPEAUasset_manager@@@ZPEAU1@@1@$$QEAU?$default_delete@V?$tuple@P6AXPEAUasset_manager@@@ZPEAU1@@std@@@1@@Z 0000000140021840 f i main.obj
 0001:00020880       ??$?0AEBV?$allocator@D@std@@$$V@?$_Compressed_pair@U?$_Wrap_alloc@V?$allocator@D@std@@@std@@V?$_String_val@U?$_Simple_types@D@std@@@2@$00@std@@QEAA@U_One_then_variadic_args_t@1@AEBV?$allocator@D@1@@Z 0000000140021880 f i main.obj
 0001:00020880       ??$?0U?$_Wrap_alloc@V?$allocator@D@std@@@std@@$$V@?$_Compressed_pair@U?$_Wrap_alloc@V?$allocator@D@std@@@std@@V?$_String_val@U?$_Simple_types@D@std@@@2@$00@std@@QEAA@U_One_then_variadic_args_t@1@$$QEAU?$_Wrap_alloc@V?$allocator@D@std@@@1@@Z 0000000140021880 f i main.obj
 0001:000208c0       ??$?0U?$_Wrap_alloc@V?$allocator@D@std@@@std@@X@?$_String_alloc@U?$_String_base_types@DV?$allocator@D@std@@@std@@@std@@QEAA@$$QEAU?$_Wrap_alloc@V?$allocator@D@std@@@1@@Z 00000001400218c0 f i main.obj
 0001:000208c0       ??$?0AEBV?$allocator@D@std@@X@?$_String_alloc@U?$_String_base_types@DV?$allocator@D@std@@@std@@@std@@QEAA@AEBV?$allocator@D@1@@Z 00000001400218c0 f i main.obj
 0001:00020900       ??$?0U?$_Wrap_alloc@V?$allocator@U?$_Tree_node@U?$pair@$$CBV?$basic_string@DU?$char_traits@D@std@@V?$allocator@D@2@@std@@V12@@std@@PEAX@std@@@std@@@std@@$$V@?$_Compressed_pair@U?$_Wrap_alloc@V?$allocator@U?$_Tree_node@U?$pair@$$CBV?$basic_string@DU?$char_traits@D@std@@V?$allocator@D@2@@std@@V12@@std@@PEAX@std@@@std@@@std@@V?$_Tree_val@U?$_Tree_simple_types@U?$pair@$$CBV?$basic_string@DU?$char_traits@D@std@@V?$allocator@D@2@@std@@V12@@std@@@std@@@2@$00@std@@QEAA@U_One_then_variadic_args_t@1@$$QEAU?$_Wrap_alloc@V?$allocator@U?$_Tree_node@U?$pair@$$CBV?$basic_string@DU?$char_traits@D@std@@V?$allocator@D@2@@std@@V12@@std@@PEAX@std@@@std@@@1@@Z 0000000140021900 f i main.obj
 0001:00020940       ??$?0U?$_Wrap_alloc@V?$allocator@U?$_Tree_node@U?$pair@$$CBV?$basic_string@DU?$char_traits@D@std@@V?$allocator@D@2@@std@@V12@@std@@PEAX@std@@@std@@@std@@X@?$_Tree_comp_alloc@V?$_Tmap_traits@V?$basic_string@DU?$char_traits@D@std@@V?$allocator@D@2@@std@@V12@U?$less@V?$basic_string@DU?$char_traits@D@std@@V?$allocator@D@2@@std@@@2@V?$allocator@U?$pair@$$CBV?$basic_string@DU?$char_traits@D@std@@V?$allocator@D@2@@std@@V12@@std@@@2@$0A@@std@@@std@@QEAA@AEBU?$less@V?$basic_string@DU?$char_traits@D@std@@V?$allocator@D@2@@std@@@1@$$QEAU?$_Wrap_alloc@V?$allocator@U?$_Tree_node@U?$pair@$$CBV?$basic_string@DU?$char_traits@D@std@@V?$allocator@D@2@@std@@V12@@std@@PEAX@std@@@std@@@1@@Z 0000000140021940 f i main.obj
 0001:00020990       ??$?0U?$default_delete@V?$tuple@P6AXPEAUasset_manager@@@ZPEAU1@@std@@@std@@AEAPEAV?$tuple@P6AXPEAUasset_manager@@@ZPEAU1@@1@@?$_Compressed_pair@U?$default_delete@V?$tuple@P6AXPEAUasset_manager@@@ZPEAU1@@std@@@std@@PEAV?$tuple@P6AXPEAUasset_manager@@@ZPEAU1@@2@$00@std@@QEAA@U_One_then_variadic_args_t@1@$$QEAU?$default_delete@V?$tuple@P6AXPEAUasset_manager@@@ZPEAU1@@std@@@1@AEAPEAV?$tuple@P6AXPEAUasset_manager@@@ZPEAU1@@1@@Z 0000000140021990 f i main.obj
 0001:000209d0       ??$?0U_Exact_args_t@std@@$0A@@?$tuple@$$V@std@@QEAA@U_Exact_args_t@1@@Z 00000001400219d0 f i main.obj
 0001:000209e0       ??$?0U_Exact_args_t@std@@PEAUasset_manager@@$$V$0A@@?$tuple@PEAUasset_manager@@@std@@QEAA@U_Exact_args_t@1@$$QEAPEAUasset_manager@@@Z 00000001400219e0 f i main.obj
 0001:00020a40       ??$?0V?$_Tree_iterator@V?$_Tree_val@U?$_Tree_simple_types@U?$pair@$$CBV?$basic_string@DU?$char_traits@D@std@@V?$allocator@D@2@@std@@V12@@std@@@std@@@std@@@std@@_NX$0A@@?$pair@V?$_Tree_iterator@V?$_Tree_val@U?$_Tree_simple_types@U?$pair@$$CBV?$basic_string@DU?$char_traits@D@std@@V?$allocator@D@2@@std@@V12@@std@@@std@@@std@@@std@@_N@std@@QEAA@$$QEAV?$_Tree_iterator@V?$_Tree_val@U?$_Tree_simple_types@U?$pair@$$CBV?$basic_string@DU?$char_traits@D@std@@V?$allocator@D@2@@std@@V12@@std@@@std@@@std@@@1@$$QEA_N@Z 0000000140021a40 f i main.obj
 0001:00020a40       ??$?0V?$_Tree_iterator@V?$_Tree_val@U?$_Tree_simple_types@U?$pair@$$CBHI@std@@@std@@@std@@@std@@_NX$0A@@?$pair@V?$_Tree_iterator@V?$_Tree_val@U?$_Tree_simple_types@U?$pair@$$CBHI@std@@@std@@@std@@@std@@_N@std@@QEAA@$$QEAV?$_Tree_iterator@V?$_Tree_val@U?$_Tree_simple_types@U?$pair@$$CBHI@std@@@std@@@std@@@1@$$QEA_N@Z 0000000140021a40 f i main.obj
 0001:00020a40       ??$?0V?$_Tree_iterator@V?$_Tree_val@U?$_Tree_simple_types@U?$pair@$$CBH_N@std@@@std@@@std@@@std@@_NX$0A@@?$pair@V?$_Tree_iterator@V?$_Tree_val@U?$_Tree_simple_types@U?$pair@$$CBH_N@std@@@std@@@std@@@std@@_N@std@@QEAA@$$QEAV?$_Tree_iterator@V?$_Tree_val@U?$_Tree_simple_types@U?$pair@$$CBH_N@std@@@std@@@std@@@1@$$QEA_N@Z 0000000140021a40 f i main.obj
 0001:00020a40       ??$?0AEAV?$_Tree_iterator@V?$_Tree_val@U?$_Tree_simple_types@U?$pair@$$CBH_N@std@@@std@@@std@@@std@@_NX$0A@@?$pair@V?$_Tree_iterator@V?$_Tree_val@U?$_Tree_simple_types@U?$pair@$$CBH_N@std@@@std@@@std@@@std@@_N@std@@QEAA@AEAV?$_Tree_iterator@V?$_Tree_val@U?$_Tree_simple_types@U?$pair@$$CBH_N@std@@@std@@@std@@@1@$$QEA_N@Z 0000000140021a40 f i main.obj
 0001:00020a40       ??$?0AEAV?$_Tree_iterator@V?$_Tree_val@U?$_Tree_simple_types@U?$pair@$$CBHI@std@@@std@@@std@@@std@@_NX$0A@@?$pair@V?$_Tree_iterator@V?$_Tree_val@U?$_Tree_simple_types@U?$pair@$$CBHI@std@@@std@@@std@@@std@@_N@std@@QEAA@AEAV?$_Tree_iterator@V?$_Tree_val@U?$_Tree_simple_types@U?$pair@$$CBHI@std@@@std@@@std@@@1@$$QEA_N@Z 0000000140021a40 f i main.obj
 0001:00020a40       ??$?0AEAV?$_Tree_iterator@V?$_Tree_val@U?$_Tree_simple_types@U?$pair@$$CBV?$basic_string@DU?$char_traits@D@std@@V?$allocator@D@2@@std@@V12@@std@@@std@@@std@@@std@@_NX$0A@@?$pair@V?$_Tree_iterator@V?$_Tree_val@U?$_Tree_simple_types@U?$pair@$$CBV?$basic_string@DU?$char_traits@D@std@@V?$allocator@D@2@@std@@V12@@std@@@std@@@std@@@std@@_N@std@@QEAA@AEAV?$_Tree_iterator@V?$_Tree_val@U?$_Tree_simple_types@U?$pair@$$CBV?$basic_string@DU?$char_traits@D@std@@V?$allocator@D@2@@std@@V12@@std@@@std@@@std@@@1@$$QEA_N@Z 0000000140021a40 f i main.obj
 0001:00020a90       ??0?$_Wrap_alloc@V?$allocator@U?$_Tree_node@U?$pair@$$CBV?$basic_string@DU?$char_traits@D@std@@V?$allocator@D@2@@std@@V12@@std@@PEAX@std@@@std@@@std@@QEAA@$$QEAU01@@Z 0000000140021a90 f i main.obj
 0001:00020a90       ??0?$_Wrap_alloc@V?$allocator@D@std@@@std@@QEAA@$$QEAU01@@Z 0000000140021a90 f i main.obj
 0001:00020a90       ??$?0AEBV?$allocator@D@std@@@?$_Wrap_alloc@V?$allocator@D@std@@@std@@QEAA@AEBV?$allocator@D@1@@Z 0000000140021a90 f i main.obj
 0001:00020a90       ??$?0V?$allocator@D@std@@@?$_Wrap_alloc@V?$allocator@D@std@@@std@@QEAA@$$QEAV?$allocator@D@1@@Z 0000000140021a90 f i main.obj
 0001:00020ac0       ??$?0V?$basic_string@DU?$char_traits@D@std@@V?$allocator@D@2@@std@@$$V$0A@@?$tuple@$$QEAV?$basic_string@DU?$char_traits@D@std@@V?$allocator@D@2@@std@@@std@@QEAA@$$QEAV?$basic_string@DU?$char_traits@D@std@@V?$allocator@D@2@@1@@Z 0000000140021ac0 f i main.obj
 0001:00020ac0       ??$?0H$$V$0A@@?$tuple@$$QEAH@std@@QEAA@$$QEAH@Z 0000000140021ac0 f i main.obj
 0001:00020b20       ??$?0V?$tuple@$$QEAH@std@@V?$tuple@$$V@1@$0A@$$Z$S@?$pair@$$CBHI@std@@QEAA@AEAV?$tuple@$$QEAH@1@AEAV?$tuple@$$V@1@U?$integer_sequence@_K$0A@@1@U?$integer_sequence@_K$S@1@@Z 0000000140021b20 f i main.obj
 0001:00020b20       ??$?0V?$tuple@AEBH@std@@V?$tuple@$$V@1@$0A@$$Z$S@?$pair@$$CBHI@std@@QEAA@AEAV?$tuple@AEBH@1@AEAV?$tuple@$$V@1@U?$integer_sequence@_K$0A@@1@U?$integer_sequence@_K$S@1@@Z 0000000140021b20 f i main.obj
 0001:00020b70       ??$?0V?$tuple@$$QEAV?$basic_string@DU?$char_traits@D@std@@V?$allocator@D@2@@std@@@std@@V?$tuple@$$V@1@$0A@$$Z$S@?$pair@$$CBV?$basic_string@DU?$char_traits@D@std@@V?$allocator@D@2@@std@@V12@@std@@QEAA@AEAV?$tuple@$$QEAV?$basic_string@DU?$char_traits@D@std@@V?$allocator@D@2@@std@@@1@AEAV?$tuple@$$V@1@U?$integer_sequence@_K$0A@@1@U?$integer_sequence@_K$S@1@@Z 0000000140021b70 f i main.obj
 0001:00020bd0       ??$?0V?$tuple@AEBH@std@@V?$tuple@$$V@1@$0A@$$Z$S@?$pair@$$CBH_N@std@@QEAA@AEAV?$tuple@AEBH@1@AEAV?$tuple@$$V@1@U?$integer_sequence@_K$0A@@1@U?$integer_sequence@_K$S@1@@Z 0000000140021bd0 f i main.obj
 0001:00020c20       ??$?0V?$tuple@AEBV?$basic_string@DU?$char_traits@D@std@@V?$allocator@D@2@@std@@@std@@V?$tuple@$$V@1@$0A@$$Z$S@?$pair@$$CBV?$basic_string@DU?$char_traits@D@std@@V?$allocator@D@2@@std@@V12@@std@@QEAA@AEAV?$tuple@AEBV?$basic_string@DU?$char_traits@D@std@@V?$allocator@D@2@@std@@@1@AEAV?$tuple@$$V@1@U?$integer_sequence@_K$0A@@1@U?$integer_sequence@_K$S@1@@Z 0000000140021c20 f i main.obj
 0001:00020c80       ??$?0V?$unique_ptr@V?$tuple@P6AXPEAUasset_manager@@@ZPEAU1@@std@@U?$default_delete@V?$tuple@P6AXPEAUasset_manager@@@ZPEAU1@@std@@@2@@std@@@?$_LaunchPad@V?$unique_ptr@V?$tuple@P6AXPEAUasset_manager@@@ZPEAU1@@std@@U?$default_delete@V?$tuple@P6AXPEAUasset_manager@@@ZPEAU1@@std@@@2@@std@@@std@@QEAA@$$QEAV?$unique_ptr@V?$tuple@P6AXPEAUasset_manager@@@ZPEAU1@@std@@U?$default_delete@V?$tuple@P6AXPEAUasset_manager@@@ZPEAU1@@std@@@2@@1@@Z 0000000140021c80 f i main.obj
 0001:00020cd0       ??$?0_JU?$ratio@$00$00@std@@X@?$duration@_JU?$ratio@$00$0DLJKMKAA@@std@@@chrono@std@@QEAA@AEBV?$duration@_JU?$ratio@$00$00@std@@@12@@Z 0000000140021cd0 f i main.obj
 0001:00020d10       ??$?0_JU?$ratio@$00$0JIJGIA@@std@@X@?$duration@_JU?$ratio@$00$0DLJKMKAA@@std@@@chrono@std@@QEAA@AEBV?$duration@_JU?$ratio@$00$0JIJGIA@@std@@@12@@Z 0000000140021d10 f i main.obj
 0001:00020d50       ??$?0_JX@?$duration@_JU?$ratio@$00$00@std@@@chrono@std@@QEAA@AEB_J@Z 0000000140021d50 f i main.obj
 0001:00020d50       ??$?0_JX@?$duration@_JU?$ratio@$00$0JIJGIA@@std@@@chrono@std@@QEAA@AEB_J@Z 0000000140021d50 f i main.obj
 0001:00020d50       ??$?0_JX@?$duration@_JU?$ratio@$00$0DLJKMKAA@@std@@@chrono@std@@QEAA@AEB_J@Z 0000000140021d50 f i main.obj
 0001:00020d70       ??$?6DU?$char_traits@D@std@@V?$allocator@D@1@@std@@YAAEAV?$basic_ostream@DU?$char_traits@D@std@@@0@AEAV10@AEBV?$basic_string@DU?$char_traits@D@std@@V?$allocator@D@2@@0@@Z 0000000140021d70 f i main.obj
 0001:00021120       ??$?6U?$char_traits@D@std@@@std@@YAAEAV?$basic_ostream@DU?$char_traits@D@std@@@0@AEAV10@D@Z 0000000140022120 f i main.obj
 0001:000214a0       ??$?6U?$char_traits@D@std@@@std@@YAAEAV?$basic_ostream@DU?$char_traits@D@std@@@0@AEAV10@PEBD@Z 00000001400224a0 f i main.obj
 0001:00021850       ??$?8DD@std@@YA_NAEBV?$allocator@D@0@0@Z 0000000140022850 f i main.obj
 0001:00021850       ??$?8U?$_Tree_node@U?$pair@$$CBHI@std@@PEAX@std@@U01@@std@@YA_NAEBV?$allocator@U?$_Tree_node@U?$pair@$$CBHI@std@@PEAX@std@@@0@0@Z 0000000140022850 f i main.obj
 0001:00021850       ??$?8U?$_Tree_node@U?$pair@$$CBH_N@std@@PEAX@std@@U01@@std@@YA_NAEBV?$allocator@U?$_Tree_node@U?$pair@$$CBH_N@std@@PEAX@std@@@0@0@Z 0000000140022850 f i main.obj
 0001:00021860       ??$?8V?$allocator@U?$_Tree_node@U?$pair@$$CBH_N@std@@PEAX@std@@@std@@V01@@std@@YA_NAEBU?$_Wrap_alloc@V?$allocator@U?$_Tree_node@U?$pair@$$CBH_N@std@@PEAX@std@@@std@@@0@0@Z 0000000140022860 f i main.obj
 0001:00021860       ??$?8V?$allocator@D@std@@V01@@std@@YA_NAEBU?$_Wrap_alloc@V?$allocator@D@std@@@0@0@Z 0000000140022860 f i main.obj
 0001:00021860       ??$?8V?$allocator@U?$_Tree_node@U?$pair@$$CBHI@std@@PEAX@std@@@std@@V01@@std@@YA_NAEBU?$_Wrap_alloc@V?$allocator@U?$_Tree_node@U?$pair@$$CBHI@std@@PEAX@std@@@std@@@0@0@Z 0000000140022860 f i main.obj
 0001:00021890       ??$?9V?$allocator@D@std@@V01@@std@@YA_NAEBU?$_Wrap_alloc@V?$allocator@D@std@@@0@0@Z 0000000140022890 f i main.obj
 0001:00021890       ??$?9V?$allocator@U?$_Tree_node@U?$pair@$$CBHI@std@@PEAX@std@@@std@@V01@@std@@YA_NAEBU?$_Wrap_alloc@V?$allocator@U?$_Tree_node@U?$pair@$$CBHI@std@@PEAX@std@@@std@@@0@0@Z 0000000140022890 f i main.obj
 0001:00021890       ??$?9V?$allocator@U?$_Tree_node@U?$pair@$$CBH_N@std@@PEAX@std@@@std@@V01@@std@@YA_NAEBU?$_Wrap_alloc@V?$allocator@U?$_Tree_node@U?$pair@$$CBH_N@std@@PEAX@std@@@std@@@0@0@Z 0000000140022890 f i main.obj
 0001:000218d0       ??$?DM$0A@@glm@@YA?AU?$tmat4x4@M$0A@@0@AEBU10@0@Z 00000001400228d0 f i main.obj
 0001:00021f20       ??$?DM$0A@@glm@@YA?AU?$tvec2@M$0A@@0@AEBU10@0@Z 0000000140022f20 f i main.obj
 0001:00021f70       ??$?DM$0A@@glm@@YA?AU?$tvec2@M$0A@@0@AEBU10@M@Z 0000000140022f70 f i main.obj
 0001:00021fc0       ??$?DM$0A@@glm@@YA?AU?$tvec2@M$0A@@0@MAEBU10@@Z 0000000140022fc0 f i main.obj
 0001:00022010       ??$?DM$0A@@glm@@YA?AU?$tvec3@M$0A@@0@AEBU10@0@Z 0000000140023010 f i main.obj
 0001:00022090       ??$?DM$0A@@glm@@YA?AU?$tvec3@M$0A@@0@AEBU10@M@Z 0000000140023090 f i main.obj
 0001:00022100       ??$?DM$0A@@glm@@YA?AU?$tvec3@M$0A@@0@MAEBU10@@Z 0000000140023100 f i main.obj
 0001:00022170       ??$?DM$0A@@glm@@YA?AU?$tvec4@M$0A@@0@AEBU10@0@Z 0000000140023170 f i main.obj
 0001:000221d0       ??$?DM$0A@@glm@@YA?AU?$tvec4@M$0A@@0@AEBU10@M@Z 00000001400231d0 f i main.obj
 0001:00022230       ??$?DM$0A@@glm@@YA?AU?$tvec4@M$0A@@0@MAEBU10@@Z 0000000140023230 f i main.obj
 0001:00022290       ??$?GM$0A@@glm@@YA?AU?$tvec2@M$0A@@0@AEBU10@0@Z 0000000140023290 f i main.obj
 0001:000222e0       ??$?GM$0A@@glm@@YA?AU?$tvec2@M$0A@@0@AEBU10@M@Z 00000001400232e0 f i main.obj
 0001:00022330       ??$?GM$0A@@glm@@YA?AU?$tvec4@M$0A@@0@AEBU10@0@Z 0000000140023330 f i main.obj
 0001:00022390       ??$?GM$0A@@glm@@YA?AU?$tvec4@M$0A@@0@AEBU10@M@Z 0000000140023390 f i main.obj
 0001:000223f0       ??$?GM$0A@@glm@@YA?AU?$tvec4@M$0A@@0@MAEBU10@@Z 00000001400233f0 f i main.obj
 0001:00022440       ??$?HDU?$char_traits@D@std@@V?$allocator@D@1@@std@@YA?AV?$basic_string@DU?$char_traits@D@std@@V?$allocator@D@2@@0@$$QEAV10@AEBV10@@Z 0000000140023440 f i main.obj
 0001:000224a0       ??$?HDU?$char_traits@D@std@@V?$allocator@D@1@@std@@YA?AV?$basic_string@DU?$char_traits@D@std@@V?$allocator@D@2@@0@AEBV10@$$QEAV10@@Z 00000001400234a0 f i main.obj
 0001:00022500       ??$?HM$0A@@glm@@YA?AU?$tvec2@M$0A@@0@AEBU10@0@Z 0000000140023500 f i main.obj
 0001:00022550       ??$?HM$0A@@glm@@YA?AU?$tvec2@M$0A@@0@AEBU10@M@Z 0000000140023550 f i main.obj
 0001:000225a0       ??$?HM$0A@@glm@@YA?AU?$tvec4@M$0A@@0@AEBU10@0@Z 00000001400235a0 f i main.obj
 0001:00022600       ??$?HM$0A@@glm@@YA?AU?$tvec4@M$0A@@0@AEBU10@M@Z 0000000140023600 f i main.obj
 0001:00022660       ??$?KM$0A@@glm@@YA?AU?$tvec4@M$0A@@0@AEBU10@0@Z 0000000140023660 f i main.obj
 0001:000226c0       ??$?KM$0A@@glm@@YA?AU?$tvec4@M$0A@@0@AEBU10@M@Z 00000001400236c0 f i main.obj
 0001:00022720       ??$?MDU?$char_traits@D@std@@V?$allocator@D@1@@std@@YA_NAEBV?$basic_string@DU?$char_traits@D@std@@V?$allocator@D@2@@0@0@Z 0000000140023720 f i main.obj
 0001:00022760       ??$?MNU?$ratio@$00$00@std@@NU01@@chrono@std@@YA_NAEBV?$duration@NU?$ratio@$00$00@std@@@01@0@Z 0000000140023760 f i main.obj
 0001:000227d0       ??$?NNU?$ratio@$00$00@std@@NU01@@chrono@std@@YA_NAEBV?$duration@NU?$ratio@$00$00@std@@@01@0@Z 00000001400237d0 f i main.obj
 0001:00022810       ??$?XM@?$tvec2@M$0A@@glm@@QEAAAEAU01@M@Z 0000000140023810 f i main.obj
 0001:00022860       ??$?XM@?$tvec4@M$0A@@glm@@QEAAAEAU01@AEBU01@@Z 0000000140023860 f i main.obj
 0001:000228c0       ??$?XM@?$tvec4@M$0A@@glm@@QEAAAEAU01@M@Z 00000001400238c0 f i main.obj
 0001:00022910       ??$?YM@?$tvec4@M$0A@@glm@@QEAAAEAU01@AEBU01@@Z 0000000140023910 f i main.obj
 0001:00022970       ??$?YM@?$tvec4@M$0A@@glm@@QEAAAEAU01@M@Z 0000000140023970 f i main.obj
 0001:000229c0       ??$?ZM@?$tvec4@M$0A@@glm@@QEAAAEAU01@AEBU01@@Z 00000001400239c0 f i main.obj
 0001:00022a20       ??$?ZM@?$tvec4@M$0A@@glm@@QEAAAEAU01@M@Z 0000000140023a20 f i main.obj
 0001:00022a70       ??$?_0M@?$tvec4@M$0A@@glm@@QEAAAEAU01@AEBU01@@Z 0000000140023a70 f i main.obj
 0001:00022ad0       ??$?_0M@?$tvec4@M$0A@@glm@@QEAAAEAU01@M@Z 0000000140023ad0 f i main.obj
 0001:00022b20       ??$_Buynode@AEAU?$pair@$$CBHI@std@@@?$_Tree_comp_alloc@V?$_Tmap_traits@HIU?$less@H@std@@V?$allocator@U?$pair@$$CBHI@std@@@2@$0A@@std@@@std@@QEAAPEAU?$_Tree_node@U?$pair@$$CBHI@std@@PEAX@1@AEAU?$pair@$$CBHI@1@@Z 0000000140023b20 f i main.obj
 0001:00022bc0       ??$_Buynode@AEAU?$pair@$$CBH_N@std@@@?$_Tree_comp_alloc@V?$_Tmap_traits@H_NU?$less@H@std@@V?$allocator@U?$pair@$$CBH_N@std@@@2@$0A@@std@@@std@@QEAAPEAU?$_Tree_node@U?$pair@$$CBH_N@std@@PEAX@1@AEAU?$pair@$$CBH_N@1@@Z 0000000140023bc0 f i main.obj
 0001:00022c60       ??$_Buynode@AEBU?$pair@$$CBHI@std@@@?$_Tree_comp_alloc@V?$_Tmap_traits@HIU?$less@H@std@@V?$allocator@U?$pair@$$CBHI@std@@@2@$0A@@std@@@std@@QEAAPEAU?$_Tree_node@U?$pair@$$CBHI@std@@PEAX@1@AEBU?$pair@$$CBHI@1@@Z 0000000140023c60 f i main.obj
 0001:00022d00       ??$_Buynode@AEBU?$pair@$$CBH_N@std@@@?$_Tree_comp_alloc@V?$_Tmap_traits@H_NU?$less@H@std@@V?$allocator@U?$pair@$$CBH_N@std@@@2@$0A@@std@@@std@@QEAAPEAU?$_Tree_node@U?$pair@$$CBH_N@std@@PEAX@1@AEBU?$pair@$$CBH_N@1@@Z 0000000140023d00 f i main.obj
 0001:00022da0       ??$_Buynode@AEBUpiecewise_construct_t@std@@V?$tuple@$$QEAH@2@V?$tuple@$$V@2@@?$_Tree_comp_alloc@V?$_Tmap_traits@HIU?$less@H@std@@V?$allocator@U?$pair@$$CBHI@std@@@2@$0A@@std@@@std@@QEAAPEAU?$_Tree_node@U?$pair@$$CBHI@std@@PEAX@1@AEBUpiecewise_construct_t@1@$$QEAV?$tuple@$$QEAH@1@$$QEAV?$tuple@$$V@1@@Z 0000000140023da0 f i main.obj
 0001:00022e90       ??$_Buynode@AEBUpiecewise_construct_t@std@@V?$tuple@$$QEAV?$basic_string@DU?$char_traits@D@std@@V?$allocator@D@2@@std@@@2@V?$tuple@$$V@2@@?$_Tree_comp_alloc@V?$_Tmap_traits@V?$basic_string@DU?$char_traits@D@std@@V?$allocator@D@2@@std@@V12@U?$less@V?$basic_string@DU?$char_traits@D@std@@V?$allocator@D@2@@std@@@2@V?$allocator@U?$pair@$$CBV?$basic_string@DU?$char_traits@D@std@@V?$allocator@D@2@@std@@V12@@std@@@2@$0A@@std@@@std@@QEAAPEAU?$_Tree_node@U?$pair@$$CBV?$basic_string@DU?$char_traits@D@std@@V?$allocator@D@2@@std@@V12@@std@@PEAX@1@AEBUpiecewise_construct_t@1@$$QEAV?$tuple@$$QEAV?$basic_string@DU?$char_traits@D@std@@V?$allocator@D@2@@std@@@1@$$QEAV?$tuple@$$V@1@@Z 0000000140023e90 f i main.obj
 0001:00022f80       ??$_Buynode@AEBUpiecewise_construct_t@std@@V?$tuple@AEBH@2@V?$tuple@$$V@2@@?$_Tree_comp_alloc@V?$_Tmap_traits@HIU?$less@H@std@@V?$allocator@U?$pair@$$CBHI@std@@@2@$0A@@std@@@std@@QEAAPEAU?$_Tree_node@U?$pair@$$CBHI@std@@PEAX@1@AEBUpiecewise_construct_t@1@$$QEAV?$tuple@AEBH@1@$$QEAV?$tuple@$$V@1@@Z 0000000140023f80 f i main.obj
 0001:00023070       ??$_Buynode@AEBUpiecewise_construct_t@std@@V?$tuple@AEBH@2@V?$tuple@$$V@2@@?$_Tree_comp_alloc@V?$_Tmap_traits@H_NU?$less@H@std@@V?$allocator@U?$pair@$$CBH_N@std@@@2@$0A@@std@@@std@@QEAAPEAU?$_Tree_node@U?$pair@$$CBH_N@std@@PEAX@1@AEBUpiecewise_construct_t@1@$$QEAV?$tuple@AEBH@1@$$QEAV?$tuple@$$V@1@@Z 0000000140024070 f i main.obj
 0001:00023160       ??$_Buynode@AEBUpiecewise_construct_t@std@@V?$tuple@AEBV?$basic_string@DU?$char_traits@D@std@@V?$allocator@D@2@@std@@@2@V?$tuple@$$V@2@@?$_Tree_comp_alloc@V?$_Tmap_traits@V?$basic_string@DU?$char_traits@D@std@@V?$allocator@D@2@@std@@V12@U?$less@V?$basic_string@DU?$char_traits@D@std@@V?$allocator@D@2@@std@@@2@V?$allocator@U?$pair@$$CBV?$basic_string@DU?$char_traits@D@std@@V?$allocator@D@2@@std@@V12@@std@@@2@$0A@@std@@@std@@QEAAPEAU?$_Tree_node@U?$pair@$$CBV?$basic_string@DU?$char_traits@D@std@@V?$allocator@D@2@@std@@V12@@std@@PEAX@1@AEBUpiecewise_construct_t@1@$$QEAV?$tuple@AEBV?$basic_string@DU?$char_traits@D@std@@V?$allocator@D@2@@std@@@1@$$QEAV?$tuple@$$V@1@@Z 0000000140024160 f i main.obj
 0001:00023250       ??$_Buynode_if_nil@AEAU?$pair@$$CBH_N@std@@@?$_Tree@V?$_Tmap_traits@H_NU?$less@H@std@@V?$allocator@U?$pair@$$CBH_N@std@@@2@$0A@@std@@@std@@IEAAPEAU?$_Tree_node@U?$pair@$$CBH_N@std@@PEAX@1@PEAU21@AEAU?$pair@$$CBH_N@1@@Z 0000000140024250 f i main.obj
 0001:00023250       ??$_Buynode_if_nil@AEAU?$pair@$$CBHI@std@@@?$_Tree@V?$_Tmap_traits@HIU?$less@H@std@@V?$allocator@U?$pair@$$CBHI@std@@@2@$0A@@std@@@std@@IEAAPEAU?$_Tree_node@U?$pair@$$CBHI@std@@PEAX@1@PEAU21@AEAU?$pair@$$CBHI@1@@Z 0000000140024250 f i main.obj
 0001:00023250       ??$_Buynode_if_nil@AEAU?$pair@$$CBV?$basic_string@DU?$char_traits@D@std@@V?$allocator@D@2@@std@@V12@@std@@@?$_Tree@V?$_Tmap_traits@V?$basic_string@DU?$char_traits@D@std@@V?$allocator@D@2@@std@@V12@U?$less@V?$basic_string@DU?$char_traits@D@std@@V?$allocator@D@2@@std@@@2@V?$allocator@U?$pair@$$CBV?$basic_string@DU?$char_traits@D@std@@V?$allocator@D@2@@std@@V12@@std@@@2@$0A@@std@@@std@@IEAAPEAU?$_Tree_node@U?$pair@$$CBV?$basic_string@DU?$char_traits@D@std@@V?$allocator@D@2@@std@@V12@@std@@PEAX@1@PEAU21@AEAU?$pair@$$CBV?$basic_string@DU?$char_traits@D@std@@V?$allocator@D@2@@std@@V12@@1@@Z 0000000140024250 f i main.obj
 0001:00023270       ??$_Call@P6AXPEAUasset_manager@@@ZPEAU1@@_Invoker_functor@std@@SAX$$QEAP6AXPEAUasset_manager@@@Z$$QEAPEAU2@@Z 0000000140024270 f i main.obj
 0001:000232b0       ??$_Copy@U_Copy_tag@?$_Tree@V?$_Tmap_traits@HIU?$less@H@std@@V?$allocator@U?$pair@$$CBHI@std@@@2@$0A@@std@@@std@@@?$_Tree@V?$_Tmap_traits@HIU?$less@H@std@@V?$allocator@U?$pair@$$CBHI@std@@@2@$0A@@std@@@std@@IEAAXAEBV01@U_Copy_tag@01@@Z 00000001400242b0 f i main.obj
 0001:000233f0       ??$_Copy@U_Copy_tag@?$_Tree@V?$_Tmap_traits@H_NU?$less@H@std@@V?$allocator@U?$pair@$$CBH_N@std@@@2@$0A@@std@@@std@@@?$_Tree@V?$_Tmap_traits@H_NU?$less@H@std@@V?$allocator@U?$pair@$$CBH_N@std@@@2@$0A@@std@@@std@@IEAAXAEBV01@U_Copy_tag@01@@Z 00000001400243f0 f i main.obj
 0001:00023530       ??$_Copy_nodes@U_Copy_tag@?$_Tree@V?$_Tmap_traits@HIU?$less@H@std@@V?$allocator@U?$pair@$$CBHI@std@@@2@$0A@@std@@@std@@@?$_Tree@V?$_Tmap_traits@HIU?$less@H@std@@V?$allocator@U?$pair@$$CBHI@std@@@2@$0A@@std@@@std@@IEAAPEAU?$_Tree_node@U?$pair@$$CBHI@std@@PEAX@1@PEAU21@0U_Copy_tag@01@@Z 0000000140024530 f i main.obj
 0001:000236b0       ??$_Copy_nodes@U_Copy_tag@?$_Tree@V?$_Tmap_traits@H_NU?$less@H@std@@V?$allocator@U?$pair@$$CBH_N@std@@@2@$0A@@std@@@std@@@?$_Tree@V?$_Tmap_traits@H_NU?$less@H@std@@V?$allocator@U?$pair@$$CBH_N@std@@@2@$0A@@std@@@std@@IEAAPEAU?$_Tree_node@U?$pair@$$CBH_N@std@@PEAX@1@PEAU21@0U_Copy_tag@01@@Z 00000001400246b0 f i main.obj
 0001:00023830       ??$_Copy_or_move@U?$pair@$$CBHI@std@@U?$integral_constant@_N$0A@@2@@?$_Tree@V?$_Tmap_traits@HIU?$less@H@std@@V?$allocator@U?$pair@$$CBHI@std@@@2@$0A@@std@@@std@@IEAAPEAU?$_Tree_node@U?$pair@$$CBHI@std@@PEAX@1@AEAU?$pair@$$CBHI@1@U_Copy_tag@01@U?$integral_constant@_N$0A@@1@@Z 0000000140024830 f i main.obj
 0001:00023860       ??$_Copy_or_move@U?$pair@$$CBH_N@std@@U?$integral_constant@_N$0A@@2@@?$_Tree@V?$_Tmap_traits@H_NU?$less@H@std@@V?$allocator@U?$pair@$$CBH_N@std@@@2@$0A@@std@@@std@@IEAAPEAU?$_Tree_node@U?$pair@$$CBH_N@std@@PEAX@1@AEAU?$pair@$$CBH_N@1@U_Copy_tag@01@U?$integral_constant@_N$0A@@1@@Z 0000000140024860 f i main.obj
 0001:00023890       ??$_Destroy_range1@V?$allocator@D@std@@PEAD@std@@YAXPEAD0AEAU?$_Wrap_alloc@V?$allocator@D@std@@@0@U?$integral_constant@_N$00@0@@Z 0000000140024890 f i main.obj
 0001:000238b0       ??$_Destroy_range@V?$allocator@D@std@@PEAD@std@@YAXPEAD0AEAU?$_Wrap_alloc@V?$allocator@D@std@@@0@@Z 00000001400248b0 f i main.obj
 0001:000238f0       ??$_Execute@$0A@$00@?$_LaunchPad@V?$unique_ptr@V?$tuple@P6AXPEAUasset_manager@@@ZPEAU1@@std@@U?$default_delete@V?$tuple@P6AXPEAUasset_manager@@@ZPEAU1@@std@@@2@@std@@@std@@CAXAEAV?$tuple@P6AXPEAUasset_manager@@@ZPEAU1@@1@U?$integer_sequence@_K$0A@$00@1@@Z 00000001400248f0 f i main.obj
 0001:00023940       ??$_Fgetc@D@std@@YA_NAEADPEAU_iobuf@@@Z 0000000140024940 f i main.obj
 0001:00023980       ??$_Fputc@D@std@@YA_NDPEAU_iobuf@@@Z 0000000140024980 f i main.obj
 0001:000239c0       ??$_Immortalize@V_Iostream_error_category@std@@@std@@YAAEAV_Iostream_error_category@0@XZ 00000001400249c0 f i main.obj
 0001:00023a40       ??$_Insert_at@AEAU?$pair@$$CBHI@std@@PEAU?$_Tree_node@U?$pair@$$CBHI@std@@PEAX@2@@?$_Tree@V?$_Tmap_traits@HIU?$less@H@std@@V?$allocator@U?$pair@$$CBHI@std@@@2@$0A@@std@@@std@@IEAA?AV?$_Tree_iterator@V?$_Tree_val@U?$_Tree_simple_types@U?$pair@$$CBHI@std@@@std@@@std@@@1@_NPEAU?$_Tree_node@U?$pair@$$CBHI@std@@PEAX@1@AEAU?$pair@$$CBHI@1@1@Z 0000000140024a40 f i main.obj
 0001:00023a40       ??$_Insert_at@AEAU?$pair@$$CBH_N@std@@PEAU?$_Tree_node@U?$pair@$$CBH_N@std@@PEAX@2@@?$_Tree@V?$_Tmap_traits@H_NU?$less@H@std@@V?$allocator@U?$pair@$$CBH_N@std@@@2@$0A@@std@@@std@@IEAA?AV?$_Tree_iterator@V?$_Tree_val@U?$_Tree_simple_types@U?$pair@$$CBH_N@std@@@std@@@std@@@1@_NPEAU?$_Tree_node@U?$pair@$$CBH_N@std@@PEAX@1@AEAU?$pair@$$CBH_N@1@1@Z 0000000140024a40 f i main.obj
 0001:00023ea0       ??$_Insert_at@AEAU?$pair@$$CBV?$basic_string@DU?$char_traits@D@std@@V?$allocator@D@2@@std@@V12@@std@@PEAU?$_Tree_node@U?$pair@$$CBV?$basic_string@DU?$char_traits@D@std@@V?$allocator@D@2@@std@@V12@@std@@PEAX@2@@?$_Tree@V?$_Tmap_traits@V?$basic_string@DU?$char_traits@D@std@@V?$allocator@D@2@@std@@V12@U?$less@V?$basic_string@DU?$char_traits@D@std@@V?$allocator@D@2@@std@@@2@V?$allocator@U?$pair@$$CBV?$basic_string@DU?$char_traits@D@std@@V?$allocator@D@2@@std@@V12@@std@@@2@$0A@@std@@@std@@IEAA?AV?$_Tree_iterator@V?$_Tree_val@U?$_Tree_simple_types@U?$pair@$$CBV?$basic_string@DU?$char_traits@D@std@@V?$allocator@D@2@@std@@V12@@std@@@std@@@std@@@1@_NPEAU?$_Tree_node@U?$pair@$$CBV?$basic_string@DU?$char_traits@D@std@@V?$allocator@D@2@@std@@V12@@std@@PEAX@1@AEAU?$pair@$$CBV?$basic_string@DU?$char_traits@D@std@@V?$allocator@D@2@@std@@V12@@1@1@Z 0000000140024ea0 f i main.obj
 0001:00024300       ??$_Insert_hint@AEAU?$pair@$$CBHI@std@@PEAU?$_Tree_node@U?$pair@$$CBHI@std@@PEAX@2@@?$_Tree@V?$_Tmap_traits@HIU?$less@H@std@@V?$allocator@U?$pair@$$CBHI@std@@@2@$0A@@std@@@std@@IEAA?AV?$_Tree_iterator@V?$_Tree_val@U?$_Tree_simple_types@U?$pair@$$CBHI@std@@@std@@@std@@@1@V?$_Tree_const_iterator@V?$_Tree_val@U?$_Tree_simple_types@U?$pair@$$CBHI@std@@@std@@@std@@@1@AEAU?$pair@$$CBHI@1@PEAU?$_Tree_node@U?$pair@$$CBHI@std@@PEAX@1@@Z 0000000140025300 f i main.obj
 0001:000251e0       ??$_Insert_hint@AEAU?$pair@$$CBH_N@std@@PEAU?$_Tree_node@U?$pair@$$CBH_N@std@@PEAX@2@@?$_Tree@V?$_Tmap_traits@H_NU?$less@H@std@@V?$allocator@U?$pair@$$CBH_N@std@@@2@$0A@@std@@@std@@IEAA?AV?$_Tree_iterator@V?$_Tree_val@U?$_Tree_simple_types@U?$pair@$$CBH_N@std@@@std@@@std@@@1@V?$_Tree_const_iterator@V?$_Tree_val@U?$_Tree_simple_types@U?$pair@$$CBH_N@std@@@std@@@std@@@1@AEAU?$pair@$$CBH_N@1@PEAU?$_Tree_node@U?$pair@$$CBH_N@std@@PEAX@1@@Z 00000001400261e0 f i main.obj
 0001:000260c0       ??$_Insert_hint@AEAU?$pair@$$CBV?$basic_string@DU?$char_traits@D@std@@V?$allocator@D@2@@std@@V12@@std@@PEAU?$_Tree_node@U?$pair@$$CBV?$basic_string@DU?$char_traits@D@std@@V?$allocator@D@2@@std@@V12@@std@@PEAX@2@@?$_Tree@V?$_Tmap_traits@V?$basic_string@DU?$char_traits@D@std@@V?$allocator@D@2@@std@@V12@U?$less@V?$basic_string@DU?$char_traits@D@std@@V?$allocator@D@2@@std@@@2@V?$allocator@U?$pair@$$CBV?$basic_string@DU?$char_traits@D@std@@V?$allocator@D@2@@std@@V12@@std@@@2@$0A@@std@@@std@@IEAA?AV?$_Tree_iterator@V?$_Tree_val@U?$_Tree_simple_types@U?$pair@$$CBV?$basic_string@DU?$char_traits@D@std@@V?$allocator@D@2@@std@@V12@@std@@@std@@@std@@@1@V?$_Tree_const_iterator@V?$_Tree_val@U?$_Tree_simple_types@U?$pair@$$CBV?$basic_string@DU?$char_traits@D@std@@V?$allocator@D@2@@std@@V12@@std@@@std@@@std@@@1@AEAU?$pair@$$CBV?$basic_string@DU?$char_traits@D@std@@V?$allocator@D@2@@std@@V12@@1@PEAU?$_Tree_node@U?$pair@$$CBV?$basic_string@DU?$char_traits@D@std@@V?$allocator@D@2@@std@@V12@@std@@PEAX@1@@Z 00000001400270c0 f i main.obj
 0001:00026fa0       ??$_Insert_nohint@AEAU?$pair@$$CBHI@std@@PEAU?$_Tree_node@U?$pair@$$CBHI@std@@PEAX@2@@?$_Tree@V?$_Tmap_traits@HIU?$less@H@std@@V?$allocator@U?$pair@$$CBHI@std@@@2@$0A@@std@@@std@@IEAA?AU?$pair@V?$_Tree_iterator@V?$_Tree_val@U?$_Tree_simple_types@U?$pair@$$CBHI@std@@@std@@@std@@@std@@_N@1@_NAEAU?$pair@$$CBHI@1@PEAU?$_Tree_node@U?$pair@$$CBHI@std@@PEAX@1@@Z 0000000140027fa0 f i main.obj
 0001:00027410       ??$_Insert_nohint@AEAU?$pair@$$CBH_N@std@@PEAU?$_Tree_node@U?$pair@$$CBH_N@std@@PEAX@2@@?$_Tree@V?$_Tmap_traits@H_NU?$less@H@std@@V?$allocator@U?$pair@$$CBH_N@std@@@2@$0A@@std@@@std@@IEAA?AU?$pair@V?$_Tree_iterator@V?$_Tree_val@U?$_Tree_simple_types@U?$pair@$$CBH_N@std@@@std@@@std@@@std@@_N@1@_NAEAU?$pair@$$CBH_N@1@PEAU?$_Tree_node@U?$pair@$$CBH_N@std@@PEAX@1@@Z 0000000140028410 f i main.obj
 0001:00027880       ??$_Insert_nohint@AEAU?$pair@$$CBV?$basic_string@DU?$char_traits@D@std@@V?$allocator@D@2@@std@@V12@@std@@PEAU?$_Tree_node@U?$pair@$$CBV?$basic_string@DU?$char_traits@D@std@@V?$allocator@D@2@@std@@V12@@std@@PEAX@2@@?$_Tree@V?$_Tmap_traits@V?$basic_string@DU?$char_traits@D@std@@V?$allocator@D@2@@std@@V12@U?$less@V?$basic_string@DU?$char_traits@D@std@@V?$allocator@D@2@@std@@@2@V?$allocator@U?$pair@$$CBV?$basic_string@DU?$char_traits@D@std@@V?$allocator@D@2@@std@@V12@@std@@@2@$0A@@std@@@std@@IEAA?AU?$pair@V?$_Tree_iterator@V?$_Tree_val@U?$_Tree_simple_types@U?$pair@$$CBV?$basic_string@DU?$char_traits@D@std@@V?$allocator@D@2@@std@@V12@@std@@@std@@@std@@@std@@_N@1@_NAEAU?$pair@$$CBV?$basic_string@DU?$char_traits@D@std@@V?$allocator@D@2@@std@@V12@@1@PEAU?$_Tree_node@U?$pair@$$CBV?$basic_string@DU?$char_traits@D@std@@V?$allocator@D@2@@std@@V12@@std@@PEAX@1@@Z 0000000140028880 f i main.obj
 0001:00027cf0       ??$_Launch@V?$unique_ptr@V?$tuple@P6AXPEAUasset_manager@@@ZPEAU1@@std@@U?$default_delete@V?$tuple@P6AXPEAUasset_manager@@@ZPEAU1@@std@@@2@@std@@@std@@YAXPEAU_Thrd_imp_t@@$$QEAV?$unique_ptr@V?$tuple@P6AXPEAUasset_manager@@@ZPEAU1@@std@@U?$default_delete@V?$tuple@P6AXPEAUasset_manager@@@ZPEAU1@@std@@@2@@0@@Z 0000000140028cf0 f i main.obj
 0001:00027d40       ??$_Lbound@H@?$_Tree@V?$_Tmap_traits@HIU?$less@H@std@@V?$allocator@U?$pair@$$CBHI@std@@@2@$0A@@std@@@std@@IEBAPEAU?$_Tree_node@U?$pair@$$CBHI@std@@PEAX@1@AEBH@Z 0000000140028d40 f i main.obj
 0001:00027d40       ??$_Lbound@H@?$_Tree@V?$_Tmap_traits@H_NU?$less@H@std@@V?$allocator@U?$pair@$$CBH_N@std@@@2@$0A@@std@@@std@@IEBAPEAU?$_Tree_node@U?$pair@$$CBH_N@std@@PEAX@1@AEBH@Z 0000000140028d40 f i main.obj
 0001:00027df0       ??$_Lbound@V?$basic_string@DU?$char_traits@D@std@@V?$allocator@D@2@@std@@@?$_Tree@V?$_Tmap_traits@V?$basic_string@DU?$char_traits@D@std@@V?$allocator@D@2@@std@@V12@U?$less@V?$basic_string@DU?$char_traits@D@std@@V?$allocator@D@2@@std@@@2@V?$allocator@U?$pair@$$CBV?$basic_string@DU?$char_traits@D@std@@V?$allocator@D@2@@std@@V12@@std@@@2@$0A@@std@@@std@@IEBAPEAU?$_Tree_node@U?$pair@$$CBV?$basic_string@DU?$char_traits@D@std@@V?$allocator@D@2@@std@@V12@@std@@PEAX@1@AEBV?$basic_string@DU?$char_traits@D@std@@V?$allocator@D@2@@1@@Z 0000000140028df0 f i main.obj
 0001:00027ea0       ??$_Pocca@U?$_Wrap_alloc@V?$allocator@U?$_Tree_node@U?$pair@$$CBHI@std@@PEAX@std@@@std@@@std@@@std@@YAXAEAU?$_Wrap_alloc@V?$allocator@U?$_Tree_node@U?$pair@$$CBHI@std@@PEAX@std@@@std@@@0@AEBU10@@Z 0000000140028ea0 f i main.obj
 0001:00027ea0       ??$_Pocca@U?$_Wrap_alloc@V?$allocator@U?$_Tree_node@U?$pair@$$CBH_N@std@@PEAX@std@@@std@@@std@@@std@@YAXAEAU?$_Wrap_alloc@V?$allocator@U?$_Tree_node@U?$pair@$$CBH_N@std@@PEAX@std@@@std@@@0@AEBU10@@Z 0000000140028ea0 f i main.obj
 0001:00027ea0       ??$_Pocca@U?$_Wrap_alloc@V?$allocator@D@std@@@std@@@std@@YAXAEAU?$_Wrap_alloc@V?$allocator@D@std@@@0@AEBU10@@Z 0000000140028ea0 f i main.obj
 0001:00027ed0       ??$_Pocca@U?$_Wrap_alloc@V?$allocator@U?$_Tree_node@U?$pair@$$CBH_N@std@@PEAX@std@@@std@@@std@@@std@@YAXAEAU?$_Wrap_alloc@V?$allocator@U?$_Tree_node@U?$pair@$$CBH_N@std@@PEAX@std@@@std@@@0@AEBU10@U?$integral_constant@_N$0A@@0@@Z 0000000140028ed0 f i main.obj
 0001:00027ed0       ??$_Pocca@U?$_Wrap_alloc@V?$allocator@U?$_Tree_node@U?$pair@$$CBHI@std@@PEAX@std@@@std@@@std@@@std@@YAXAEAU?$_Wrap_alloc@V?$allocator@U?$_Tree_node@U?$pair@$$CBHI@std@@PEAX@std@@@std@@@0@AEBU10@U?$integral_constant@_N$0A@@0@@Z 0000000140028ed0 f i main.obj
 0001:00027ed0       ??$_Pocca@U?$_Wrap_alloc@V?$allocator@D@std@@@std@@@std@@YAXAEAU?$_Wrap_alloc@V?$allocator@D@std@@@0@AEBU10@U?$integral_constant@_N$0A@@0@@Z 0000000140028ed0 f i main.obj
 0001:00027ee0       ??$_Pocma@U?$_Wrap_alloc@V?$allocator@D@std@@@std@@@std@@YAXAEAU?$_Wrap_alloc@V?$allocator@D@std@@@0@0@Z 0000000140028ee0 f i main.obj
 0001:00027f10       ??$_Pocma@U?$_Wrap_alloc@V?$allocator@D@std@@@std@@@std@@YAXAEAU?$_Wrap_alloc@V?$allocator@D@std@@@0@0U?$integral_constant@_N$00@0@@Z 0000000140028f10 f i main.obj
 0001:00027f50       ??$_Swap_adl@PEAU?$_Tree_node@U?$pair@$$CBV?$basic_string@DU?$char_traits@D@std@@V?$allocator@D@2@@std@@V12@@std@@PEAX@std@@@std@@YAXAEAPEAU?$_Tree_node@U?$pair@$$CBV?$basic_string@DU?$char_traits@D@std@@V?$allocator@D@2@@std@@V12@@std@@PEAX@0@0@Z 0000000140028f50 f i main.obj
 0001:00027f80       ??$_Swap_adl@U?$less@V?$basic_string@DU?$char_traits@D@std@@V?$allocator@D@2@@std@@@std@@@std@@YAXAEAU?$less@V?$basic_string@DU?$char_traits@D@std@@V?$allocator@D@2@@std@@@0@0@Z 0000000140028f80 f i main.obj
 0001:00027fb0       ??$_To_xtime@NU?$ratio@$00$00@std@@@std@@YA?AUxtime@@AEBV?$duration@NU?$ratio@$00$00@std@@@chrono@0@@Z 0000000140028fb0 f i main.obj
 0001:000280e0       ??$_Try_emplace@AEBH$$V@?$map@HIU?$less@H@std@@V?$allocator@U?$pair@$$CBHI@std@@@2@@std@@QEAA?AU?$pair@V?$_Tree_iterator@V?$_Tree_val@U?$_Tree_simple_types@U?$pair@$$CBHI@std@@@std@@@std@@@std@@_N@1@AEBH@Z 00000001400290e0 f i main.obj
 0001:00028240       ??$_Try_emplace@AEBH$$V@?$map@H_NU?$less@H@std@@V?$allocator@U?$pair@$$CBH_N@std@@@2@@std@@QEAA?AU?$pair@V?$_Tree_iterator@V?$_Tree_val@U?$_Tree_simple_types@U?$pair@$$CBH_N@std@@@std@@@std@@@std@@_N@1@AEBH@Z 0000000140029240 f i main.obj
 0001:000283a0       ??$_Try_emplace@AEBV?$basic_string@DU?$char_traits@D@std@@V?$allocator@D@2@@std@@$$V@?$map@V?$basic_string@DU?$char_traits@D@std@@V?$allocator@D@2@@std@@V12@U?$less@V?$basic_string@DU?$char_traits@D@std@@V?$allocator@D@2@@std@@@2@V?$allocator@U?$pair@$$CBV?$basic_string@DU?$char_traits@D@std@@V?$allocator@D@2@@std@@V12@@std@@@2@@std@@QEAA?AU?$pair@V?$_Tree_iterator@V?$_Tree_val@U?$_Tree_simple_types@U?$pair@$$CBV?$basic_string@DU?$char_traits@D@std@@V?$allocator@D@2@@std@@V12@@std@@@std@@@std@@@std@@_N@1@AEBV?$basic_string@DU?$char_traits@D@std@@V?$allocator@D@2@@1@@Z 00000001400293a0 f i main.obj
 0001:00028500       ??$_Try_emplace@H$$V@?$map@HIU?$less@H@std@@V?$allocator@U?$pair@$$CBHI@std@@@2@@std@@QEAA?AU?$pair@V?$_Tree_iterator@V?$_Tree_val@U?$_Tree_simple_types@U?$pair@$$CBHI@std@@@std@@@std@@@std@@_N@1@$$QEAH@Z 0000000140029500 f i main.obj
 0001:00028660       ??$_Try_emplace@V?$basic_string@DU?$char_traits@D@std@@V?$allocator@D@2@@std@@$$V@?$map@V?$basic_string@DU?$char_traits@D@std@@V?$allocator@D@2@@std@@V12@U?$less@V?$basic_string@DU?$char_traits@D@std@@V?$allocator@D@2@@std@@@2@V?$allocator@U?$pair@$$CBV?$basic_string@DU?$char_traits@D@std@@V?$allocator@D@2@@std@@V12@@std@@@2@@std@@QEAA?AU?$pair@V?$_Tree_iterator@V?$_Tree_val@U?$_Tree_simple_types@U?$pair@$$CBV?$basic_string@DU?$char_traits@D@std@@V?$allocator@D@2@@std@@V12@@std@@@std@@@std@@@std@@_N@1@$$QEAV?$basic_string@DU?$char_traits@D@std@@V?$allocator@D@2@@1@@Z 0000000140029660 f i main.obj
 0001:000287c0       ??$_Ungetc@D@std@@YA_NAEBDPEAU_iobuf@@@Z 00000001400297c0 f i main.obj
 0001:00028810       ??$_Uninitialized_default_fill_n1@PEAD_KV?$allocator@D@std@@@std@@YAXPEAD_KAEAU?$_Wrap_alloc@V?$allocator@D@std@@@0@U?$integral_constant@_N$00@0@@Z 0000000140029810 f i main.obj
 0001:00028840       ??$_Uninitialized_default_fill_n@PEAD_KV?$allocator@D@std@@@std@@YAXPEAD_KAEAU?$_Wrap_alloc@V?$allocator@D@std@@@0@@Z 0000000140029840 f i main.obj
 0001:00028880       ??$__vcrt_va_start_verify_argument_type@QEBD@@YAXXZ 0000000140029880 f i main.obj
 0001:00028890       ??$abs@M$0A@Utvec4@glm@@@glm@@YA?AU?$tvec4@M$0A@@0@AEBU10@@Z 0000000140029890 f i main.obj
 0001:000288c0       ??$abs@M@glm@@YAMM@Z       00000001400298c0 f i main.obj
 0001:000288e0       ??$assign@V?$_String_iterator@V?$_String_val@U?$_Simple_types@D@std@@@std@@@std@@@?$basic_string@DU?$char_traits@D@std@@V?$allocator@D@2@@std@@QEAAAEAV01@V?$_String_iterator@V?$_String_val@U?$_Simple_types@D@std@@@std@@@1@0@Z 00000001400298e0 f i main.obj
 0001:00028950       ??$construct@PEAU?$_Tree_node@U?$pair@$$CBHI@std@@PEAX@std@@AEAPEAU12@@?$allocator@U?$_Tree_node@U?$pair@$$CBHI@std@@PEAX@std@@@std@@QEAAXPEAPEAU?$_Tree_node@U?$pair@$$CBHI@std@@PEAX@1@AEAPEAU21@@Z 0000000140029950 f i main.obj
 0001:00028950       ??$construct@PEADAEAPEAD@?$allocator@D@std@@QEAAXPEAPEADAEAPEAD@Z 0000000140029950 f i main.obj
 0001:00028950       ??$construct@PEAU?$_Tree_node@U?$pair@$$CBV?$basic_string@DU?$char_traits@D@std@@V?$allocator@D@2@@std@@V12@@std@@PEAX@std@@AEAPEAU12@@?$allocator@U?$_Tree_node@U?$pair@$$CBV?$basic_string@DU?$char_traits@D@std@@V?$allocator@D@2@@std@@V12@@std@@PEAX@std@@@std@@QEAAXPEAPEAU?$_Tree_node@U?$pair@$$CBV?$basic_string@DU?$char_traits@D@std@@V?$allocator@D@2@@std@@V12@@std@@PEAX@1@AEAPEAU21@@Z 0000000140029950 f i main.obj
 0001:00028950       ??$construct@PEAU?$_Tree_node@U?$pair@$$CBH_N@std@@PEAX@std@@AEAPEAU12@@?$allocator@U?$_Tree_node@U?$pair@$$CBH_N@std@@PEAX@std@@@std@@QEAAXPEAPEAU?$_Tree_node@U?$pair@$$CBH_N@std@@PEAX@1@AEAPEAU21@@Z 0000000140029950 f i main.obj
 0001:000289b0       ??$construct@PEAU?$_Tree_node@U?$pair@$$CBV?$basic_string@DU?$char_traits@D@std@@V?$allocator@D@2@@std@@V12@@std@@PEAX@std@@AEAPEAU12@@?$allocator_traits@V?$allocator@U?$_Tree_node@U?$pair@$$CBV?$basic_string@DU?$char_traits@D@std@@V?$allocator@D@2@@std@@V12@@std@@PEAX@std@@@std@@@std@@SAXAEAV?$allocator@U?$_Tree_node@U?$pair@$$CBV?$basic_string@DU?$char_traits@D@std@@V?$allocator@D@2@@std@@V12@@std@@PEAX@std@@@1@PEAPEAU?$_Tree_node@U?$pair@$$CBV?$basic_string@DU?$char_traits@D@std@@V?$allocator@D@2@@std@@V12@@std@@PEAX@1@AEAPEAU31@@Z 00000001400299b0 f i main.obj
 0001:000289b0       ??$construct@PEADAEAPEAD@?$allocator_traits@V?$allocator@D@std@@@std@@SAXAEAV?$allocator@D@1@PEAPEADAEAPEAD@Z 00000001400299b0 f i main.obj
 0001:000289b0       ??$construct@PEAU?$_Tree_node@U?$pair@$$CBH_N@std@@PEAX@std@@AEAPEAU12@@?$allocator_traits@V?$allocator@U?$_Tree_node@U?$pair@$$CBH_N@std@@PEAX@std@@@std@@@std@@SAXAEAV?$allocator@U?$_Tree_node@U?$pair@$$CBH_N@std@@PEAX@std@@@1@PEAPEAU?$_Tree_node@U?$pair@$$CBH_N@std@@PEAX@1@AEAPEAU31@@Z 00000001400299b0 f i main.obj
 0001:000289b0       ??$construct@PEAU?$_Tree_node@U?$pair@$$CBHI@std@@PEAX@std@@AEAPEAU12@@?$allocator_traits@V?$allocator@U?$_Tree_node@U?$pair@$$CBHI@std@@PEAX@std@@@std@@@std@@SAXAEAV?$allocator@U?$_Tree_node@U?$pair@$$CBHI@std@@PEAX@std@@@1@PEAPEAU?$_Tree_node@U?$pair@$$CBHI@std@@PEAX@1@AEAPEAU31@@Z 00000001400299b0 f i main.obj
 0001:000289f0       ??$construct@PEAU?$_Tree_node@U?$pair@$$CBH_N@std@@PEAX@std@@AEAPEAU12@@?$_Wrap_alloc@V?$allocator@U?$_Tree_node@U?$pair@$$CBH_N@std@@PEAX@std@@@std@@@std@@QEAAXPEAPEAU?$_Tree_node@U?$pair@$$CBH_N@std@@PEAX@1@AEAPEAU21@@Z 00000001400299f0 f i main.obj
 0001:000289f0       ??$construct@PEAU?$_Tree_node@U?$pair@$$CBV?$basic_string@DU?$char_traits@D@std@@V?$allocator@D@2@@std@@V12@@std@@PEAX@std@@AEAPEAU12@@?$_Wrap_alloc@V?$allocator@U?$_Tree_node@U?$pair@$$CBV?$basic_string@DU?$char_traits@D@std@@V?$allocator@D@2@@std@@V12@@std@@PEAX@std@@@std@@@std@@QEAAXPEAPEAU?$_Tree_node@U?$pair@$$CBV?$basic_string@DU?$char_traits@D@std@@V?$allocator@D@2@@std@@V12@@std@@PEAX@1@AEAPEAU21@@Z 00000001400299f0 f i main.obj
 0001:000289f0       ??$construct@PEADAEAPEAD@?$_Wrap_alloc@V?$allocator@D@std@@@std@@QEAAXPEAPEADAEAPEAD@Z 00000001400299f0 f i main.obj
 0001:000289f0       ??$construct@PEAU?$_Tree_node@U?$pair@$$CBHI@std@@PEAX@std@@AEAPEAU12@@?$_Wrap_alloc@V?$allocator@U?$_Tree_node@U?$pair@$$CBHI@std@@PEAX@std@@@std@@@std@@QEAAXPEAPEAU?$_Tree_node@U?$pair@$$CBHI@std@@PEAX@1@AEAPEAU21@@Z 00000001400299f0 f i main.obj
 0001:00028a30       ??$construct@U?$pair@$$CBHI@std@@AEBUpiecewise_construct_t@2@V?$tuple@$$QEAH@2@V?$tuple@$$V@2@@?$_Wrap_alloc@V?$allocator@U?$_Tree_node@U?$pair@$$CBHI@std@@PEAX@std@@@std@@@std@@QEAAXPEAU?$pair@$$CBHI@1@AEBUpiecewise_construct_t@1@$$QEAV?$tuple@$$QEAH@1@$$QEAV?$tuple@$$V@1@@Z 0000000140029a30 f i main.obj
 0001:00028aa0       ??$construct@U?$pair@$$CBHI@std@@AEBUpiecewise_construct_t@2@V?$tuple@$$QEAH@2@V?$tuple@$$V@2@@?$allocator@U?$_Tree_node@U?$pair@$$CBHI@std@@PEAX@std@@@std@@QEAAXPEAU?$pair@$$CBHI@1@AEBUpiecewise_construct_t@1@$$QEAV?$tuple@$$QEAH@1@$$QEAV?$tuple@$$V@1@@Z 0000000140029aa0 f i main.obj
 0001:00028b80       ??$construct@U?$pair@$$CBHI@std@@AEBUpiecewise_construct_t@2@V?$tuple@$$QEAH@2@V?$tuple@$$V@2@@?$allocator_traits@V?$allocator@U?$_Tree_node@U?$pair@$$CBHI@std@@PEAX@std@@@std@@@std@@SAXAEAV?$allocator@U?$_Tree_node@U?$pair@$$CBHI@std@@PEAX@std@@@1@PEAU?$pair@$$CBHI@1@AEBUpiecewise_construct_t@1@$$QEAV?$tuple@$$QEAH@1@$$QEAV?$tuple@$$V@1@@Z 0000000140029b80 f i main.obj
 0001:00028bf0       ??$construct@U?$pair@$$CBHI@std@@AEBUpiecewise_construct_t@2@V?$tuple@AEBH@2@V?$tuple@$$V@2@@?$_Wrap_alloc@V?$allocator@U?$_Tree_node@U?$pair@$$CBHI@std@@PEAX@std@@@std@@@std@@QEAAXPEAU?$pair@$$CBHI@1@AEBUpiecewise_construct_t@1@$$QEAV?$tuple@AEBH@1@$$QEAV?$tuple@$$V@1@@Z 0000000140029bf0 f i main.obj
 0001:00028c60       ??$construct@U?$pair@$$CBHI@std@@AEBUpiecewise_construct_t@2@V?$tuple@AEBH@2@V?$tuple@$$V@2@@?$allocator@U?$_Tree_node@U?$pair@$$CBHI@std@@PEAX@std@@@std@@QEAAXPEAU?$pair@$$CBHI@1@AEBUpiecewise_construct_t@1@$$QEAV?$tuple@AEBH@1@$$QEAV?$tuple@$$V@1@@Z 0000000140029c60 f i main.obj
 0001:00028d40       ??$construct@U?$pair@$$CBHI@std@@AEBUpiecewise_construct_t@2@V?$tuple@AEBH@2@V?$tuple@$$V@2@@?$allocator_traits@V?$allocator@U?$_Tree_node@U?$pair@$$CBHI@std@@PEAX@std@@@std@@@std@@SAXAEAV?$allocator@U?$_Tree_node@U?$pair@$$CBHI@std@@PEAX@std@@@1@PEAU?$pair@$$CBHI@1@AEBUpiecewise_construct_t@1@$$QEAV?$tuple@AEBH@1@$$QEAV?$tuple@$$V@1@@Z 0000000140029d40 f i main.obj
 0001:00028db0       ??$construct@U?$pair@$$CBHI@std@@AEBU12@@?$_Wrap_alloc@V?$allocator@U?$_Tree_node@U?$pair@$$CBHI@std@@PEAX@std@@@std@@@std@@QEAAXPEAU?$pair@$$CBHI@1@AEBU21@@Z 0000000140029db0 f i main.obj
 0001:00028db0       ??$construct@U?$pair@$$CBH_N@std@@AEBU12@@?$_Wrap_alloc@V?$allocator@U?$_Tree_node@U?$pair@$$CBH_N@std@@PEAX@std@@@std@@@std@@QEAAXPEAU?$pair@$$CBH_N@1@AEBU21@@Z 0000000140029db0 f i main.obj
 0001:00028db0       ??$construct@U?$pair@$$CBH_N@std@@AEAU12@@?$_Wrap_alloc@V?$allocator@U?$_Tree_node@U?$pair@$$CBH_N@std@@PEAX@std@@@std@@@std@@QEAAXPEAU?$pair@$$CBH_N@1@AEAU21@@Z 0000000140029db0 f i main.obj
 0001:00028db0       ??$construct@U?$pair@$$CBHI@std@@AEAU12@@?$_Wrap_alloc@V?$allocator@U?$_Tree_node@U?$pair@$$CBHI@std@@PEAX@std@@@std@@@std@@QEAAXPEAU?$pair@$$CBHI@1@AEAU21@@Z 0000000140029db0 f i main.obj
 0001:00028df0       ??$construct@U?$pair@$$CBH_N@std@@AEAU12@@?$allocator@U?$_Tree_node@U?$pair@$$CBH_N@std@@PEAX@std@@@std@@QEAAXPEAU?$pair@$$CBH_N@1@AEAU21@@Z 0000000140029df0 f i main.obj
 0001:00028df0       ??$construct@U?$pair@$$CBHI@std@@AEAU12@@?$allocator@U?$_Tree_node@U?$pair@$$CBHI@std@@PEAX@std@@@std@@QEAAXPEAU?$pair@$$CBHI@1@AEAU21@@Z 0000000140029df0 f i main.obj
 0001:00028df0       ??$construct@U?$pair@$$CBHI@std@@AEBU12@@?$allocator@U?$_Tree_node@U?$pair@$$CBHI@std@@PEAX@std@@@std@@QEAAXPEAU?$pair@$$CBHI@1@AEBU21@@Z 0000000140029df0 f i main.obj
 0001:00028df0       ??$construct@U?$pair@$$CBH_N@std@@AEBU12@@?$allocator@U?$_Tree_node@U?$pair@$$CBH_N@std@@PEAX@std@@@std@@QEAAXPEAU?$pair@$$CBH_N@1@AEBU21@@Z 0000000140029df0 f i main.obj
 0001:00028e50       ??$construct@U?$pair@$$CBHI@std@@AEBU12@@?$allocator_traits@V?$allocator@U?$_Tree_node@U?$pair@$$CBHI@std@@PEAX@std@@@std@@@std@@SAXAEAV?$allocator@U?$_Tree_node@U?$pair@$$CBHI@std@@PEAX@std@@@1@PEAU?$pair@$$CBHI@1@AEBU31@@Z 0000000140029e50 f i main.obj
 0001:00028e50       ??$construct@U?$pair@$$CBH_N@std@@AEAU12@@?$allocator_traits@V?$allocator@U?$_Tree_node@U?$pair@$$CBH_N@std@@PEAX@std@@@std@@@std@@SAXAEAV?$allocator@U?$_Tree_node@U?$pair@$$CBH_N@std@@PEAX@std@@@1@PEAU?$pair@$$CBH_N@1@AEAU31@@Z 0000000140029e50 f i main.obj
 0001:00028e50       ??$construct@U?$pair@$$CBHI@std@@AEAU12@@?$allocator_traits@V?$allocator@U?$_Tree_node@U?$pair@$$CBHI@std@@PEAX@std@@@std@@@std@@SAXAEAV?$allocator@U?$_Tree_node@U?$pair@$$CBHI@std@@PEAX@std@@@1@PEAU?$pair@$$CBHI@1@AEAU31@@Z 0000000140029e50 f i main.obj
 0001:00028e50       ??$construct@U?$pair@$$CBH_N@std@@AEBU12@@?$allocator_traits@V?$allocator@U?$_Tree_node@U?$pair@$$CBH_N@std@@PEAX@std@@@std@@@std@@SAXAEAV?$allocator@U?$_Tree_node@U?$pair@$$CBH_N@std@@PEAX@std@@@1@PEAU?$pair@$$CBH_N@1@AEBU31@@Z 0000000140029e50 f i main.obj
 0001:00028e90       ??$construct@U?$pair@$$CBH_N@std@@AEBUpiecewise_construct_t@2@V?$tuple@AEBH@2@V?$tuple@$$V@2@@?$_Wrap_alloc@V?$allocator@U?$_Tree_node@U?$pair@$$CBH_N@std@@PEAX@std@@@std@@@std@@QEAAXPEAU?$pair@$$CBH_N@1@AEBUpiecewise_construct_t@1@$$QEAV?$tuple@AEBH@1@$$QEAV?$tuple@$$V@1@@Z 0000000140029e90 f i main.obj
 0001:00028f00       ??$construct@U?$pair@$$CBH_N@std@@AEBUpiecewise_construct_t@2@V?$tuple@AEBH@2@V?$tuple@$$V@2@@?$allocator@U?$_Tree_node@U?$pair@$$CBH_N@std@@PEAX@std@@@std@@QEAAXPEAU?$pair@$$CBH_N@1@AEBUpiecewise_construct_t@1@$$QEAV?$tuple@AEBH@1@$$QEAV?$tuple@$$V@1@@Z 0000000140029f00 f i main.obj
 0001:00028fe0       ??$construct@U?$pair@$$CBH_N@std@@AEBUpiecewise_construct_t@2@V?$tuple@AEBH@2@V?$tuple@$$V@2@@?$allocator_traits@V?$allocator@U?$_Tree_node@U?$pair@$$CBH_N@std@@PEAX@std@@@std@@@std@@SAXAEAV?$allocator@U?$_Tree_node@U?$pair@$$CBH_N@std@@PEAX@std@@@1@PEAU?$pair@$$CBH_N@1@AEBUpiecewise_construct_t@1@$$QEAV?$tuple@AEBH@1@$$QEAV?$tuple@$$V@1@@Z 0000000140029fe0 f i main.obj
 0001:00029050       ??$construct@U?$pair@$$CBV?$basic_string@DU?$char_traits@D@std@@V?$allocator@D@2@@std@@V12@@std@@AEBUpiecewise_construct_t@2@V?$tuple@$$QEAV?$basic_string@DU?$char_traits@D@std@@V?$allocator@D@2@@std@@@2@V?$tuple@$$V@2@@?$_Wrap_alloc@V?$allocator@U?$_Tree_node@U?$pair@$$CBV?$basic_string@DU?$char_traits@D@std@@V?$allocator@D@2@@std@@V12@@std@@PEAX@std@@@std@@@std@@QEAAXPEAU?$pair@$$CBV?$basic_string@DU?$char_traits@D@std@@V?$allocator@D@2@@std@@V12@@1@AEBUpiecewise_construct_t@1@$$QEAV?$tuple@$$QEAV?$basic_string@DU?$char_traits@D@std@@V?$allocator@D@2@@std@@@1@$$QEAV?$tuple@$$V@1@@Z 000000014002a050 f i main.obj
 0001:000290c0       ??$construct@U?$pair@$$CBV?$basic_string@DU?$char_traits@D@std@@V?$allocator@D@2@@std@@V12@@std@@AEBUpiecewise_construct_t@2@V?$tuple@$$QEAV?$basic_string@DU?$char_traits@D@std@@V?$allocator@D@2@@std@@@2@V?$tuple@$$V@2@@?$allocator@U?$_Tree_node@U?$pair@$$CBV?$basic_string@DU?$char_traits@D@std@@V?$allocator@D@2@@std@@V12@@std@@PEAX@std@@@std@@QEAAXPEAU?$pair@$$CBV?$basic_string@DU?$char_traits@D@std@@V?$allocator@D@2@@std@@V12@@1@AEBUpiecewise_construct_t@1@$$QEAV?$tuple@$$QEAV?$basic_string@DU?$char_traits@D@std@@V?$allocator@D@2@@std@@@1@$$QEAV?$tuple@$$V@1@@Z 000000014002a0c0 f i main.obj
 0001:000291a0       ??$construct@U?$pair@$$CBV?$basic_string@DU?$char_traits@D@std@@V?$allocator@D@2@@std@@V12@@std@@AEBUpiecewise_construct_t@2@V?$tuple@$$QEAV?$basic_string@DU?$char_traits@D@std@@V?$allocator@D@2@@std@@@2@V?$tuple@$$V@2@@?$allocator_traits@V?$allocator@U?$_Tree_node@U?$pair@$$CBV?$basic_string@DU?$char_traits@D@std@@V?$allocator@D@2@@std@@V12@@std@@PEAX@std@@@std@@@std@@SAXAEAV?$allocator@U?$_Tree_node@U?$pair@$$CBV?$basic_string@DU?$char_traits@D@std@@V?$allocator@D@2@@std@@V12@@std@@PEAX@std@@@1@PEAU?$pair@$$CBV?$basic_string@DU?$char_traits@D@std@@V?$allocator@D@2@@std@@V12@@1@AEBUpiecewise_construct_t@1@$$QEAV?$tuple@$$QEAV?$basic_string@DU?$char_traits@D@std@@V?$allocator@D@2@@std@@@1@$$QEAV?$tuple@$$V@1@@Z 000000014002a1a0 f i main.obj
 0001:00029210       ??$construct@U?$pair@$$CBV?$basic_string@DU?$char_traits@D@std@@V?$allocator@D@2@@std@@V12@@std@@AEBUpiecewise_construct_t@2@V?$tuple@AEBV?$basic_string@DU?$char_traits@D@std@@V?$allocator@D@2@@std@@@2@V?$tuple@$$V@2@@?$_Wrap_alloc@V?$allocator@U?$_Tree_node@U?$pair@$$CBV?$basic_string@DU?$char_traits@D@std@@V?$allocator@D@2@@std@@V12@@std@@PEAX@std@@@std@@@std@@QEAAXPEAU?$pair@$$CBV?$basic_string@DU?$char_traits@D@std@@V?$allocator@D@2@@std@@V12@@1@AEBUpiecewise_construct_t@1@$$QEAV?$tuple@AEBV?$basic_string@DU?$char_traits@D@std@@V?$allocator@D@2@@std@@@1@$$QEAV?$tuple@$$V@1@@Z 000000014002a210 f i main.obj
 0001:00029280       ??$construct@U?$pair@$$CBV?$basic_string@DU?$char_traits@D@std@@V?$allocator@D@2@@std@@V12@@std@@AEBUpiecewise_construct_t@2@V?$tuple@AEBV?$basic_string@DU?$char_traits@D@std@@V?$allocator@D@2@@std@@@2@V?$tuple@$$V@2@@?$allocator@U?$_Tree_node@U?$pair@$$CBV?$basic_string@DU?$char_traits@D@std@@V?$allocator@D@2@@std@@V12@@std@@PEAX@std@@@std@@QEAAXPEAU?$pair@$$CBV?$basic_string@DU?$char_traits@D@std@@V?$allocator@D@2@@std@@V12@@1@AEBUpiecewise_construct_t@1@$$QEAV?$tuple@AEBV?$basic_string@DU?$char_traits@D@std@@V?$allocator@D@2@@std@@@1@$$QEAV?$tuple@$$V@1@@Z 000000014002a280 f i main.obj
 0001:00029360       ??$construct@U?$pair@$$CBV?$basic_string@DU?$char_traits@D@std@@V?$allocator@D@2@@std@@V12@@std@@AEBUpiecewise_construct_t@2@V?$tuple@AEBV?$basic_string@DU?$char_traits@D@std@@V?$allocator@D@2@@std@@@2@V?$tuple@$$V@2@@?$allocator_traits@V?$allocator@U?$_Tree_node@U?$pair@$$CBV?$basic_string@DU?$char_traits@D@std@@V?$allocator@D@2@@std@@V12@@std@@PEAX@std@@@std@@@std@@SAXAEAV?$allocator@U?$_Tree_node@U?$pair@$$CBV?$basic_string@DU?$char_traits@D@std@@V?$allocator@D@2@@std@@V12@@std@@PEAX@std@@@1@PEAU?$pair@$$CBV?$basic_string@DU?$char_traits@D@std@@V?$allocator@D@2@@std@@V12@@1@AEBUpiecewise_construct_t@1@$$QEAV?$tuple@AEBV?$basic_string@DU?$char_traits@D@std@@V?$allocator@D@2@@std@@@1@$$QEAV?$tuple@$$V@1@@Z 000000014002a360 f i main.obj
 0001:000293d0       ??$destroy@U?$pair@$$CBHI@std@@@?$_Wrap_alloc@V?$allocator@U?$_Tree_node@U?$pair@$$CBHI@std@@PEAX@std@@@std@@@std@@QEAAXPEAU?$pair@$$CBHI@1@@Z 000000014002a3d0 f i main.obj
 0001:000293d0       ??$destroy@PEAU?$_Tree_node@U?$pair@$$CBH_N@std@@PEAX@std@@@?$_Wrap_alloc@V?$allocator@U?$_Tree_node@U?$pair@$$CBH_N@std@@PEAX@std@@@std@@@std@@QEAAXPEAPEAU?$_Tree_node@U?$pair@$$CBH_N@std@@PEAX@1@@Z 000000014002a3d0 f i main.obj
 0001:000293d0       ??$destroy@U?$pair@$$CBH_N@std@@@?$_Wrap_alloc@V?$allocator@U?$_Tree_node@U?$pair@$$CBH_N@std@@PEAX@std@@@std@@@std@@QEAAXPEAU?$pair@$$CBH_N@1@@Z 000000014002a3d0 f i main.obj
 0001:000293d0       ??$destroy@PEAU?$_Tree_node@U?$pair@$$CBV?$basic_string@DU?$char_traits@D@std@@V?$allocator@D@2@@std@@V12@@std@@PEAX@std@@@?$_Wrap_alloc@V?$allocator@U?$_Tree_node@U?$pair@$$CBV?$basic_string@DU?$char_traits@D@std@@V?$allocator@D@2@@std@@V12@@std@@PEAX@std@@@std@@@std@@QEAAXPEAPEAU?$_Tree_node@U?$pair@$$CBV?$basic_string@DU?$char_traits@D@std@@V?$allocator@D@2@@std@@V12@@std@@PEAX@1@@Z 000000014002a3d0 f i main.obj
 0001:000293d0       ??$destroy@PEAU?$_Tree_node@U?$pair@$$CBHI@std@@PEAX@std@@@?$_Wrap_alloc@V?$allocator@U?$_Tree_node@U?$pair@$$CBHI@std@@PEAX@std@@@std@@@std@@QEAAXPEAPEAU?$_Tree_node@U?$pair@$$CBHI@std@@PEAX@1@@Z 000000014002a3d0 f i main.obj
 0001:000293d0       ??$destroy@PEAD@?$_Wrap_alloc@V?$allocator@D@std@@@std@@QEAAXPEAPEAD@Z 000000014002a3d0 f i main.obj
 0001:00029400       ??$destroy@U?$pair@$$CBH_N@std@@@?$allocator_traits@V?$allocator@U?$_Tree_node@U?$pair@$$CBH_N@std@@PEAX@std@@@std@@@std@@SAXAEAV?$allocator@U?$_Tree_node@U?$pair@$$CBH_N@std@@PEAX@std@@@1@PEAU?$pair@$$CBH_N@1@@Z 000000014002a400 f i main.obj
 0001:00029400       ??$destroy@PEAU?$_Tree_node@U?$pair@$$CBH_N@std@@PEAX@std@@@?$allocator_traits@V?$allocator@U?$_Tree_node@U?$pair@$$CBH_N@std@@PEAX@std@@@std@@@std@@SAXAEAV?$allocator@U?$_Tree_node@U?$pair@$$CBH_N@std@@PEAX@std@@@1@PEAPEAU?$_Tree_node@U?$pair@$$CBH_N@std@@PEAX@1@@Z 000000014002a400 f i main.obj
 0001:00029400       ??$destroy@PEAD@?$allocator_traits@V?$allocator@D@std@@@std@@SAXAEAV?$allocator@D@1@PEAPEAD@Z 000000014002a400 f i main.obj
 0001:00029400       ??$destroy@PEAU?$_Tree_node@U?$pair@$$CBHI@std@@PEAX@std@@@?$allocator_traits@V?$allocator@U?$_Tree_node@U?$pair@$$CBHI@std@@PEAX@std@@@std@@@std@@SAXAEAV?$allocator@U?$_Tree_node@U?$pair@$$CBHI@std@@PEAX@std@@@1@PEAPEAU?$_Tree_node@U?$pair@$$CBHI@std@@PEAX@1@@Z 000000014002a400 f i main.obj
 0001:00029400       ??$destroy@U?$pair@$$CBHI@std@@@?$allocator_traits@V?$allocator@U?$_Tree_node@U?$pair@$$CBHI@std@@PEAX@std@@@std@@@std@@SAXAEAV?$allocator@U?$_Tree_node@U?$pair@$$CBHI@std@@PEAX@std@@@1@PEAU?$pair@$$CBHI@1@@Z 000000014002a400 f i main.obj
 0001:00029400       ??$destroy@PEAU?$_Tree_node@U?$pair@$$CBV?$basic_string@DU?$char_traits@D@std@@V?$allocator@D@2@@std@@V12@@std@@PEAX@std@@@?$allocator_traits@V?$allocator@U?$_Tree_node@U?$pair@$$CBV?$basic_string@DU?$char_traits@D@std@@V?$allocator@D@2@@std@@V12@@std@@PEAX@std@@@std@@@std@@SAXAEAV?$allocator@U?$_Tree_node@U?$pair@$$CBV?$basic_string@DU?$char_traits@D@std@@V?$allocator@D@2@@std@@V12@@std@@PEAX@std@@@1@PEAPEAU?$_Tree_node@U?$pair@$$CBV?$basic_string@DU?$char_traits@D@std@@V?$allocator@D@2@@std@@V12@@std@@PEAX@1@@Z 000000014002a400 f i main.obj
 0001:00029430       ??$destroy@U?$pair@$$CBV?$basic_string@DU?$char_traits@D@std@@V?$allocator@D@2@@std@@V12@@std@@@?$_Wrap_alloc@V?$allocator@U?$_Tree_node@U?$pair@$$CBV?$basic_string@DU?$char_traits@D@std@@V?$allocator@D@2@@std@@V12@@std@@PEAX@std@@@std@@@std@@QEAAXPEAU?$pair@$$CBV?$basic_string@DU?$char_traits@D@std@@V?$allocator@D@2@@std@@V12@@1@@Z 000000014002a430 f i main.obj
 0001:00029460       ??$destroy@U?$pair@$$CBV?$basic_string@DU?$char_traits@D@std@@V?$allocator@D@2@@std@@V12@@std@@@?$allocator@U?$_Tree_node@U?$pair@$$CBV?$basic_string@DU?$char_traits@D@std@@V?$allocator@D@2@@std@@V12@@std@@PEAX@std@@@std@@QEAAXPEAU?$pair@$$CBV?$basic_string@DU?$char_traits@D@std@@V?$allocator@D@2@@std@@V12@@1@@Z 000000014002a460 f i main.obj
 0001:00029480       ??$destroy@U?$pair@$$CBV?$basic_string@DU?$char_traits@D@std@@V?$allocator@D@2@@std@@V12@@std@@@?$allocator_traits@V?$allocator@U?$_Tree_node@U?$pair@$$CBV?$basic_string@DU?$char_traits@D@std@@V?$allocator@D@2@@std@@V12@@std@@PEAX@std@@@std@@@std@@SAXAEAV?$allocator@U?$_Tree_node@U?$pair@$$CBV?$basic_string@DU?$char_traits@D@std@@V?$allocator@D@2@@std@@V12@@std@@PEAX@std@@@1@PEAU?$pair@$$CBV?$basic_string@DU?$char_traits@D@std@@V?$allocator@D@2@@std@@V12@@1@@Z 000000014002a480 f i main.obj
 0001:000294b0       ??$dot@M$0A@Utvec2@glm@@@glm@@YAMAEBU?$tvec2@M$0A@@0@0@Z 000000014002a4b0 f i main.obj
 0001:000294e0       ??$dot@M$0A@Utvec3@glm@@@glm@@YAMAEBU?$tvec3@M$0A@@0@0@Z 000000014002a4e0 f i main.obj
 0001:00029510       ??$duration_cast@V?$duration@_JU?$ratio@$00$00@std@@@chrono@std@@_JU?$ratio@$00$0DLJKMKAA@@3@@chrono@std@@YA?AV?$duration@_JU?$ratio@$00$00@std@@@01@AEBV?$duration@_JU?$ratio@$00$0DLJKMKAA@@std@@@01@@Z 000000014002a510 f i main.obj
 0001:00029670       ??$duration_cast@V?$duration@_JU?$ratio@$00$0DLJKMKAA@@std@@@chrono@std@@NU?$ratio@$00$00@3@@chrono@std@@YA?AV?$duration@_JU?$ratio@$00$0DLJKMKAA@@std@@@01@AEBV?$duration@NU?$ratio@$00$00@std@@@01@@Z 000000014002a670 f i main.obj
 0001:00029800       ??$duration_cast@V?$duration@_JU?$ratio@$00$0DLJKMKAA@@std@@@chrono@std@@_JU?$ratio@$00$00@3@@chrono@std@@YA?AV?$duration@_JU?$ratio@$00$0DLJKMKAA@@std@@@01@AEBV?$duration@_JU?$ratio@$00$00@std@@@01@@Z 000000014002a800 f i main.obj
 0001:00029960       ??$duration_cast@V?$duration@_JU?$ratio@$00$0DLJKMKAA@@std@@@chrono@std@@_JU?$ratio@$00$0JIJGIA@@3@@chrono@std@@YA?AV?$duration@_JU?$ratio@$00$0DLJKMKAA@@std@@@01@AEBV?$duration@_JU?$ratio@$00$0JIJGIA@@std@@@01@@Z 000000014002a960 f i main.obj
 0001:00029ab0       ??$emplace_hint@AEBU?$pair@$$CBHI@std@@@?$_Tree@V?$_Tmap_traits@HIU?$less@H@std@@V?$allocator@U?$pair@$$CBHI@std@@@2@$0A@@std@@@std@@QEAA?AV?$_Tree_iterator@V?$_Tree_val@U?$_Tree_simple_types@U?$pair@$$CBHI@std@@@std@@@std@@@1@V?$_Tree_const_iterator@V?$_Tree_val@U?$_Tree_simple_types@U?$pair@$$CBHI@std@@@std@@@std@@@1@AEBU?$pair@$$CBHI@1@@Z 000000014002aab0 f i main.obj
 0001:00029b20       ??$emplace_hint@AEBU?$pair@$$CBH_N@std@@@?$_Tree@V?$_Tmap_traits@H_NU?$less@H@std@@V?$allocator@U?$pair@$$CBH_N@std@@@2@$0A@@std@@@std@@QEAA?AV?$_Tree_iterator@V?$_Tree_val@U?$_Tree_simple_types@U?$pair@$$CBH_N@std@@@std@@@std@@@1@V?$_Tree_const_iterator@V?$_Tree_val@U?$_Tree_simple_types@U?$pair@$$CBH_N@std@@@std@@@std@@@1@AEBU?$pair@$$CBH_N@1@@Z 000000014002ab20 f i main.obj
 0001:00029b90       ??$emplace_hint@AEBUpiecewise_construct_t@std@@V?$tuple@$$QEAH@2@V?$tuple@$$V@2@@?$_Tree@V?$_Tmap_traits@HIU?$less@H@std@@V?$allocator@U?$pair@$$CBHI@std@@@2@$0A@@std@@@std@@QEAA?AV?$_Tree_iterator@V?$_Tree_val@U?$_Tree_simple_types@U?$pair@$$CBHI@std@@@std@@@std@@@1@V?$_Tree_const_iterator@V?$_Tree_val@U?$_Tree_simple_types@U?$pair@$$CBHI@std@@@std@@@std@@@1@AEBUpiecewise_construct_t@1@$$QEAV?$tuple@$$QEAH@1@$$QEAV?$tuple@$$V@1@@Z 000000014002ab90 f i main.obj
 0001:00029c30       ??$emplace_hint@AEBUpiecewise_construct_t@std@@V?$tuple@$$QEAV?$basic_string@DU?$char_traits@D@std@@V?$allocator@D@2@@std@@@2@V?$tuple@$$V@2@@?$_Tree@V?$_Tmap_traits@V?$basic_string@DU?$char_traits@D@std@@V?$allocator@D@2@@std@@V12@U?$less@V?$basic_string@DU?$char_traits@D@std@@V?$allocator@D@2@@std@@@2@V?$allocator@U?$pair@$$CBV?$basic_string@DU?$char_traits@D@std@@V?$allocator@D@2@@std@@V12@@std@@@2@$0A@@std@@@std@@QEAA?AV?$_Tree_iterator@V?$_Tree_val@U?$_Tree_simple_types@U?$pair@$$CBV?$basic_string@DU?$char_traits@D@std@@V?$allocator@D@2@@std@@V12@@std@@@std@@@std@@@1@V?$_Tree_const_iterator@V?$_Tree_val@U?$_Tree_simple_types@U?$pair@$$CBV?$basic_string@DU?$char_traits@D@std@@V?$allocator@D@2@@std@@V12@@std@@@std@@@std@@@1@AEBUpiecewise_construct_t@1@$$QEAV?$tuple@$$QEAV?$basic_string@DU?$char_traits@D@std@@V?$allocator@D@2@@std@@@1@$$QEAV?$tuple@$$V@1@@Z 000000014002ac30 f i main.obj
 0001:00029cd0       ??$emplace_hint@AEBUpiecewise_construct_t@std@@V?$tuple@AEBH@2@V?$tuple@$$V@2@@?$_Tree@V?$_Tmap_traits@HIU?$less@H@std@@V?$allocator@U?$pair@$$CBHI@std@@@2@$0A@@std@@@std@@QEAA?AV?$_Tree_iterator@V?$_Tree_val@U?$_Tree_simple_types@U?$pair@$$CBHI@std@@@std@@@std@@@1@V?$_Tree_const_iterator@V?$_Tree_val@U?$_Tree_simple_types@U?$pair@$$CBHI@std@@@std@@@std@@@1@AEBUpiecewise_construct_t@1@$$QEAV?$tuple@AEBH@1@$$QEAV?$tuple@$$V@1@@Z 000000014002acd0 f i main.obj
 0001:00029d70       ??$emplace_hint@AEBUpiecewise_construct_t@std@@V?$tuple@AEBH@2@V?$tuple@$$V@2@@?$_Tree@V?$_Tmap_traits@H_NU?$less@H@std@@V?$allocator@U?$pair@$$CBH_N@std@@@2@$0A@@std@@@std@@QEAA?AV?$_Tree_iterator@V?$_Tree_val@U?$_Tree_simple_types@U?$pair@$$CBH_N@std@@@std@@@std@@@1@V?$_Tree_const_iterator@V?$_Tree_val@U?$_Tree_simple_types@U?$pair@$$CBH_N@std@@@std@@@std@@@1@AEBUpiecewise_construct_t@1@$$QEAV?$tuple@AEBH@1@$$QEAV?$tuple@$$V@1@@Z 000000014002ad70 f i main.obj
 0001:00029e10       ??$emplace_hint@AEBUpiecewise_construct_t@std@@V?$tuple@AEBV?$basic_string@DU?$char_traits@D@std@@V?$allocator@D@2@@std@@@2@V?$tuple@$$V@2@@?$_Tree@V?$_Tmap_traits@V?$basic_string@DU?$char_traits@D@std@@V?$allocator@D@2@@std@@V12@U?$less@V?$basic_string@DU?$char_traits@D@std@@V?$allocator@D@2@@std@@@2@V?$allocator@U?$pair@$$CBV?$basic_string@DU?$char_traits@D@std@@V?$allocator@D@2@@std@@V12@@std@@@2@$0A@@std@@@std@@QEAA?AV?$_Tree_iterator@V?$_Tree_val@U?$_Tree_simple_types@U?$pair@$$CBV?$basic_string@DU?$char_traits@D@std@@V?$allocator@D@2@@std@@V12@@std@@@std@@@std@@@1@V?$_Tree_const_iterator@V?$_Tree_val@U?$_Tree_simple_types@U?$pair@$$CBV?$basic_string@DU?$char_traits@D@std@@V?$allocator@D@2@@std@@V12@@std@@@std@@@std@@@1@AEBUpiecewise_construct_t@1@$$QEAV?$tuple@AEBV?$basic_string@DU?$char_traits@D@std@@V?$allocator@D@2@@std@@@1@$$QEAV?$tuple@$$V@1@@Z 000000014002ae10 f i main.obj
 0001:00029eb0       ??$endl@DU?$char_traits@D@std@@@std@@YAAEAV?$basic_ostream@DU?$char_traits@D@std@@@0@AEAV10@@Z 000000014002aeb0 f i main.obj
 0001:00029f00       ??$fade@M$0A@@detail@glm@@YA?AU?$tvec2@M$0A@@1@AEBU21@@Z 000000014002af00 f i main.obj
 0001:00029fb0       ??$floor@M$0A@Utvec4@glm@@@glm@@YA?AU?$tvec4@M$0A@@0@AEBU10@@Z 000000014002afb0 f i main.obj
 0001:00029fe0       ??$forward_as_tuple@AEBH@std@@YA?AV?$tuple@AEBH@0@AEBH@Z 000000014002afe0 f i main.obj
 0001:0002a020       ??$forward_as_tuple@AEBV?$basic_string@DU?$char_traits@D@std@@V?$allocator@D@2@@std@@@std@@YA?AV?$tuple@AEBV?$basic_string@DU?$char_traits@D@std@@V?$allocator@D@2@@std@@@0@AEBV?$basic_string@DU?$char_traits@D@std@@V?$allocator@D@2@@0@@Z 000000014002b020 f i main.obj
 0001:0002a060       ??$forward_as_tuple@H@std@@YA?AV?$tuple@$$QEAH@0@$$QEAH@Z 000000014002b060 f i main.obj
 0001:0002a0a0       ??$forward_as_tuple@V?$basic_string@DU?$char_traits@D@std@@V?$allocator@D@2@@std@@@std@@YA?AV?$tuple@$$QEAV?$basic_string@DU?$char_traits@D@std@@V?$allocator@D@2@@std@@@0@$$QEAV?$basic_string@DU?$char_traits@D@std@@V?$allocator@D@2@@0@@Z 000000014002b0a0 f i main.obj
 0001:0002a0e0       ??$fract@M$0A@Utvec4@glm@@@glm@@YA?AU?$tvec4@M$0A@@0@AEBU10@@Z 000000014002b0e0 f i main.obj
 0001:0002a110       ??$get@$0A@AEBV?$basic_string@DU?$char_traits@D@std@@V?$allocator@D@2@@std@@@std@@YAAEBV?$basic_string@DU?$char_traits@D@std@@V?$allocator@D@2@@0@$$QEAV?$tuple@AEBV?$basic_string@DU?$char_traits@D@std@@V?$allocator@D@2@@std@@@0@@Z 000000014002b110 f i main.obj
 0001:0002a110       ??$get@$0A@$$QEAH@std@@YA$$QEAH$$QEAV?$tuple@$$QEAH@0@@Z 000000014002b110 f i main.obj
 0001:0002a110       ??$get@$0A@$$QEAV?$basic_string@DU?$char_traits@D@std@@V?$allocator@D@2@@std@@@std@@YA$$QEAV?$basic_string@DU?$char_traits@D@std@@V?$allocator@D@2@@0@$$QEAV?$tuple@$$QEAV?$basic_string@DU?$char_traits@D@std@@V?$allocator@D@2@@std@@@0@@Z 000000014002b110 f i main.obj
 0001:0002a110       ??$get@$0A@AEBH@std@@YAAEBH$$QEAV?$tuple@AEBH@0@@Z 000000014002b110 f i main.obj
 0001:0002a130       ??$getline@DU?$char_traits@D@std@@V?$allocator@D@2@@std@@YAAEAV?$basic_istream@DU?$char_traits@D@std@@@0@$$QEAV10@AEAV?$basic_string@DU?$char_traits@D@std@@V?$allocator@D@2@@0@D@Z 000000014002b130 f i main.obj
 0001:0002a380       ??$getline@DU?$char_traits@D@std@@V?$allocator@D@2@@std@@YAAEAV?$basic_istream@DU?$char_traits@D@std@@@0@AEAV10@AEAV?$basic_string@DU?$char_traits@D@std@@V?$allocator@D@2@@0@D@Z 000000014002b380 f i main.obj
 0001:0002a3c0       ??$insert@PEBU?$pair@$$CBHI@std@@@?$_Tree@V?$_Tmap_traits@HIU?$less@H@std@@V?$allocator@U?$pair@$$CBHI@std@@@2@$0A@@std@@@std@@QEAAXPEBU?$pair@$$CBHI@1@0@Z 000000014002b3c0 f i main.obj
 0001:0002a430       ??$insert@PEBU?$pair@$$CBH_N@std@@@?$_Tree@V?$_Tmap_traits@H_NU?$less@H@std@@V?$allocator@U?$pair@$$CBH_N@std@@@2@$0A@@std@@@std@@QEAAXPEBU?$pair@$$CBH_N@1@0@Z 000000014002b430 f i main.obj
 0001:0002a4a0       ??$inversesqrt@M@glm@@YAMM@Z 000000014002b4a0 f i main.obj
 0001:0002a4d0       ??$invoke@P6AXPEAUasset_manager@@@ZPEAU1@@std@@YAX$$QEAP6AXPEAUasset_manager@@@Z$$QEAPEAU1@@Z 000000014002b4d0 f i main.obj
 0001:0002a510       ??$make_unique@V?$tuple@P6AXPEAUasset_manager@@@ZPEAU1@@std@@P6AXPEAUasset_manager@@@ZPEAU3@@std@@YA?AV?$unique_ptr@V?$tuple@P6AXPEAUasset_manager@@@ZPEAU1@@std@@U?$default_delete@V?$tuple@P6AXPEAUasset_manager@@@ZPEAU1@@std@@@2@@0@$$QEAP6AXPEAUasset_manager@@@Z$$QEAPEAU2@@Z 000000014002b510 f i main.obj
 0001:0002a5c0       ??$max@I@std@@YAAEBIAEBI0@Z 000000014002b5c0 f i main.obj
 0001:0002a610       ??$max@M@std@@YAAEBMAEBM0@Z 000000014002b610 f i main.obj
 0001:0002a660       ??$min@M@std@@YAAEBMAEBM0@Z 000000014002b660 f i main.obj
 0001:0002a6b0       ??$mix@MM$0A@Utvec2@glm@@@glm@@YA?AU?$tvec2@M$0A@@0@AEBU10@0M@Z 000000014002b6b0 f i main.obj
 0001:0002a6f0       ??$mix@MM@glm@@YAMMMM@Z    000000014002b6f0 f i main.obj
 0001:0002a720       ??$mod289@U?$tvec4@M$0A@@glm@@@detail@glm@@YA?AU?$tvec4@M$0A@@1@AEBU21@@Z 000000014002b720 f i main.obj
 0001:0002a7f0       ??$mod@M$0A@Utvec4@glm@@@glm@@YA?AU?$tvec4@M$0A@@0@AEBU10@0@Z 000000014002b7f0 f i main.obj
 0001:0002a830       ??$normalize@M$0A@Utvec3@glm@@@glm@@YA?AU?$tvec3@M$0A@@0@AEBU10@@Z 000000014002b830 f i main.obj
 0001:0002a860       ??$perlin@M$0A@@glm@@YAMAEBU?$tvec2@M$0A@@0@@Z 000000014002b860 f i main.obj
 0001:0002aeb0       ??$permute@M$0A@@detail@glm@@YA?AU?$tvec4@M$0A@@1@AEBU21@@Z 000000014002beb0 f i main.obj
 0001:0002af20       ??$rotate@M$0A@@glm@@YA?AU?$tmat4x4@M$0A@@0@AEBU10@MAEBU?$tvec3@M$0A@@0@@Z 000000014002bf20 f i main.obj
 0001:0002b940       ??$scale@M$0A@@glm@@YA?AU?$tmat4x4@M$0A@@0@AEBU10@AEBU?$tvec3@M$0A@@0@@Z 000000014002c940 f i main.obj
 0001:0002bb20       ??$sleep_for@NU?$ratio@$00$00@std@@@this_thread@std@@YAXAEBV?$duration@NU?$ratio@$00$00@std@@@chrono@1@@Z 000000014002cb20 f i main.obj
 0001:0002bba0       ??$swap@DX@std@@YAXAEAD0@Z 000000014002cba0 f i main.obj
 0001:0002bbf0       ??$swap@_KX@std@@YAXAEA_K0@Z 000000014002cbf0 f i main.obj
 0001:0002bbf0       ??$swap@PEAU?$_Tree_node@U?$pair@$$CBV?$basic_string@DU?$char_traits@D@std@@V?$allocator@D@2@@std@@V12@@std@@PEAX@std@@X@std@@YAXAEAPEAU?$_Tree_node@U?$pair@$$CBV?$basic_string@DU?$char_traits@D@std@@V?$allocator@D@2@@std@@V12@@std@@PEAX@0@0@Z 000000014002cbf0 f i main.obj
 0001:0002bc40       ??$swap@U?$less@V?$basic_string@DU?$char_traits@D@std@@V?$allocator@D@2@@std@@@std@@X@std@@YAXAEAU?$less@V?$basic_string@DU?$char_traits@D@std@@V?$allocator@D@2@@std@@@0@0@Z 000000014002cc40 f i main.obj
 0001:0002bc80       ??$taylorInvSqrt@M$0A@@detail@glm@@YA?AU?$tvec4@M$0A@@1@AEBU21@@Z 000000014002cc80 f i main.obj
 0001:0002bcd0       ??$translate@M$0A@@glm@@YA?AU?$tmat4x4@M$0A@@0@AEBU10@AEBU?$tvec3@M$0A@@0@@Z 000000014002ccd0 f i main.obj
 0001:0002bea0       ??$try_emplace@$$V@?$map@HIU?$less@H@std@@V?$allocator@U?$pair@$$CBHI@std@@@2@@std@@QEAA?AU?$pair@V?$_Tree_iterator@V?$_Tree_val@U?$_Tree_simple_types@U?$pair@$$CBHI@std@@@std@@@std@@@std@@_N@1@$$QEAH@Z 000000014002cea0 f i main.obj
 0001:0002bee0       ??$try_emplace@$$V@?$map@HIU?$less@H@std@@V?$allocator@U?$pair@$$CBHI@std@@@2@@std@@QEAA?AU?$pair@V?$_Tree_iterator@V?$_Tree_val@U?$_Tree_simple_types@U?$pair@$$CBHI@std@@@std@@@std@@@std@@_N@1@AEBH@Z 000000014002cee0 f i main.obj
 0001:0002bf20       ??$try_emplace@$$V@?$map@H_NU?$less@H@std@@V?$allocator@U?$pair@$$CBH_N@std@@@2@@std@@QEAA?AU?$pair@V?$_Tree_iterator@V?$_Tree_val@U?$_Tree_simple_types@U?$pair@$$CBH_N@std@@@std@@@std@@@std@@_N@1@AEBH@Z 000000014002cf20 f i main.obj
 0001:0002bf60       ??$try_emplace@$$V@?$map@V?$basic_string@DU?$char_traits@D@std@@V?$allocator@D@2@@std@@V12@U?$less@V?$basic_string@DU?$char_traits@D@std@@V?$allocator@D@2@@std@@@2@V?$allocator@U?$pair@$$CBV?$basic_string@DU?$char_traits@D@std@@V?$allocator@D@2@@std@@V12@@std@@@2@@std@@QEAA?AU?$pair@V?$_Tree_iterator@V?$_Tree_val@U?$_Tree_simple_types@U?$pair@$$CBV?$basic_string@DU?$char_traits@D@std@@V?$allocator@D@2@@std@@V12@@std@@@std@@@std@@@std@@_N@1@$$QEAV?$basic_string@DU?$char_traits@D@std@@V?$allocator@D@2@@1@@Z 000000014002cf60 f i main.obj
 0001:0002bfa0       ??$try_emplace@$$V@?$map@V?$basic_string@DU?$char_traits@D@std@@V?$allocator@D@2@@std@@V12@U?$less@V?$basic_string@DU?$char_traits@D@std@@V?$allocator@D@2@@std@@@2@V?$allocator@U?$pair@$$CBV?$basic_string@DU?$char_traits@D@std@@V?$allocator@D@2@@std@@V12@@std@@@2@@std@@QEAA?AU?$pair@V?$_Tree_iterator@V?$_Tree_val@U?$_Tree_simple_types@U?$pair@$$CBV?$basic_string@DU?$char_traits@D@std@@V?$allocator@D@2@@std@@V12@@std@@@std@@@std@@@std@@_N@1@AEBV?$basic_string@DU?$char_traits@D@std@@V?$allocator@D@2@@1@@Z 000000014002cfa0 f i main.obj
 0001:0002bfe0       ??$use_facet@V?$codecvt@DDU_Mbstatet@@@std@@@std@@YAAEBV?$codecvt@DDU_Mbstatet@@@0@AEBVlocale@0@@Z 000000014002cfe0 f i main.obj
 0001:0002c0f0       ??$use_facet@V?$ctype@D@std@@@std@@YAAEBV?$ctype@D@0@AEBVlocale@0@@Z 000000014002d0f0 f i main.obj
 0001:0002c200       ??0?$_Immortalizer@V_Iostream_error_category@std@@@std@@QEAA@XZ 000000014002d200 f i main.obj
 0001:0002c250       ??0?$_String_alloc@U?$_String_base_types@DV?$allocator@D@std@@@std@@@std@@QEAA@XZ 000000014002d250 f i main.obj
 0001:0002c280       ??0?$_String_val@U?$_Simple_types@D@std@@@std@@QEAA@XZ 000000014002d280 f i main.obj
 0001:0002c2c0       ??0?$_Tree@V?$_Tmap_traits@HIU?$less@H@std@@V?$allocator@U?$pair@$$CBHI@std@@@2@$0A@@std@@@std@@QEAA@AEBU?$less@H@1@@Z 000000014002d2c0 f i main.obj
 0001:0002c2f0       ??0?$_Tree@V?$_Tmap_traits@H_NU?$less@H@std@@V?$allocator@U?$pair@$$CBH_N@std@@@2@$0A@@std@@@std@@QEAA@AEBU?$less@H@1@@Z 000000014002d2f0 f i main.obj
 0001:0002c320       ??0?$_Tree@V?$_Tmap_traits@V?$basic_string@DU?$char_traits@D@std@@V?$allocator@D@2@@std@@V12@U?$less@V?$basic_string@DU?$char_traits@D@std@@V?$allocator@D@2@@std@@@2@V?$allocator@U?$pair@$$CBV?$basic_string@DU?$char_traits@D@std@@V?$allocator@D@2@@std@@V12@@std@@@2@$0A@@std@@@std@@QEAA@$$QEAV01@@Z 000000014002d320 f i main.obj
 0001:0002c3a0       ??0?$_Tree@V?$_Tmap_traits@V?$basic_string@DU?$char_traits@D@std@@V?$allocator@D@2@@std@@V12@U?$less@V?$basic_string@DU?$char_traits@D@std@@V?$allocator@D@2@@std@@@2@V?$allocator@U?$pair@$$CBV?$basic_string@DU?$char_traits@D@std@@V?$allocator@D@2@@std@@V12@@std@@@2@$0A@@std@@@std@@QEAA@AEBU?$less@V?$basic_string@DU?$char_traits@D@std@@V?$allocator@D@2@@std@@@1@@Z 000000014002d3a0 f i main.obj
 0001:0002c3d0       ??0?$_Tree_comp_alloc@V?$_Tmap_traits@HIU?$less@H@std@@V?$allocator@U?$pair@$$CBHI@std@@@2@$0A@@std@@@std@@QEAA@AEBU?$less@H@1@@Z 000000014002d3d0 f i main.obj
 0001:0002c410       ??0?$_Tree_comp_alloc@V?$_Tmap_traits@H_NU?$less@H@std@@V?$allocator@U?$pair@$$CBH_N@std@@@2@$0A@@std@@@std@@QEAA@AEBU?$less@H@1@@Z 000000014002d410 f i main.obj
 0001:0002c450       ??0?$_Tree_comp_alloc@V?$_Tmap_traits@V?$basic_string@DU?$char_traits@D@std@@V?$allocator@D@2@@std@@V12@U?$less@V?$basic_string@DU?$char_traits@D@std@@V?$allocator@D@2@@std@@@2@V?$allocator@U?$pair@$$CBV?$basic_string@DU?$char_traits@D@std@@V?$allocator@D@2@@std@@V12@@std@@@2@$0A@@std@@@std@@QEAA@AEBU?$less@V?$basic_string@DU?$char_traits@D@std@@V?$allocator@D@2@@std@@@1@@Z 000000014002d450 f i main.obj
 0001:0002c490       ??0?$_Tree_const_iterator@V?$_Tree_val@U?$_Tree_simple_types@U?$pair@$$CBV?$basic_string@DU?$char_traits@D@std@@V?$allocator@D@2@@std@@V12@@std@@@std@@@std@@@std@@QEAA@XZ 000000014002d490 f i main.obj
 0001:0002c490       ??0?$_Tree_const_iterator@V?$_Tree_val@U?$_Tree_simple_types@U?$pair@$$CBHI@std@@@std@@@std@@@std@@QEAA@XZ 000000014002d490 f i main.obj
 0001:0002c490       ??0?$_Tree_const_iterator@V?$_Tree_val@U?$_Tree_simple_types@U?$pair@$$CBH_N@std@@@std@@@std@@@std@@QEAA@XZ 000000014002d490 f i main.obj
 0001:0002c4b0       ??0?$_Tree_iterator@V?$_Tree_val@U?$_Tree_simple_types@U?$pair@$$CBH_N@std@@@std@@@std@@@std@@QEAA@PEAU?$_Tree_node@U?$pair@$$CBH_N@std@@PEAX@1@PEBV?$_Tree_val@U?$_Tree_simple_types@U?$pair@$$CBH_N@std@@@std@@@1@@Z 000000014002d4b0 f i main.obj
 0001:0002c4b0       ??0?$_Tree_iterator@V?$_Tree_val@U?$_Tree_simple_types@U?$pair@$$CBV?$basic_string@DU?$char_traits@D@std@@V?$allocator@D@2@@std@@V12@@std@@@std@@@std@@@std@@QEAA@PEAU?$_Tree_node@U?$pair@$$CBV?$basic_string@DU?$char_traits@D@std@@V?$allocator@D@2@@std@@V12@@std@@PEAX@1@PEBV?$_Tree_val@U?$_Tree_simple_types@U?$pair@$$CBV?$basic_string@DU?$char_traits@D@std@@V?$allocator@D@2@@std@@V12@@std@@@std@@@1@@Z 000000014002d4b0 f i main.obj
 0001:0002c4b0       ??0?$_Tree_iterator@V?$_Tree_val@U?$_Tree_simple_types@U?$pair@$$CBHI@std@@@std@@@std@@@std@@QEAA@PEAU?$_Tree_node@U?$pair@$$CBHI@std@@PEAX@1@PEBV?$_Tree_val@U?$_Tree_simple_types@U?$pair@$$CBHI@std@@@std@@@1@@Z 000000014002d4b0 f i main.obj
 0001:0002c4f0       ??0?$_Tree_unchecked_const_iterator@V?$_Tree_val@U?$_Tree_simple_types@U?$pair@$$CBHI@std@@@std@@@std@@U_Iterator_base0@2@@std@@QEAA@XZ 000000014002d4f0 f i main.obj
 0001:0002c4f0       ??0?$_Tree_unchecked_const_iterator@V?$_Tree_val@U?$_Tree_simple_types@U?$pair@$$CBH_N@std@@@std@@@std@@U_Iterator_base0@2@@std@@QEAA@XZ 000000014002d4f0 f i main.obj
 0001:0002c4f0       ??0?$_Tree_unchecked_const_iterator@V?$_Tree_val@U?$_Tree_simple_types@U?$pair@$$CBV?$basic_string@DU?$char_traits@D@std@@V?$allocator@D@2@@std@@V12@@std@@@std@@@std@@U_Iterator_base0@2@@std@@QEAA@XZ 000000014002d4f0 f i main.obj
 0001:0002c510       ??0?$_Tree_val@U?$_Tree_simple_types@U?$pair@$$CBHI@std@@@std@@@std@@QEAA@XZ 000000014002d510 f i main.obj
 0001:0002c510       ??0?$_Tree_val@U?$_Tree_simple_types@U?$pair@$$CBV?$basic_string@DU?$char_traits@D@std@@V?$allocator@D@2@@std@@V12@@std@@@std@@@std@@QEAA@XZ 000000014002d510 f i main.obj
 0001:0002c510       ??0?$_Tree_val@U?$_Tree_simple_types@U?$pair@$$CBH_N@std@@@std@@@std@@QEAA@XZ 000000014002d510 f i main.obj
 0001:0002c540       ??0?$_Vector_alloc@U?$_Vec_base_types@DV?$allocator@D@std@@@std@@@std@@QEAA@XZ 000000014002d540 f i main.obj
 0001:0002c570       ??0?$_Tree_unchecked_const_iterator@V?$_Tree_val@U?$_Tree_simple_types@U?$pair@$$CBV?$basic_string@DU?$char_traits@D@std@@V?$allocator@D@2@@std@@V12@@std@@@std@@@std@@U_Iterator_base0@2@@std@@QEAA@PEAU?$_Tree_node@U?$pair@$$CBV?$basic_string@DU?$char_traits@D@std@@V?$allocator@D@2@@std@@V12@@std@@PEAX@1@PEBV?$_Tree_val@U?$_Tree_simple_types@U?$pair@$$CBV?$basic_string@DU?$char_traits@D@std@@V?$allocator@D@2@@std@@V12@@std@@@std@@@1@@Z 000000014002d570 f i main.obj
 0001:0002c570       ??0?$_String_const_iterator@V?$_String_val@U?$_Simple_types@D@std@@@std@@@std@@QEAA@PEBDPEBU_Container_base0@1@@Z 000000014002d570 f i main.obj
 0001:0002c570       ??0?$_Vector_const_iterator@V?$_Vector_val@U?$_Simple_types@D@std@@@std@@@std@@QEAA@PEADPEBU_Container_base0@1@@Z 000000014002d570 f i main.obj
 0001:0002c570       ??0?$_Tree_unchecked_const_iterator@V?$_Tree_val@U?$_Tree_simple_types@U?$pair@$$CBHI@std@@@std@@@std@@U_Iterator_base0@2@@std@@QEAA@PEAU?$_Tree_node@U?$pair@$$CBHI@std@@PEAX@1@PEBV?$_Tree_val@U?$_Tree_simple_types@U?$pair@$$CBHI@std@@@std@@@1@@Z 000000014002d570 f i main.obj
 0001:0002c570       ??0?$_Tree_unchecked_const_iterator@V?$_Tree_val@U?$_Tree_simple_types@U?$pair@$$CBH_N@std@@@std@@@std@@U_Iterator_base0@2@@std@@QEAA@PEAU?$_Tree_node@U?$pair@$$CBH_N@std@@PEAX@1@PEBV?$_Tree_val@U?$_Tree_simple_types@U?$pair@$$CBH_N@std@@@std@@@1@@Z 000000014002d570 f i main.obj
 0001:0002c5b0       ??0?$_Vector_iterator@V?$_Vector_val@U?$_Simple_types@D@std@@@std@@@std@@QEAA@PEADPEBU_Container_base0@1@@Z 000000014002d5b0 f i main.obj
 0001:0002c5b0       ??0?$_Tree_const_iterator@V?$_Tree_val@U?$_Tree_simple_types@U?$pair@$$CBV?$basic_string@DU?$char_traits@D@std@@V?$allocator@D@2@@std@@V12@@std@@@std@@@std@@@std@@QEAA@PEAU?$_Tree_node@U?$pair@$$CBV?$basic_string@DU?$char_traits@D@std@@V?$allocator@D@2@@std@@V12@@std@@PEAX@1@PEBV?$_Tree_val@U?$_Tree_simple_types@U?$pair@$$CBV?$basic_string@DU?$char_traits@D@std@@V?$allocator@D@2@@std@@V12@@std@@@std@@@1@@Z 000000014002d5b0 f i main.obj
 0001:0002c5b0       ??0?$_Tree_const_iterator@V?$_Tree_val@U?$_Tree_simple_types@U?$pair@$$CBH_N@std@@@std@@@std@@@std@@QEAA@PEAU?$_Tree_node@U?$pair@$$CBH_N@std@@PEAX@1@PEBV?$_Tree_val@U?$_Tree_simple_types@U?$pair@$$CBH_N@std@@@std@@@1@@Z 000000014002d5b0 f i main.obj
 0001:0002c5b0       ??0?$_Tree_const_iterator@V?$_Tree_val@U?$_Tree_simple_types@U?$pair@$$CBHI@std@@@std@@@std@@@std@@QEAA@PEAU?$_Tree_node@U?$pair@$$CBHI@std@@PEAX@1@PEBV?$_Tree_val@U?$_Tree_simple_types@U?$pair@$$CBHI@std@@@std@@@1@@Z 000000014002d5b0 f i main.obj
 0001:0002c5b0       ??0?$_String_iterator@V?$_String_val@U?$_Simple_types@D@std@@@std@@@std@@QEAA@PEADPEBU_Container_base0@1@@Z 000000014002d5b0 f i main.obj
 0001:0002c5f0       ??0?$_Vector_val@U?$_Simple_types@D@std@@@std@@QEAA@XZ 000000014002d5f0 f i main.obj
 0001:0002c630       ??0?$_Wrap_alloc@V?$allocator@U?$_Tree_node@U?$pair@$$CBH_N@std@@PEAX@std@@@std@@@std@@QEAA@XZ 000000014002d630 f i main.obj
 0001:0002c630       ??0?$_Wrap_alloc@V?$allocator@D@std@@@std@@QEAA@XZ 000000014002d630 f i main.obj
 0001:0002c630       ??0?$_Wrap_alloc@V?$allocator@U?$_Tree_node@U?$pair@$$CBHI@std@@PEAX@std@@@std@@@std@@QEAA@XZ 000000014002d630 f i main.obj
 0001:0002c630       ??$forward_as_tuple@$$V@std@@YA?AV?$tuple@$$V@0@XZ 000000014002d630 f i main.obj
 0001:0002c630       ??0?$_Wrap_alloc@V?$allocator@U?$_Tree_node@U?$pair@$$CBV?$basic_string@DU?$char_traits@D@std@@V?$allocator@D@2@@std@@V12@@std@@PEAX@std@@@std@@@std@@QEAA@XZ 000000014002d630 f i main.obj
 0001:0002c650       ??0?$_Yarn@D@std@@QEAA@XZ  000000014002d650 f i main.obj
 0001:0002c670       ??0?$_Yarn@_W@std@@QEAA@XZ 000000014002d670 f i main.obj
 0001:0002c6a0       ??0?$allocator@D@std@@QEAA@AEBV01@@Z 000000014002d6a0 f i main.obj
 0001:0002c6a0       ??0?$tuple@$$V@std@@QEAA@AEBV01@@Z 000000014002d6a0 f i main.obj
 0001:0002c6a0       ??0?$allocator@U?$_Tree_node@U?$pair@$$CBV?$basic_string@DU?$char_traits@D@std@@V?$allocator@D@2@@std@@V12@@std@@PEAX@std@@@std@@QEAA@AEBV01@@Z 000000014002d6a0 f i main.obj
 0001:0002c6b0       ??0?$basic_filebuf@DU?$char_traits@D@std@@@std@@QEAA@PEAU_iobuf@@@Z 000000014002d6b0 f i main.obj
 0001:0002c700       ??0?$basic_ifstream@DU?$char_traits@D@std@@@std@@QEAA@AEBV?$basic_string@DU?$char_traits@D@std@@V?$allocator@D@2@@1@HH@Z 000000014002d700 f i main.obj
 0001:0002c840       ??0?$basic_ios@DU?$char_traits@D@std@@@std@@IEAA@XZ 000000014002d840 f i main.obj
 0001:0002c870       ??0?$basic_istream@DU?$char_traits@D@std@@@std@@QEAA@PEAV?$basic_streambuf@DU?$char_traits@D@std@@@1@_N@Z 000000014002d870 f i main.obj
 0001:0002c950       ??0?$basic_streambuf@DU?$char_traits@D@std@@@std@@IEAA@XZ 000000014002d950 f i main.obj
 0001:0002c9c0       ??0?$basic_string@DU?$char_traits@D@std@@V?$allocator@D@2@@std@@QEAA@$$QEAV01@@Z 000000014002d9c0 f i main.obj
 0001:0002ca30       ??0?$basic_string@DU?$char_traits@D@std@@V?$allocator@D@2@@std@@QEAA@AEBV01@@Z 000000014002da30 f i main.obj
 0001:0002cab0       ??0?$basic_string@DU?$char_traits@D@std@@V?$allocator@D@2@@std@@QEAA@AEBV01@_K1AEBV?$allocator@D@1@@Z 000000014002dab0 f i main.obj
 0001:0002cb20       ??0?$basic_string@DU?$char_traits@D@std@@V?$allocator@D@2@@std@@QEAA@PEBD@Z 000000014002db20 f i main.obj
 0001:0002cb70       ??0?$basic_string@DU?$char_traits@D@std@@V?$allocator@D@2@@std@@QEAA@XZ 000000014002db70 f i main.obj
 0001:0002cbb0       ??0?$basic_string@DU?$char_traits@D@std@@V?$allocator@D@2@@std@@QEAA@_KD@Z 000000014002dbb0 f i main.obj
 0001:0002cc10       ??0?$codecvt@DDU_Mbstatet@@@std@@QEAA@AEBV_Locinfo@1@_K@Z 000000014002dc10 f i main.obj
 0001:0002cc70       ??0?$ctype@D@std@@QEAA@AEBV_Locinfo@1@_K@Z 000000014002dc70 f i main.obj
 0001:0002ccd0       ??0?$fpos@U_Mbstatet@@@std@@QEAA@U_Mbstatet@@_J@Z 000000014002dcd0 f i main.obj
 0001:0002cd10       ??0?$fpos@U_Mbstatet@@@std@@QEAA@_J@Z 000000014002dd10 f i main.obj
 0001:0002cd60       ??0?$initializer_list@U?$pair@$$CBHI@std@@@std@@QEAA@PEBU?$pair@$$CBHI@1@0@Z 000000014002dd60 f i main.obj
 0001:0002cd60       ??0?$initializer_list@U?$pair@$$CBH_N@std@@@std@@QEAA@PEBU?$pair@$$CBH_N@1@0@Z 000000014002dd60 f i main.obj
 0001:0002cd90       ??0?$map@HIU?$less@H@std@@V?$allocator@U?$pair@$$CBHI@std@@@2@@std@@QEAA@V?$initializer_list@U?$pair@$$CBHI@std@@@1@@Z 000000014002dd90 f i main.obj
 0001:0002cdf0       ??0?$map@H_NU?$less@H@std@@V?$allocator@U?$pair@$$CBH_N@std@@@2@@std@@QEAA@V?$initializer_list@U?$pair@$$CBH_N@std@@@1@@Z 000000014002ddf0 f i main.obj
 0001:0002ce50       ??0?$map@V?$basic_string@DU?$char_traits@D@std@@V?$allocator@D@2@@std@@V12@U?$less@V?$basic_string@DU?$char_traits@D@std@@V?$allocator@D@2@@std@@@2@V?$allocator@U?$pair@$$CBV?$basic_string@DU?$char_traits@D@std@@V?$allocator@D@2@@std@@V12@@std@@@2@@std@@QEAA@$$QEAV01@@Z 000000014002de50 f i main.obj
 0001:0002ce80       ??0?$map@V?$basic_string@DU?$char_traits@D@std@@V?$allocator@D@2@@std@@V12@U?$less@V?$basic_string@DU?$char_traits@D@std@@V?$allocator@D@2@@std@@@2@V?$allocator@U?$pair@$$CBV?$basic_string@DU?$char_traits@D@std@@V?$allocator@D@2@@std@@V12@@std@@@2@@std@@QEAA@XZ 000000014002de80 f i main.obj
 0001:0002ceb0       ??0?$time_point@Usystem_clock@chrono@std@@V?$duration@_JU?$ratio@$00$0JIJGIA@@std@@@23@@chrono@std@@QEAA@AEBV?$duration@_JU?$ratio@$00$0JIJGIA@@std@@@12@@Z 000000014002deb0 f i main.obj
 0001:0002ced0       ??0?$tmat4x4@M$0A@@glm@@QEAA@AEBM@Z 000000014002ded0 f i main.obj
 0001:0002d020       ??0?$tmat4x4@M$0A@@glm@@QEAA@W4ctor@1@@Z 000000014002e020 f i main.obj
 0001:0002d060       ??0?$tmat4x4@M$0A@@glm@@QEAA@XZ 000000014002e060 f i main.obj
 0001:0002d190       ??0?$tuple@AEBH@std@@QEAA@$$QEAV01@@Z 000000014002e190 f i main.obj
 0001:0002d190       ??0?$tuple@AEBV?$basic_string@DU?$char_traits@D@std@@V?$allocator@D@2@@std@@@std@@QEAA@$$QEAV01@@Z 000000014002e190 f i main.obj
 0001:0002d190       ??0?$tuple@$$QEAV?$basic_string@DU?$char_traits@D@std@@V?$allocator@D@2@@std@@@std@@QEAA@$$QEAV01@@Z 000000014002e190 f i main.obj
 0001:0002d190       ??0?$tuple@$$QEAH@std@@QEAA@$$QEAV01@@Z 000000014002e190 f i main.obj
 0001:0002d1d0       ??0?$tvec2@M$0A@@glm@@QEAA@MM@Z 000000014002e1d0 f i main.obj
 0001:0002d210       ??0?$tvec2@M$0A@@glm@@QEAA@XZ 000000014002e210 f i main.obj
 0001:0002d240       ??0?$tvec3@M$0A@@glm@@QEAA@MMM@Z 000000014002e240 f i main.obj
 0001:0002d290       ??0?$tvec3@M$0A@@glm@@QEAA@XZ 000000014002e290 f i main.obj
 0001:0002d2d0       ??0?$tvec4@M$0A@@glm@@QEAA@M@Z 000000014002e2d0 f i main.obj
 0001:0002d320       ??0?$tvec4@M$0A@@glm@@QEAA@MMMM@Z 000000014002e320 f i main.obj
 0001:0002d380       ??0?$tvec4@M$0A@@glm@@QEAA@XZ 000000014002e380 f i main.obj
 0001:0002d3c0       ??0?$unique_ptr@V?$tuple@P6AXPEAUasset_manager@@@ZPEAU1@@std@@U?$default_delete@V?$tuple@P6AXPEAUasset_manager@@@ZPEAU1@@std@@@2@@std@@QEAA@$$QEAV01@@Z 000000014002e3c0 f i main.obj
 0001:0002d420       ??0?$unique_ptr@V?$tuple@P6AXPEAUasset_manager@@@ZPEAU1@@std@@U?$default_delete@V?$tuple@P6AXPEAUasset_manager@@@ZPEAU1@@std@@@2@@std@@QEAA@PEAV?$tuple@P6AXPEAUasset_manager@@@ZPEAU1@@1@@Z 000000014002e420 f i main.obj
 0001:0002d460       ??0?$vector@DV?$allocator@D@std@@@std@@QEAA@_K@Z 000000014002e460 f i main.obj
 0001:0002d500       ??0_Auto_mtx@std@@QEAA@PEAU_Mtx_internal_imp_t@@@Z 000000014002e500 f i main.obj
 0001:0002d500       ??0_Auto_cnd@std@@QEAA@PEAU_Cnd_internal_imp_t@@@Z 000000014002e500 f i main.obj
 0001:0002d530       ??0_Facet_base@std@@QEAA@XZ 000000014002e530 f i main.obj
 0001:0002d550       ??0_Generic_error_category@std@@QEAA@XZ 000000014002e550 f i main.obj
 0001:0002d590       ??0_Iostream_error_category@std@@QEAA@XZ 000000014002e590 f i main.obj
 0001:0002d5d0       ??0_Locinfo@std@@QEAA@PEBD@Z 000000014002e5d0 f i main.obj
 0001:0002d6b0       ??0_Pad@std@@QEAA@XZ       000000014002e6b0 f i main.obj
 0001:0002d770       ??0_Sentry_base@?$basic_ostream@DU?$char_traits@D@std@@@std@@QEAA@AEAV12@@Z 000000014002e770 f i main.obj
 0001:0002d770       ??0_Sentry_base@?$basic_istream@DU?$char_traits@D@std@@@std@@QEAA@AEAV12@@Z 000000014002e770 f i main.obj
 0001:0002d810       ??0_System_error@std@@IEAA@Verror_code@1@AEBV?$basic_string@DU?$char_traits@D@std@@V?$allocator@D@2@@1@@Z 000000014002e810 f i main.obj
 0001:0002d910       ??0_System_error@std@@QEAA@AEBV01@@Z 000000014002e910 f i main.obj
 0001:0002d970       ??0asset_manager@@QEAA@XZ  000000014002e970 f i main.obj
 0001:0002d9a0       ??0bad_cast@std@@QEAA@AEBV01@@Z 000000014002e9a0 f i main.obj
 0001:0002d9e0       ??0bad_cast@std@@QEAA@XZ   000000014002e9e0 f i main.obj
 0001:0002da20       ??0camera@@QEAA@XZ         000000014002ea20 f i main.obj
 0001:0002da70       ??0codecvt_base@std@@QEAA@_K@Z 000000014002ea70 f i main.obj
 0001:0002dab0       ??0ctype_base@std@@QEAA@_K@Z 000000014002eab0 f i main.obj
 0001:0002daf0       ??0entity@@QEAA@XZ         000000014002eaf0 f i main.obj
 0001:0002db50       ??0error_category@std@@QEAA@XZ 000000014002eb50 f i main.obj
 0001:0002db80       ??0error_condition@std@@QEAA@HAEBVerror_category@1@@Z 000000014002eb80 f i main.obj
 0001:0002db80       ??0error_code@std@@QEAA@HAEBVerror_category@1@@Z 000000014002eb80 f i main.obj
 0001:0002dbb0       ??0exception@std@@QEAA@AEBV01@@Z 000000014002ebb0 f i main.obj
 0001:0002dc10       ??0exception@std@@QEAA@QEBD@Z 000000014002ec10 f i main.obj
 0001:0002dc80       ??0exception@std@@QEAA@QEBDH@Z 000000014002ec80 f i main.obj
 0001:0002dcd0       ??0facet@locale@std@@IEAA@_K@Z 000000014002ecd0 f i main.obj
 0001:0002dd30       ??0failure@ios_base@std@@QEAA@AEBV012@@Z 000000014002ed30 f i main.obj
 0001:0002dd70       ??0failure@ios_base@std@@QEAA@PEBDAEBVerror_code@2@@Z 000000014002ed70 f i main.obj
 0001:0002ddd0       ??0game_code@@QEAA@XZ      000000014002edd0 f i main.obj
 0001:0002de00       ??0id@locale@std@@QEAA@_K@Z 000000014002ee00 f i main.obj
 0001:0002de20       ??0input_controller@@QEAA@XZ 000000014002ee20 f i main.obj
 0001:0002ed40       ??0ios_base@std@@IEAA@XZ   000000014002fd40 f i main.obj
 0001:0002ed60       ??0locale@std@@QEAA@AEBV01@@Z 000000014002fd60 f i main.obj
 0001:0002edb0       ??0locale@std@@QEAA@XZ     000000014002fdb0 f i main.obj
 0001:0002ede0       ??0render_font@@QEAA@XZ    000000014002fde0 f i main.obj
 0001:0002ee30       ??0render_state@@QEAA@XZ   000000014002fe30 f i main.obj
 0001:0002f010       ??0runtime_error@std@@QEAA@AEBV01@@Z 0000000140030010 f i main.obj
 0001:0002f050       ??0runtime_error@std@@QEAA@AEBV?$basic_string@DU?$char_traits@D@std@@V?$allocator@D@2@@1@@Z 0000000140030050 f i main.obj
 0001:0002f090       ??0runtime_error@std@@QEAA@PEBD@Z 0000000140030090 f i main.obj
 0001:0002f0d0       ??0sentry@?$basic_istream@DU?$char_traits@D@std@@@std@@QEAA@AEAV12@_N@Z 00000001400300d0 f i main.obj
 0001:0002f120       ??0sentry@?$basic_ostream@DU?$char_traits@D@std@@@std@@QEAA@AEAV12@@Z 0000000140030120 f i main.obj
 0001:0002f210       ??0system_error@std@@QEAA@AEBV01@@Z 0000000140030210 f i main.obj
 0001:0002f250       ??0system_error@std@@QEAA@Verror_code@1@PEBD@Z 0000000140030250 f i main.obj
 0001:0002f300       ??0tile_chunk@@QEAA@XZ     0000000140030300 f i main.obj
 0001:0002f340       ??0tile_data@@QEAA@XZ      0000000140030340 f i main.obj
 0001:0002f370       ??1?$_Compressed_pair@U?$_Wrap_alloc@V?$allocator@D@std@@@std@@V?$_String_val@U?$_Simple_types@D@std@@@2@$00@std@@QEAA@XZ 0000000140030370 f i main.obj
 0001:0002f390       ??1?$_LaunchPad@V?$unique_ptr@V?$tuple@P6AXPEAUasset_manager@@@ZPEAU1@@std@@U?$default_delete@V?$tuple@P6AXPEAUasset_manager@@@ZPEAU1@@std@@@2@@std@@@std@@QEAA@XZ 0000000140030390 f i main.obj
 0001:0002f3c0       ??1?$_String_alloc@U?$_String_base_types@DV?$allocator@D@std@@@std@@@std@@QEAA@XZ 00000001400303c0 f i main.obj
 0001:0002f3e0       ??1?$_String_val@U?$_Simple_types@D@std@@@std@@QEAA@XZ 00000001400303e0 f i main.obj
 0001:0002f400       ??1?$_Tree@V?$_Tmap_traits@HIU?$less@H@std@@V?$allocator@U?$pair@$$CBHI@std@@@2@$0A@@std@@@std@@QEAA@XZ 0000000140030400 f i main.obj
 0001:0002f430       ??1?$_Tree@V?$_Tmap_traits@H_NU?$less@H@std@@V?$allocator@U?$pair@$$CBH_N@std@@@2@$0A@@std@@@std@@QEAA@XZ 0000000140030430 f i main.obj
 0001:0002f460       ??1?$_Tree@V?$_Tmap_traits@V?$basic_string@DU?$char_traits@D@std@@V?$allocator@D@2@@std@@V12@U?$less@V?$basic_string@DU?$char_traits@D@std@@V?$allocator@D@2@@std@@@2@V?$allocator@U?$pair@$$CBV?$basic_string@DU?$char_traits@D@std@@V?$allocator@D@2@@std@@V12@@std@@@2@$0A@@std@@@std@@QEAA@XZ 0000000140030460 f i main.obj
 0001:0002f490       ??1?$_Tree_comp_alloc@V?$_Tmap_traits@HIU?$less@H@std@@V?$allocator@U?$pair@$$CBHI@std@@@2@$0A@@std@@@std@@QEAA@XZ 0000000140030490 f i main.obj
 0001:0002f4c0       ??1?$_Tree_comp_alloc@V?$_Tmap_traits@H_NU?$less@H@std@@V?$allocator@U?$pair@$$CBH_N@std@@@2@$0A@@std@@@std@@QEAA@XZ 00000001400304c0 f i main.obj
 0001:0002f4f0       ??1?$_Tree_comp_alloc@V?$_Tmap_traits@V?$basic_string@DU?$char_traits@D@std@@V?$allocator@D@2@@std@@V12@U?$less@V?$basic_string@DU?$char_traits@D@std@@V?$allocator@D@2@@std@@@2@V?$allocator@U?$pair@$$CBV?$basic_string@DU?$char_traits@D@std@@V?$allocator@D@2@@std@@V12@@std@@@2@$0A@@std@@@std@@QEAA@XZ 00000001400304f0 f i main.obj
 0001:0002f520       ??1?$_Yarn@D@std@@QEAA@XZ  0000000140030520 f i main.obj
 0001:0002f550       ??1?$_Yarn@_W@std@@QEAA@XZ 0000000140030550 f i main.obj
 0001:0002f580       ??1?$basic_filebuf@DU?$char_traits@D@std@@@std@@UEAA@XZ 0000000140030580 f i main.obj
 0001:0002f5f0       ??1?$basic_ifstream@DU?$char_traits@D@std@@@std@@UEAA@XZ 00000001400305f0 f i main.obj
 0001:0002f680       ??1?$basic_ios@DU?$char_traits@D@std@@@std@@UEAA@XZ 0000000140030680 f i main.obj
 0001:0002f6b0       ??1?$basic_istream@DU?$char_traits@D@std@@@std@@UEAA@XZ 00000001400306b0 f i main.obj
 0001:0002f700       ??1?$basic_streambuf@DU?$char_traits@D@std@@@std@@UEAA@XZ 0000000140030700 f i main.obj
 0001:0002f760       ??1?$basic_string@DU?$char_traits@D@std@@V?$allocator@D@2@@std@@QEAA@XZ 0000000140030760 f i main.obj
 0001:0002f7a0       ??1?$codecvt@DDU_Mbstatet@@@std@@MEAA@XZ 00000001400307a0 f i main.obj
 0001:0002f7d0       ??1?$ctype@D@std@@MEAA@XZ  00000001400307d0 f i main.obj
 0001:0002f810       ??1?$map@HIU?$less@H@std@@V?$allocator@U?$pair@$$CBHI@std@@@2@@std@@QEAA@XZ 0000000140030810 f i main.obj
 0001:0002f830       ??1?$map@H_NU?$less@H@std@@V?$allocator@U?$pair@$$CBH_N@std@@@2@@std@@QEAA@XZ 0000000140030830 f i main.obj
 0001:0002f850       ??1?$map@V?$basic_string@DU?$char_traits@D@std@@V?$allocator@D@2@@std@@V12@U?$less@V?$basic_string@DU?$char_traits@D@std@@V?$allocator@D@2@@std@@@2@V?$allocator@U?$pair@$$CBV?$basic_string@DU?$char_traits@D@std@@V?$allocator@D@2@@std@@V12@@std@@@2@@std@@QEAA@XZ 0000000140030850 f i main.obj
 0001:0002f870       ??1?$pair@$$CBV?$basic_string@DU?$char_traits@D@std@@V?$allocator@D@2@@std@@V12@@std@@QEAA@XZ 0000000140030870 f i main.obj
 0001:0002f8a0       ??1?$unique_ptr@V?$tuple@P6AXPEAUasset_manager@@@ZPEAU1@@std@@U?$default_delete@V?$tuple@P6AXPEAUasset_manager@@@ZPEAU1@@std@@@2@@std@@QEAA@XZ 00000001400308a0 f i main.obj
 0001:0002f8f0       ??1?$vector@DV?$allocator@D@std@@@std@@QEAA@XZ 00000001400308f0 f i main.obj
 0001:0002f920       ??1_Auto_cnd@std@@QEAA@XZ  0000000140030920 f i main.obj
 0001:0002f950       ??1_Auto_mtx@std@@QEAA@XZ  0000000140030950 f i main.obj
 0001:0002f980       ??1_Facet_base@std@@UEAA@XZ 0000000140030980 f i main.obj
 0001:0002f9a0       ??1_Generic_error_category@std@@UEAA@XZ 00000001400309a0 f i main.obj
 0001:0002f9c0       ??1_Iostream_error_category@std@@UEAA@XZ 00000001400309c0 f i main.obj
 0001:0002f9e0       ??1_Locinfo@std@@QEAA@XZ   00000001400309e0 f i main.obj
 0001:0002fa80       ??1_Pad@std@@QEAA@XZ       0000000140030a80 f i main.obj
 0001:0002fb00       ??1_Sentry_base@?$basic_istream@DU?$char_traits@D@std@@@std@@QEAA@XZ 0000000140030b00 f i main.obj
 0001:0002fb90       ??1_Sentry_base@?$basic_ostream@DU?$char_traits@D@std@@@std@@QEAA@XZ 0000000140030b90 f i main.obj
 0001:0002fc20       ??1_System_error@std@@UEAA@XZ 0000000140030c20 f i main.obj
 0001:0002fc40       ??1runtime_error@std@@UEAA@XZ 0000000140030c40 f i main.obj
 0001:0002fc40       ??1bad_cast@std@@UEAA@XZ   0000000140030c40 f i main.obj
 0001:0002fc60       ??1codecvt_base@std@@UEAA@XZ 0000000140030c60 f i main.obj
 0001:0002fc90       ??1ctype_base@std@@UEAA@XZ 0000000140030c90 f i main.obj
 0001:0002fcc0       ??1error_category@std@@UEAA@XZ 0000000140030cc0 f i main.obj
 0001:0002fce0       ??1exception@std@@UEAA@XZ  0000000140030ce0 f i main.obj
 0001:0002fd10       ??1facet@locale@std@@MEAA@XZ 0000000140030d10 f i main.obj
 0001:0002fd40       ??1failure@ios_base@std@@UEAA@XZ 0000000140030d40 f i main.obj
 0001:0002fd60       ??1game_state@@QEAA@XZ     0000000140030d60 f i main.obj
 0001:0002fd90       ??1input_controller@@QEAA@XZ 0000000140030d90 f i main.obj
 0001:0002fdc0       ??1ios_base@std@@UEAA@XZ   0000000140030dc0 f i main.obj
 0001:0002fe00       ??1locale@std@@QEAA@XZ     0000000140030e00 f i main.obj
 0001:0002fe80       ??1sentry@?$basic_istream@DU?$char_traits@D@std@@@std@@QEAA@XZ 0000000140030e80 f i main.obj
 0001:0002fea0       ??1sentry@?$basic_ostream@DU?$char_traits@D@std@@@std@@QEAA@XZ 0000000140030ea0 f i main.obj
 0001:0002fee0       ??1system_error@std@@UEAA@XZ 0000000140030ee0 f i main.obj
 0001:0002ff00       ??1thread@std@@QEAA@XZ     0000000140030f00 f i main.obj
 0001:0002ff30       ??2@YAPEAX_KPEAX@Z         0000000140030f30 f i main.obj
 0001:0002ff40       ??4?$_Tree@V?$_Tmap_traits@HIU?$less@H@std@@V?$allocator@U?$pair@$$CBHI@std@@@2@$0A@@std@@@std@@QEAAAEAV01@AEBV01@@Z 0000000140030f40 f i main.obj
 0001:0002fff0       ??4?$_Tree@V?$_Tmap_traits@H_NU?$less@H@std@@V?$allocator@U?$pair@$$CBH_N@std@@@2@$0A@@std@@@std@@QEAAAEAV01@AEBV01@@Z 0000000140030ff0 f i main.obj
 0001:000300a0       ??4?$_Wrap_alloc@V?$allocator@D@std@@@std@@QEAAAEAU01@$$QEAU01@@Z 00000001400310a0 f i main.obj
 0001:000300d0       ??4?$basic_string@DU?$char_traits@D@std@@V?$allocator@D@2@@std@@QEAAAEAV01@$$QEAV01@@Z 00000001400310d0 f i main.obj
 0001:000301f0       ??4?$basic_string@DU?$char_traits@D@std@@V?$allocator@D@2@@std@@QEAAAEAV01@AEBV01@@Z 00000001400311f0 f i main.obj
 0001:00030280       ??4?$map@HIU?$less@H@std@@V?$allocator@U?$pair@$$CBHI@std@@@2@@std@@QEAAAEAV01@AEBV01@@Z 0000000140031280 f i main.obj
 0001:000302b0       ??4?$map@H_NU?$less@H@std@@V?$allocator@U?$pair@$$CBH_N@std@@@2@@std@@QEAAAEAV01@AEBV01@@Z 00000001400312b0 f i main.obj
 0001:000302e0       ??4input_controller@@QEAAAEAU0@AEBU0@@Z 00000001400312e0 f i main.obj
 0001:00030350       ??6?$basic_ostream@DU?$char_traits@D@std@@@std@@QEAAAEAV01@P6AAEAV01@AEAV01@@Z@Z 0000000140031350 f i main.obj
 0001:00030370       ??8?$_Tree_const_iterator@V?$_Tree_val@U?$_Tree_simple_types@U?$pair@$$CBHI@std@@@std@@@std@@@std@@QEBA_NAEBV01@@Z 0000000140031370 f i main.obj
 0001:00030370       ??8?$_Tree_const_iterator@V?$_Tree_val@U?$_Tree_simple_types@U?$pair@$$CBH_N@std@@@std@@@std@@@std@@QEBA_NAEBV01@@Z 0000000140031370 f i main.obj
 0001:00030370       ??8?$_Tree_const_iterator@V?$_Tree_val@U?$_Tree_simple_types@U?$pair@$$CBV?$basic_string@DU?$char_traits@D@std@@V?$allocator@D@2@@std@@V12@@std@@@std@@@std@@@std@@QEBA_NAEBV01@@Z 0000000140031370 f i main.obj
 0001:000303b0       ??8?$_String_const_iterator@V?$_String_val@U?$_Simple_types@D@std@@@std@@@std@@QEBA_NAEBV01@@Z 00000001400313b0 f i main.obj
 0001:000303b0       ??8?$_Vector_const_iterator@V?$_Vector_val@U?$_Simple_types@D@std@@@std@@@std@@QEBA_NAEBV01@@Z 00000001400313b0 f i main.obj
 0001:00030400       ??8error_category@std@@QEBA_NAEBV01@@Z 0000000140031400 f i main.obj
 0001:00030440       ??8std@@YA_NAEBVerror_condition@0@0@Z 0000000140031440 f i main.obj
 0001:000304c0       ??9?$_Tree_const_iterator@V?$_Tree_val@U?$_Tree_simple_types@U?$pair@$$CBH_N@std@@@std@@@std@@@std@@QEBA_NAEBV01@@Z 00000001400314c0 f i main.obj
 0001:000304c0       ??9?$_Tree_const_iterator@V?$_Tree_val@U?$_Tree_simple_types@U?$pair@$$CBHI@std@@@std@@@std@@@std@@QEBA_NAEBV01@@Z 00000001400314c0 f i main.obj
 0001:000304c0       ??9?$_Tree_const_iterator@V?$_Tree_val@U?$_Tree_simple_types@U?$pair@$$CBV?$basic_string@DU?$char_traits@D@std@@V?$allocator@D@2@@std@@V12@@std@@@std@@@std@@@std@@QEBA_NAEBV01@@Z 00000001400314c0 f i main.obj
 0001:00030500       ??9?$_Vector_const_iterator@V?$_Vector_val@U?$_Simple_types@D@std@@@std@@@std@@QEBA_NAEBV01@@Z 0000000140031500 f i main.obj
 0001:00030540       ??A?$map@HIU?$less@H@std@@V?$allocator@U?$pair@$$CBHI@std@@@2@@std@@QEAAAEAI$$QEAH@Z 0000000140031540 f i main.obj
 0001:00030580       ??A?$map@HIU?$less@H@std@@V?$allocator@U?$pair@$$CBHI@std@@@2@@std@@QEAAAEAIAEBH@Z 0000000140031580 f i main.obj
 0001:000305c0       ??A?$map@H_NU?$less@H@std@@V?$allocator@U?$pair@$$CBH_N@std@@@2@@std@@QEAAAEA_NAEBH@Z 00000001400315c0 f i main.obj
 0001:00030600       ??A?$map@V?$basic_string@DU?$char_traits@D@std@@V?$allocator@D@2@@std@@V12@U?$less@V?$basic_string@DU?$char_traits@D@std@@V?$allocator@D@2@@std@@@2@V?$allocator@U?$pair@$$CBV?$basic_string@DU?$char_traits@D@std@@V?$allocator@D@2@@std@@V12@@std@@@2@@std@@QEAAAEAV?$basic_string@DU?$char_traits@D@std@@V?$allocator@D@2@@1@$$QEAV21@@Z 0000000140031600 f i main.obj
 0001:00030640       ??A?$map@V?$basic_string@DU?$char_traits@D@std@@V?$allocator@D@2@@std@@V12@U?$less@V?$basic_string@DU?$char_traits@D@std@@V?$allocator@D@2@@std@@@2@V?$allocator@U?$pair@$$CBV?$basic_string@DU?$char_traits@D@std@@V?$allocator@D@2@@std@@V12@@std@@@2@@std@@QEAAAEAV?$basic_string@DU?$char_traits@D@std@@V?$allocator@D@2@@1@AEBV21@@Z 0000000140031640 f i main.obj
 0001:00030680       ??A?$tmat4x4@M$0A@@glm@@QEAAAEAU?$tvec4@M$0A@@1@H@Z 0000000140031680 f i main.obj
 0001:000306d0       ??A?$tmat4x4@M$0A@@glm@@QEBAAEBU?$tvec4@M$0A@@1@H@Z 00000001400316d0 f i main.obj
 0001:00030720       ??A?$tvec3@M$0A@@glm@@QEAAAEAMH@Z 0000000140031720 f i main.obj
 0001:00030770       ??A?$tvec3@M$0A@@glm@@QEBAAEBMH@Z 0000000140031770 f i main.obj
 0001:000307c0       ??A?$tvec4@M$0A@@glm@@QEAAAEAMH@Z 00000001400317c0 f i main.obj
 0001:00030810       ??A?$tvec4@M$0A@@glm@@QEBAAEBMH@Z 0000000140031810 f i main.obj
 0001:00030860       ??A?$vector@DV?$allocator@D@std@@@std@@QEAAAEAD_K@Z 0000000140031860 f i main.obj
 0001:00030890       ??B?$fpos@U_Mbstatet@@@std@@QEBA_JXZ 0000000140031890 f i main.obj
 0001:000308b0       ??Bid@locale@std@@QEAA_KXZ 00000001400318b0 f i main.obj
 0001:00030910       ??Bios_base@std@@QEBA_NXZ  0000000140031910 f i main.obj
 0001:00030950       ??Bsentry@?$basic_istream@DU?$char_traits@D@std@@@std@@QEBA_NXZ 0000000140031950 f i main.obj
 0001:00030950       ??Bsentry@?$basic_ostream@DU?$char_traits@D@std@@@std@@QEBA_NXZ 0000000140031950 f i main.obj
 0001:00030960       ??C?$_Tree_iterator@V?$_Tree_val@U?$_Tree_simple_types@U?$pair@$$CBHI@std@@@std@@@std@@@std@@QEBAPEAU?$pair@$$CBHI@1@XZ 0000000140031960 f i main.obj
 0001:00030960       ??C?$_Tree_iterator@V?$_Tree_val@U?$_Tree_simple_types@U?$pair@$$CBH_N@std@@@std@@@std@@@std@@QEBAPEAU?$pair@$$CBH_N@1@XZ 0000000140031960 f i main.obj
 0001:00030980       ??C?$_Tree_iterator@V?$_Tree_val@U?$_Tree_simple_types@U?$pair@$$CBV?$basic_string@DU?$char_traits@D@std@@V?$allocator@D@2@@std@@V12@@std@@@std@@@std@@@std@@QEBAPEAU?$pair@$$CBV?$basic_string@DU?$char_traits@D@std@@V?$allocator@D@2@@std@@V12@@1@XZ 0000000140031980 f i main.obj
 0001:000309a0       ??D?$_String_iterator@V?$_String_val@U?$_Simple_types@D@std@@@std@@@std@@QEBAAEADXZ 00000001400319a0 f i main.obj
 0001:000309c0       ??D?$_Tree_const_iterator@V?$_Tree_val@U?$_Tree_simple_types@U?$pair@$$CBH_N@std@@@std@@@std@@@std@@QEBAAEBU?$pair@$$CBH_N@1@XZ 00000001400319c0 f i main.obj
 0001:000309c0       ??D?$_Tree_const_iterator@V?$_Tree_val@U?$_Tree_simple_types@U?$pair@$$CBHI@std@@@std@@@std@@@std@@QEBAAEBU?$pair@$$CBHI@1@XZ 00000001400319c0 f i main.obj
 0001:000309e0       ??D?$_Tree_const_iterator@V?$_Tree_val@U?$_Tree_simple_types@U?$pair@$$CBV?$basic_string@DU?$char_traits@D@std@@V?$allocator@D@2@@std@@V12@@std@@@std@@@std@@@std@@QEBAAEBU?$pair@$$CBV?$basic_string@DU?$char_traits@D@std@@V?$allocator@D@2@@std@@V12@@1@XZ 00000001400319e0 f i main.obj
 0001:00030a00       ??D?$_Tree_iterator@V?$_Tree_val@U?$_Tree_simple_types@U?$pair@$$CBH_N@std@@@std@@@std@@@std@@QEBAAEAU?$pair@$$CBH_N@1@XZ 0000000140031a00 f i main.obj
 0001:00030a00       ??D?$_Tree_iterator@V?$_Tree_val@U?$_Tree_simple_types@U?$pair@$$CBHI@std@@@std@@@std@@@std@@QEBAAEAU?$pair@$$CBHI@1@XZ 0000000140031a00 f i main.obj
 0001:00030a20       ??D?$_Tree_iterator@V?$_Tree_val@U?$_Tree_simple_types@U?$pair@$$CBV?$basic_string@DU?$char_traits@D@std@@V?$allocator@D@2@@std@@V12@@std@@@std@@@std@@@std@@QEBAAEAU?$pair@$$CBV?$basic_string@DU?$char_traits@D@std@@V?$allocator@D@2@@std@@V12@@1@XZ 0000000140031a20 f i main.obj
 0001:00030a40       ??D?$unique_ptr@V?$tuple@P6AXPEAUasset_manager@@@ZPEAU1@@std@@U?$default_delete@V?$tuple@P6AXPEAUasset_manager@@@ZPEAU1@@std@@@2@@std@@QEBAAEAV?$tuple@P6AXPEAUasset_manager@@@ZPEAU1@@1@XZ 0000000140031a40 f i main.obj
 0001:00030a60       ??E?$_Tree_const_iterator@V?$_Tree_val@U?$_Tree_simple_types@U?$pair@$$CBHI@std@@@std@@@std@@@std@@QEAA?AV01@H@Z 0000000140031a60 f i main.obj
 0001:00030a60       ??E?$_Tree_const_iterator@V?$_Tree_val@U?$_Tree_simple_types@U?$pair@$$CBV?$basic_string@DU?$char_traits@D@std@@V?$allocator@D@2@@std@@V12@@std@@@std@@@std@@@std@@QEAA?AV01@H@Z 0000000140031a60 f i main.obj
 0001:00030a60       ??E?$_Tree_const_iterator@V?$_Tree_val@U?$_Tree_simple_types@U?$pair@$$CBH_N@std@@@std@@@std@@@std@@QEAA?AV01@H@Z 0000000140031a60 f i main.obj
 0001:00030ab0       ??E?$_Tree_const_iterator@V?$_Tree_val@U?$_Tree_simple_types@U?$pair@$$CBH_N@std@@@std@@@std@@@std@@QEAAAEAV01@XZ 0000000140031ab0 f i main.obj
 0001:00030ab0       ??E?$_Tree_const_iterator@V?$_Tree_val@U?$_Tree_simple_types@U?$pair@$$CBV?$basic_string@DU?$char_traits@D@std@@V?$allocator@D@2@@std@@V12@@std@@@std@@@std@@@std@@QEAAAEAV01@XZ 0000000140031ab0 f i main.obj
 0001:00030ab0       ??E?$_Tree_const_iterator@V?$_Tree_val@U?$_Tree_simple_types@U?$pair@$$CBHI@std@@@std@@@std@@@std@@QEAAAEAV01@XZ 0000000140031ab0 f i main.obj
 0001:00030ad0       ??E?$_Tree_iterator@V?$_Tree_val@U?$_Tree_simple_types@U?$pair@$$CBHI@std@@@std@@@std@@@std@@QEAAAEAV01@XZ 0000000140031ad0 f i main.obj
 0001:00030af0       ??E?$_Tree_unchecked_const_iterator@V?$_Tree_val@U?$_Tree_simple_types@U?$pair@$$CBHI@std@@@std@@@std@@U_Iterator_base0@2@@std@@QEAAAEAV01@XZ 0000000140031af0 f i main.obj
 0001:00030af0       ??E?$_Tree_unchecked_const_iterator@V?$_Tree_val@U?$_Tree_simple_types@U?$pair@$$CBV?$basic_string@DU?$char_traits@D@std@@V?$allocator@D@2@@std@@V12@@std@@@std@@@std@@U_Iterator_base0@2@@std@@QEAAAEAV01@XZ 0000000140031af0 f i main.obj
 0001:00030af0       ??E?$_Tree_unchecked_const_iterator@V?$_Tree_val@U?$_Tree_simple_types@U?$pair@$$CBH_N@std@@@std@@@std@@U_Iterator_base0@2@@std@@QEAAAEAV01@XZ 0000000140031af0 f i main.obj
 0001:00030bb0       ??E?$_Vector_const_iterator@V?$_Vector_val@U?$_Simple_types@D@std@@@std@@@std@@QEAAAEAV01@XZ 0000000140031bb0 f i main.obj
 0001:00030bd0       ??F?$_Tree_const_iterator@V?$_Tree_val@U?$_Tree_simple_types@U?$pair@$$CBH_N@std@@@std@@@std@@@std@@QEAAAEAV01@XZ 0000000140031bd0 f i main.obj
 0001:00030bd0       ??F?$_Tree_const_iterator@V?$_Tree_val@U?$_Tree_simple_types@U?$pair@$$CBV?$basic_string@DU?$char_traits@D@std@@V?$allocator@D@2@@std@@V12@@std@@@std@@@std@@@std@@QEAAAEAV01@XZ 0000000140031bd0 f i main.obj
 0001:00030bd0       ??F?$_Tree_const_iterator@V?$_Tree_val@U?$_Tree_simple_types@U?$pair@$$CBHI@std@@@std@@@std@@@std@@QEAAAEAV01@XZ 0000000140031bd0 f i main.obj
 0001:00030bf0       ??F?$_Tree_iterator@V?$_Tree_val@U?$_Tree_simple_types@U?$pair@$$CBH_N@std@@@std@@@std@@@std@@QEAAAEAV01@XZ 0000000140031bf0 f i main.obj
 0001:00030bf0       ??F?$_Tree_iterator@V?$_Tree_val@U?$_Tree_simple_types@U?$pair@$$CBHI@std@@@std@@@std@@@std@@QEAAAEAV01@XZ 0000000140031bf0 f i main.obj
 0001:00030bf0       ??F?$_Tree_iterator@V?$_Tree_val@U?$_Tree_simple_types@U?$pair@$$CBV?$basic_string@DU?$char_traits@D@std@@V?$allocator@D@2@@std@@V12@@std@@@std@@@std@@@std@@QEAAAEAV01@XZ 0000000140031bf0 f i main.obj
 0001:00030c10       ??F?$_Tree_unchecked_const_iterator@V?$_Tree_val@U?$_Tree_simple_types@U?$pair@$$CBHI@std@@@std@@@std@@U_Iterator_base0@2@@std@@QEAAAEAV01@XZ 0000000140031c10 f i main.obj
 0001:00030c10       ??F?$_Tree_unchecked_const_iterator@V?$_Tree_val@U?$_Tree_simple_types@U?$pair@$$CBH_N@std@@@std@@@std@@U_Iterator_base0@2@@std@@QEAAAEAV01@XZ 0000000140031c10 f i main.obj
 0001:00030c10       ??F?$_Tree_unchecked_const_iterator@V?$_Tree_val@U?$_Tree_simple_types@U?$pair@$$CBV?$basic_string@DU?$char_traits@D@std@@V?$allocator@D@2@@std@@V12@@std@@@std@@@std@@U_Iterator_base0@2@@std@@QEAAAEAV01@XZ 0000000140031c10 f i main.obj
 0001:00030d00       ??G?$_String_const_iterator@V?$_String_val@U?$_Simple_types@D@std@@@std@@@std@@QEBA_JAEBV01@@Z 0000000140031d00 f i main.obj
 0001:00030d40       ??G?$_String_iterator@V?$_String_val@U?$_Simple_types@D@std@@@std@@@std@@QEBA_JAEBV?$_String_const_iterator@V?$_String_val@U?$_Simple_types@D@std@@@std@@@1@@Z 0000000140031d40 f i main.obj
 0001:00030d70       ??R?$default_delete@V?$tuple@P6AXPEAUasset_manager@@@ZPEAU1@@std@@@std@@QEBAXPEAV?$tuple@P6AXPEAUasset_manager@@@ZPEAU1@@1@@Z 0000000140031d70 f i main.obj
 0001:00030da0       ??R?$less@H@std@@QEBA_NAEBH0@Z 0000000140031da0 f i main.obj
 0001:00030de0       ??R?$less@V?$basic_string@DU?$char_traits@D@std@@V?$allocator@D@2@@std@@@std@@QEBA_NAEBV?$basic_string@DU?$char_traits@D@std@@V?$allocator@D@2@@1@0@Z 0000000140031de0 f i main.obj
 0001:00030e10       ??Y?$basic_string@DU?$char_traits@D@std@@V?$allocator@D@2@@std@@QEAAAEAV01@D@Z 0000000140031e10 f i main.obj
 0001:00030e40       ??Y?$duration@_JU?$ratio@$00$0DLJKMKAA@@std@@@chrono@std@@QEAAAEAV012@AEBV012@@Z 0000000140031e40 f i main.obj
 0001:00030e70       ??Z?$duration@_JU?$ratio@$00$0DLJKMKAA@@std@@@chrono@std@@QEAAAEAV012@AEBV012@@Z 0000000140031e70 f i main.obj
 0001:00030ea0       ??_D?$basic_ifstream@DU?$char_traits@D@std@@@std@@QEAAXXZ 0000000140031ea0 f i main.obj
 0001:00030ee0       ??_D?$basic_istream@DU?$char_traits@D@std@@@std@@QEAAXXZ 0000000140031ee0 f i main.obj
 0001:00030f10       ??_E?$basic_ifstream@DU?$char_traits@D@std@@@std@@$4PPPPPPPM@A@EAAPEAXI@Z 0000000140031f10 f i main.obj
 0001:00030f1c       ??_E?$basic_istream@DU?$char_traits@D@std@@@std@@$4PPPPPPPM@A@EAAPEAXI@Z 0000000140031f1c f i main.obj
 0001:00030f30       ??_E?$basic_filebuf@DU?$char_traits@D@std@@@std@@UEAAPEAXI@Z 0000000140031f30 f i main.obj
 0001:00030f30       ??_G?$basic_filebuf@DU?$char_traits@D@std@@@std@@UEAAPEAXI@Z 0000000140031f30 f i main.obj
 0001:00030f70       ??_E?$basic_ifstream@DU?$char_traits@D@std@@@std@@UEAAPEAXI@Z 0000000140031f70 f i main.obj
 0001:00030f70       ??_G?$basic_ifstream@DU?$char_traits@D@std@@@std@@UEAAPEAXI@Z 0000000140031f70 f i main.obj
 0001:00030fd0       ??_E?$basic_ios@DU?$char_traits@D@std@@@std@@UEAAPEAXI@Z 0000000140031fd0 f i main.obj
 0001:00030fd0       ??_G?$basic_ios@DU?$char_traits@D@std@@@std@@UEAAPEAXI@Z 0000000140031fd0 f i main.obj
 0001:00031010       ??_E?$basic_istream@DU?$char_traits@D@std@@@std@@UEAAPEAXI@Z 0000000140032010 f i main.obj
 0001:00031010       ??_G?$basic_istream@DU?$char_traits@D@std@@@std@@UEAAPEAXI@Z 0000000140032010 f i main.obj
 0001:00031060       ??_G?$basic_streambuf@DU?$char_traits@D@std@@@std@@UEAAPEAXI@Z 0000000140032060 f i main.obj
 0001:00031060       ??_E?$basic_streambuf@DU?$char_traits@D@std@@@std@@UEAAPEAXI@Z 0000000140032060 f i main.obj
 0001:000310a0       ??_G?$codecvt@DDU_Mbstatet@@@std@@MEAAPEAXI@Z 00000001400320a0 f i main.obj
 0001:000310a0       ??_E?$codecvt@DDU_Mbstatet@@@std@@MEAAPEAXI@Z 00000001400320a0 f i main.obj
 0001:000310e0       ??_E?$ctype@D@std@@MEAAPEAXI@Z 00000001400320e0 f i main.obj
 0001:000310e0       ??_G?$ctype@D@std@@MEAAPEAXI@Z 00000001400320e0 f i main.obj
 0001:00031120       ??_G?$pair@$$CBV?$basic_string@DU?$char_traits@D@std@@V?$allocator@D@2@@std@@V12@@std@@QEAAPEAXI@Z 0000000140032120 f i main.obj
 0001:00031160       ??_G_Facet_base@std@@UEAAPEAXI@Z 0000000140032160 f i main.obj
 0001:00031160       ??_E_Facet_base@std@@UEAAPEAXI@Z 0000000140032160 f i main.obj
 0001:000311a0       ??_G_Generic_error_category@std@@UEAAPEAXI@Z 00000001400321a0 f i main.obj
 0001:000311a0       ??_E_Generic_error_category@std@@UEAAPEAXI@Z 00000001400321a0 f i main.obj
 0001:000311e0       ??_G_Iostream_error_category@std@@UEAAPEAXI@Z 00000001400321e0 f i main.obj
 0001:000311e0       ??_E_Iostream_error_category@std@@UEAAPEAXI@Z 00000001400321e0 f i main.obj
 0001:00031220       ??_E_System_error@std@@UEAAPEAXI@Z 0000000140032220 f i main.obj
 0001:00031220       ??_G_System_error@std@@UEAAPEAXI@Z 0000000140032220 f i main.obj
 0001:00031260       ??_Gcodecvt_base@std@@UEAAPEAXI@Z 0000000140032260 f i main.obj
 0001:00031260       ??_Ecodecvt_base@std@@UEAAPEAXI@Z 0000000140032260 f i main.obj
 0001:000312a0       ??_Gctype_base@std@@UEAAPEAXI@Z 00000001400322a0 f i main.obj
 0001:000312a0       ??_Ectype_base@std@@UEAAPEAXI@Z 00000001400322a0 f i main.obj
 0001:000312e0       ??_Eerror_category@std@@UEAAPEAXI@Z 00000001400322e0 f i main.obj
 0001:000312e0       ??_Gerror_category@std@@UEAAPEAXI@Z 00000001400322e0 f i main.obj
 0001:00031320       ??_Gexception@std@@UEAAPEAXI@Z 0000000140032320 f i main.obj
 0001:00031320       ??_Eexception@std@@UEAAPEAXI@Z 0000000140032320 f i main.obj
 0001:00031360       ??_Efacet@locale@std@@MEAAPEAXI@Z 0000000140032360 f i main.obj
 0001:00031360       ??_Gfacet@locale@std@@MEAAPEAXI@Z 0000000140032360 f i main.obj
 0001:000313a0       ??_Gfailure@ios_base@std@@UEAAPEAXI@Z 00000001400323a0 f i main.obj
 0001:000313a0       ??_Efailure@ios_base@std@@UEAAPEAXI@Z 00000001400323a0 f i main.obj
 0001:000313e0       ??_Gios_base@std@@UEAAPEAXI@Z 00000001400323e0 f i main.obj
 0001:000313e0       ??_Eios_base@std@@UEAAPEAXI@Z 00000001400323e0 f i main.obj
 0001:00031420       ??_Glocale@std@@QEAAPEAXI@Z 0000000140032420 f i main.obj
 0001:00031460       ??_Gruntime_error@std@@UEAAPEAXI@Z 0000000140032460 f i main.obj
 0001:00031460       ??_Ebad_cast@std@@UEAAPEAXI@Z 0000000140032460 f i main.obj
 0001:00031460       ??_Gbad_cast@std@@UEAAPEAXI@Z 0000000140032460 f i main.obj
 0001:00031460       ??_Eruntime_error@std@@UEAAPEAXI@Z 0000000140032460 f i main.obj
 0001:000314a0       ??_Gsystem_error@std@@UEAAPEAXI@Z 00000001400324a0 f i main.obj
 0001:000314a0       ??_Esystem_error@std@@UEAAPEAXI@Z 00000001400324a0 f i main.obj
 0001:000314e0       ??_H@YAXPEAX_K1P6APEAX0@Z@Z 00000001400324e0 f i main.obj
 0001:00031540       ??__Ks@chrono_literals@literals@std@@YA?AV?$duration@NU?$ratio@$00$00@std@@@chrono@3@O@Z 0000000140032540 f i main.obj
 0001:00031570       ?_Allocate@std@@YAPEAX_K0_N@Z 0000000140032570 f i main.obj
 0001:00031670       ?_Assign_rv@?$_Tree@V?$_Tmap_traits@V?$basic_string@DU?$char_traits@D@std@@V?$allocator@D@2@@std@@V12@U?$less@V?$basic_string@DU?$char_traits@D@std@@V?$allocator@D@2@@std@@@2@V?$allocator@U?$pair@$$CBV?$basic_string@DU?$char_traits@D@std@@V?$allocator@D@2@@std@@V12@@std@@@2@$0A@@std@@@std@@QEAAX$$QEAV12@U?$integral_constant@_N$00@2@@Z 0000000140032670 f i main.obj
 0001:00031720       ?_Assign_rv@?$basic_string@DU?$char_traits@D@std@@V?$allocator@D@2@@std@@QEAAX$$QEAV12@@Z 0000000140032720 f i main.obj
 0001:00031840       ?_Buy@?$vector@DV?$allocator@D@std@@@std@@IEAA_N_K@Z 0000000140032840 f i main.obj
 0001:00031940       ?_Buyheadnode@?$_Tree_comp_alloc@V?$_Tmap_traits@HIU?$less@H@std@@V?$allocator@U?$pair@$$CBHI@std@@@2@$0A@@std@@@std@@QEAAPEAU?$_Tree_node@U?$pair@$$CBHI@std@@PEAX@2@XZ 0000000140032940 f i main.obj
 0001:00031a50       ?_Buyheadnode@?$_Tree_comp_alloc@V?$_Tmap_traits@H_NU?$less@H@std@@V?$allocator@U?$pair@$$CBH_N@std@@@2@$0A@@std@@@std@@QEAAPEAU?$_Tree_node@U?$pair@$$CBH_N@std@@PEAX@2@XZ 0000000140032a50 f i main.obj
 0001:00031b60       ?_Buyheadnode@?$_Tree_comp_alloc@V?$_Tmap_traits@V?$basic_string@DU?$char_traits@D@std@@V?$allocator@D@2@@std@@V12@U?$less@V?$basic_string@DU?$char_traits@D@std@@V?$allocator@D@2@@std@@@2@V?$allocator@U?$pair@$$CBV?$basic_string@DU?$char_traits@D@std@@V?$allocator@D@2@@std@@V12@@std@@@2@$0A@@std@@@std@@QEAAPEAU?$_Tree_node@U?$pair@$$CBV?$basic_string@DU?$char_traits@D@std@@V?$allocator@D@2@@std@@V12@@std@@PEAX@2@XZ 0000000140032b60 f i main.obj
 0001:00031c70       ?_Buynode0@?$_Tree_comp_alloc@V?$_Tmap_traits@HIU?$less@H@std@@V?$allocator@U?$pair@$$CBHI@std@@@2@$0A@@std@@@std@@QEAAPEAU?$_Tree_node@U?$pair@$$CBHI@std@@PEAX@2@XZ 0000000140032c70 f i main.obj
 0001:00031dc0       ?_Buynode0@?$_Tree_comp_alloc@V?$_Tmap_traits@H_NU?$less@H@std@@V?$allocator@U?$pair@$$CBH_N@std@@@2@$0A@@std@@@std@@QEAAPEAU?$_Tree_node@U?$pair@$$CBH_N@std@@PEAX@2@XZ 0000000140032dc0 f i main.obj
 0001:00031f10       ?_Buynode0@?$_Tree_comp_alloc@V?$_Tmap_traits@V?$basic_string@DU?$char_traits@D@std@@V?$allocator@D@2@@std@@V12@U?$less@V?$basic_string@DU?$char_traits@D@std@@V?$allocator@D@2@@std@@@2@V?$allocator@U?$pair@$$CBV?$basic_string@DU?$char_traits@D@std@@V?$allocator@D@2@@std@@V12@@std@@@2@$0A@@std@@@std@@QEAAPEAU?$_Tree_node@U?$pair@$$CBV?$basic_string@DU?$char_traits@D@std@@V?$allocator@D@2@@std@@V12@@std@@PEAX@2@XZ 0000000140032f10 f i main.obj
 0001:00032060       ?_Bx@?$_String_alloc@U?$_String_base_types@DV?$allocator@D@std@@@std@@@std@@QEAAAEAT_Bxty@?$_String_val@U?$_Simple_types@D@std@@@2@XZ 0000000140033060 f i main.obj
 0001:00032060       ?_Myfirst@?$_Vector_alloc@U?$_Vec_base_types@DV?$allocator@D@std@@@std@@@std@@QEAAAEAPEADXZ 0000000140033060 f i main.obj
 0001:00032080       ?_Call_func@_Pad@std@@CAIPEAX@Z 0000000140033080 f i main.obj
 0001:000320b0       ?_Chassign@?$basic_string@DU?$char_traits@D@std@@V?$allocator@D@2@@std@@QEAAX_K0D@Z 00000001400330b0 f i main.obj
 0001:00032120       ?_Check_C_return@std@@YAHH@Z 0000000140033120 f i main.obj
 0001:00032150       ?_Check_offset@?$basic_string@DU?$char_traits@D@std@@V?$allocator@D@2@@std@@QEBAX_K@Z 0000000140033150 f i main.obj
 0001:00032190       ?_Clamp_suffix_size@?$basic_string@DU?$char_traits@D@std@@V?$allocator@D@2@@std@@QEBA_K_K0@Z 0000000140033190 f i main.obj
 0001:000321e0       ?_Cnd_initX@std@@YAHPEAPEAU_Cnd_internal_imp_t@@@Z 00000001400331e0 f i main.obj
 0001:00032200       ?_Cnd_signalX@std@@YAHPEAU_Cnd_internal_imp_t@@@Z 0000000140033200 f i main.obj
 0001:00032220       ?_Cnd_waitX@std@@YAHPEAU_Cnd_internal_imp_t@@PEAU_Mtx_internal_imp_t@@@Z 0000000140033220 f i main.obj
 0001:00032250       ?_Color@?$_Tree_comp_alloc@V?$_Tmap_traits@V?$basic_string@DU?$char_traits@D@std@@V?$allocator@D@2@@std@@V12@U?$less@V?$basic_string@DU?$char_traits@D@std@@V?$allocator@D@2@@std@@@2@V?$allocator@U?$pair@$$CBV?$basic_string@DU?$char_traits@D@std@@V?$allocator@D@2@@std@@V12@@std@@@2@$0A@@std@@@std@@SAAEADPEAU?$_Tree_node@U?$pair@$$CBV?$basic_string@DU?$char_traits@D@std@@V?$allocator@D@2@@std@@V12@@std@@PEAX@2@@Z 0000000140033250 f i main.obj
 0001:00032250       ?_Color@?$_Tree_comp_alloc@V?$_Tmap_traits@H_NU?$less@H@std@@V?$allocator@U?$pair@$$CBH_N@std@@@2@$0A@@std@@@std@@SAAEADPEAU?$_Tree_node@U?$pair@$$CBH_N@std@@PEAX@2@@Z 0000000140033250 f i main.obj
 0001:00032250       ?_Color@?$_Tree_comp_alloc@V?$_Tmap_traits@HIU?$less@H@std@@V?$allocator@U?$pair@$$CBHI@std@@@2@$0A@@std@@@std@@SAAEADPEAU?$_Tree_node@U?$pair@$$CBHI@std@@PEAX@2@@Z 0000000140033250 f i main.obj
 0001:00032270       ?_Color@?$_Tree_val@U?$_Tree_simple_types@U?$pair@$$CBHI@std@@@std@@@std@@SAAEADPEAU?$_Tree_node@U?$pair@$$CBHI@std@@PEAX@2@@Z 0000000140033270 f i main.obj
 0001:00032270       ?_Color@?$_Tree_val@U?$_Tree_simple_types@U?$pair@$$CBV?$basic_string@DU?$char_traits@D@std@@V?$allocator@D@2@@std@@V12@@std@@@std@@@std@@SAAEADPEAU?$_Tree_node@U?$pair@$$CBV?$basic_string@DU?$char_traits@D@std@@V?$allocator@D@2@@std@@V12@@std@@PEAX@2@@Z 0000000140033270 f i main.obj
 0001:00032270       ?_Color@?$_Tree_val@U?$_Tree_simple_types@U?$pair@$$CBH_N@std@@@std@@@std@@SAAEADPEAU?$_Tree_node@U?$pair@$$CBH_N@std@@PEAX@2@@Z 0000000140033270 f i main.obj
 0001:00032280       ?_Compare@?$_Tree@V?$_Tmap_traits@H_NU?$less@H@std@@V?$allocator@U?$pair@$$CBH_N@std@@@2@$0A@@std@@@std@@IEBA_NAEBH0@Z 0000000140033280 f i main.obj
 0001:00032280       ?_Compare@?$_Tree@V?$_Tmap_traits@HIU?$less@H@std@@V?$allocator@U?$pair@$$CBHI@std@@@2@$0A@@std@@@std@@IEBA_NAEBH0@Z 0000000140033280 f i main.obj
 0001:000322c0       ?_Compare@?$_Tree@V?$_Tmap_traits@V?$basic_string@DU?$char_traits@D@std@@V?$allocator@D@2@@std@@V12@U?$less@V?$basic_string@DU?$char_traits@D@std@@V?$allocator@D@2@@std@@@2@V?$allocator@U?$pair@$$CBV?$basic_string@DU?$char_traits@D@std@@V?$allocator@D@2@@std@@V12@@std@@@2@$0A@@std@@@std@@IEBA_NAEBV?$basic_string@DU?$char_traits@D@std@@V?$allocator@D@2@@2@0@Z 00000001400332c0 f i main.obj
 0001:00032300       ?_Construct@?$_Tree_comp_alloc@V?$_Tmap_traits@HIU?$less@H@std@@V?$allocator@U?$pair@$$CBHI@std@@@2@$0A@@std@@@std@@QEAAXXZ 0000000140033300 f i main.obj
 0001:00032330       ?_Construct@?$_Tree_comp_alloc@V?$_Tmap_traits@H_NU?$less@H@std@@V?$allocator@U?$pair@$$CBH_N@std@@@2@$0A@@std@@@std@@QEAAXXZ 0000000140033330 f i main.obj
 0001:00032360       ?_Construct@?$_Tree_comp_alloc@V?$_Tmap_traits@V?$basic_string@DU?$char_traits@D@std@@V?$allocator@D@2@@std@@V12@U?$less@V?$basic_string@DU?$char_traits@D@std@@V?$allocator@D@2@@std@@@2@V?$allocator@U?$pair@$$CBV?$basic_string@DU?$char_traits@D@std@@V?$allocator@D@2@@std@@V12@@std@@@2@$0A@@std@@@std@@QEAAXXZ 0000000140033360 f i main.obj
 0001:00032390       ?_Copy@?$basic_string@DU?$char_traits@D@std@@V?$allocator@D@2@@std@@QEAAX_K0@Z 0000000140033390 f i main.obj
 0001:000325c0       ?_Copy_alloc@?$_String_alloc@U?$_String_base_types@DV?$allocator@D@std@@@std@@@std@@QEAAXAEBU?$_Wrap_alloc@V?$allocator@D@std@@@2@@Z 00000001400335c0 f i main.obj
 0001:000325f0       ?_Copy_alloc@?$_Tree_comp_alloc@V?$_Tmap_traits@HIU?$less@H@std@@V?$allocator@U?$pair@$$CBHI@std@@@2@$0A@@std@@@std@@QEAAXAEBU?$_Wrap_alloc@V?$allocator@U?$_Tree_node@U?$pair@$$CBHI@std@@PEAX@std@@@std@@@2@@Z 00000001400335f0 f i main.obj
 0001:000325f0       ?_Copy_alloc@?$_Tree_comp_alloc@V?$_Tmap_traits@H_NU?$less@H@std@@V?$allocator@U?$pair@$$CBH_N@std@@@2@$0A@@std@@@std@@QEAAXAEBU?$_Wrap_alloc@V?$allocator@U?$_Tree_node@U?$pair@$$CBH_N@std@@PEAX@std@@@std@@@2@@Z 00000001400335f0 f i main.obj
 0001:00032620       ?_Deallocate@std@@YAXPEAX_K1@Z 0000000140033620 f i main.obj
 0001:00032710       ?_Decref@facet@locale@std@@UEAAPEAV_Facet_base@3@XZ 0000000140033710 f i main.obj
 0001:00032740       ?_Destroy@?$vector@DV?$allocator@D@std@@@std@@IEAAXPEAD0@Z 0000000140033740 f i main.obj
 0001:00032780       ?_Destroy_if_not_nil@?$_Tree@V?$_Tmap_traits@H_NU?$less@H@std@@V?$allocator@U?$pair@$$CBH_N@std@@@2@$0A@@std@@@std@@IEAAXPEAU?$_Tree_node@U?$pair@$$CBH_N@std@@PEAX@2@@Z 0000000140033780 f i main.obj
 0001:00032780       ?_Destroy_if_not_nil@?$_Tree@V?$_Tmap_traits@HIU?$less@H@std@@V?$allocator@U?$pair@$$CBHI@std@@@2@$0A@@std@@@std@@IEAAXPEAU?$_Tree_node@U?$pair@$$CBHI@std@@PEAX@2@@Z 0000000140033780 f i main.obj
 0001:000327f0       ?_Destroy_if_not_nil@?$_Tree@V?$_Tmap_traits@V?$basic_string@DU?$char_traits@D@std@@V?$allocator@D@2@@std@@V12@U?$less@V?$basic_string@DU?$char_traits@D@std@@V?$allocator@D@2@@std@@@2@V?$allocator@U?$pair@$$CBV?$basic_string@DU?$char_traits@D@std@@V?$allocator@D@2@@std@@V12@@std@@@2@$0A@@std@@@std@@IEAAXPEAU?$_Tree_node@U?$pair@$$CBV?$basic_string@DU?$char_traits@D@std@@V?$allocator@D@2@@std@@V12@@std@@PEAX@2@@Z 00000001400337f0 f i main.obj
 0001:00032860       ?_Endwrite@?$basic_filebuf@DU?$char_traits@D@std@@@std@@IEAA_NXZ 0000000140033860 f i main.obj
 0001:00032b20       ?_Eos@?$basic_string@DU?$char_traits@D@std@@V?$allocator@D@2@@std@@QEAAX_K@Z 0000000140033b20 f i main.obj
 0001:00032b80       ?_Erase@?$_Tree@V?$_Tmap_traits@H_NU?$less@H@std@@V?$allocator@U?$pair@$$CBH_N@std@@@2@$0A@@std@@@std@@IEAAXPEAU?$_Tree_node@U?$pair@$$CBH_N@std@@PEAX@2@@Z 0000000140033b80 f i main.obj
 0001:00032b80       ?_Erase@?$_Tree@V?$_Tmap_traits@HIU?$less@H@std@@V?$allocator@U?$pair@$$CBHI@std@@@2@$0A@@std@@@std@@IEAAXPEAU?$_Tree_node@U?$pair@$$CBHI@std@@PEAX@2@@Z 0000000140033b80 f i main.obj
 0001:00032c40       ?_Erase@?$_Tree@V?$_Tmap_traits@V?$basic_string@DU?$char_traits@D@std@@V?$allocator@D@2@@std@@V12@U?$less@V?$basic_string@DU?$char_traits@D@std@@V?$allocator@D@2@@std@@@2@V?$allocator@U?$pair@$$CBV?$basic_string@DU?$char_traits@D@std@@V?$allocator@D@2@@std@@V12@@std@@@2@$0A@@std@@@std@@IEAAXPEAU?$_Tree_node@U?$pair@$$CBV?$basic_string@DU?$char_traits@D@std@@V?$allocator@D@2@@std@@V12@@std@@PEAX@2@@Z 0000000140033c40 f i main.obj
 0001:00032d00       ?_Freeheadnode@?$_Tree_comp_alloc@V?$_Tmap_traits@V?$basic_string@DU?$char_traits@D@std@@V?$allocator@D@2@@std@@V12@U?$less@V?$basic_string@DU?$char_traits@D@std@@V?$allocator@D@2@@std@@@2@V?$allocator@U?$pair@$$CBV?$basic_string@DU?$char_traits@D@std@@V?$allocator@D@2@@std@@V12@@std@@@2@$0A@@std@@@std@@QEAAXPEAU?$_Tree_node@U?$pair@$$CBV?$basic_string@DU?$char_traits@D@std@@V?$allocator@D@2@@std@@V12@@std@@PEAX@2@@Z 0000000140033d00 f i main.obj
 0001:00032d00       ?_Freenode0@?$_Tree_comp_alloc@V?$_Tmap_traits@V?$basic_string@DU?$char_traits@D@std@@V?$allocator@D@2@@std@@V12@U?$less@V?$basic_string@DU?$char_traits@D@std@@V?$allocator@D@2@@std@@@2@V?$allocator@U?$pair@$$CBV?$basic_string@DU?$char_traits@D@std@@V?$allocator@D@2@@std@@V12@@std@@@2@$0A@@std@@@std@@QEAAXPEAU?$_Tree_node@U?$pair@$$CBV?$basic_string@DU?$char_traits@D@std@@V?$allocator@D@2@@std@@V12@@std@@PEAX@2@@Z 0000000140033d00 f i main.obj
 0001:00032dd0       ?_Freeheadnode@?$_Tree_comp_alloc@V?$_Tmap_traits@HIU?$less@H@std@@V?$allocator@U?$pair@$$CBHI@std@@@2@$0A@@std@@@std@@QEAAXPEAU?$_Tree_node@U?$pair@$$CBHI@std@@PEAX@2@@Z 0000000140033dd0 f i main.obj
 0001:00032dd0       ?_Freenode0@?$_Tree_comp_alloc@V?$_Tmap_traits@H_NU?$less@H@std@@V?$allocator@U?$pair@$$CBH_N@std@@@2@$0A@@std@@@std@@QEAAXPEAU?$_Tree_node@U?$pair@$$CBH_N@std@@PEAX@2@@Z 0000000140033dd0 f i main.obj
 0001:00032dd0       ?_Freenode0@?$_Tree_comp_alloc@V?$_Tmap_traits@HIU?$less@H@std@@V?$allocator@U?$pair@$$CBHI@std@@@2@$0A@@std@@@std@@QEAAXPEAU?$_Tree_node@U?$pair@$$CBHI@std@@PEAX@2@@Z 0000000140033dd0 f i main.obj
 0001:00032dd0       ?_Freeheadnode@?$_Tree_comp_alloc@V?$_Tmap_traits@H_NU?$less@H@std@@V?$allocator@U?$pair@$$CBH_N@std@@@2@$0A@@std@@@std@@QEAAXPEAU?$_Tree_node@U?$pair@$$CBH_N@std@@PEAX@2@@Z 0000000140033dd0 f i main.obj
 0001:00032ea0       ??$forward@U?$default_delete@V?$tuple@P6AXPEAUasset_manager@@@ZPEAU1@@std@@@std@@@std@@YA$$QEAU?$default_delete@V?$tuple@P6AXPEAUasset_manager@@@ZPEAU1@@std@@@0@AEAU10@@Z 0000000140033ea0 f i main.obj
 0001:00032ea0       ??$forward@W4Key_Mode@@@std@@YA$$QEAW4Key_Mode@@AEAW41@@Z 0000000140033ea0 f i main.obj
 0001:00032ea0       ??$forward@AEBUpiecewise_construct_t@std@@@std@@YAAEBUpiecewise_construct_t@0@AEBU10@@Z 0000000140033ea0 f i main.obj
 0001:00032ea0       ?_Get_second@?$_Compressed_pair@U?$_Wrap_alloc@V?$allocator@U?$_Tree_node@U?$pair@$$CBV?$basic_string@DU?$char_traits@D@std@@V?$allocator@D@2@@std@@V12@@std@@PEAX@std@@@std@@@std@@V?$_Tree_val@U?$_Tree_simple_types@U?$pair@$$CBV?$basic_string@DU?$char_traits@D@std@@V?$allocator@D@2@@std@@V12@@std@@@std@@@2@$00@std@@QEAAAEAV?$_Tree_val@U?$_Tree_simple_types@U?$pair@$$CBV?$basic_string@DU?$char_traits@D@std@@V?$allocator@D@2@@std@@V12@@std@@@std@@@2@XZ 0000000140033ea0 f i main.obj
 0001:00032ea0       ??$forward@V?$basic_string@DU?$char_traits@D@std@@V?$allocator@D@2@@std@@@std@@YA$$QEAV?$basic_string@DU?$char_traits@D@std@@V?$allocator@D@2@@0@AEAV10@@Z 0000000140033ea0 f i main.obj
 0001:00032ea0       ??$move@AEAD@std@@YA$$QEADAEAD@Z 0000000140033ea0 f i main.obj
 0001:00032ea0       ??$forward@AEAU?$pair@$$CBHI@std@@@std@@YAAEAU?$pair@$$CBHI@0@AEAU10@@Z 0000000140033ea0 f i main.obj
 0001:00032ea0       ??$forward@U_One_then_variadic_args_t@std@@@std@@YA$$QEAU_One_then_variadic_args_t@0@AEAU10@@Z 0000000140033ea0 f i main.obj
 0001:00032ea0       ??$_Unfancy@D@std@@YAPEADPEAD@Z 0000000140033ea0 f i main.obj
 0001:00032ea0       ?_Get_second@?$_Compressed_pair@U?$less@H@std@@V?$_Compressed_pair@U?$_Wrap_alloc@V?$allocator@U?$_Tree_node@U?$pair@$$CBHI@std@@PEAX@std@@@std@@@std@@V?$_Tree_val@U?$_Tree_simple_types@U?$pair@$$CBHI@std@@@std@@@2@$00@2@$00@std@@QEAAAEAV?$_Compressed_pair@U?$_Wrap_alloc@V?$allocator@U?$_Tree_node@U?$pair@$$CBHI@std@@PEAX@std@@@std@@@std@@V?$_Tree_val@U?$_Tree_simple_types@U?$pair@$$CBHI@std@@@std@@@2@$00@2@XZ 0000000140033ea0 f i main.obj
 0001:00032ea0       ?_Get_first@?$_Compressed_pair@U?$_Wrap_alloc@V?$allocator@D@std@@@std@@V?$_String_val@U?$_Simple_types@D@std@@@2@$00@std@@QEAAAEAU?$_Wrap_alloc@V?$allocator@D@std@@@2@XZ 0000000140033ea0 f i main.obj
 0001:00032ea0       ?_Get_first@?$_Compressed_pair@U?$_Wrap_alloc@V?$allocator@D@std@@@std@@V?$_String_val@U?$_Simple_types@D@std@@@2@$00@std@@QEBAAEBU?$_Wrap_alloc@V?$allocator@D@std@@@2@XZ 0000000140033ea0 f i main.obj
 0001:00032ea0       ??$forward@AEAPEAV?$tuple@P6AXPEAUasset_manager@@@ZPEAU1@@std@@@std@@YAAEAPEAV?$tuple@P6AXPEAUasset_manager@@@ZPEAU1@@0@AEAPEAV10@@Z 0000000140033ea0 f i main.obj
 0001:00032ea0       ??$move@AEAV?$tuple@AEBH@std@@@std@@YA$$QEAV?$tuple@AEBH@0@AEAV10@@Z 0000000140033ea0 f i main.obj
 0001:00032ea0       ?_Get_second@?$_Compressed_pair@U?$_Wrap_alloc@V?$allocator@U?$_Tree_node@U?$pair@$$CBV?$basic_string@DU?$char_traits@D@std@@V?$allocator@D@2@@std@@V12@@std@@PEAX@std@@@std@@@std@@V?$_Tree_val@U?$_Tree_simple_types@U?$pair@$$CBV?$basic_string@DU?$char_traits@D@std@@V?$allocator@D@2@@std@@V12@@std@@@std@@@2@$00@std@@QEBAAEBV?$_Tree_val@U?$_Tree_simple_types@U?$pair@$$CBV?$basic_string@DU?$char_traits@D@std@@V?$allocator@D@2@@std@@V12@@std@@@std@@@2@XZ 0000000140033ea0 f i main.obj
 0001:00032ea0       ??$forward@U?$_Wrap_alloc@V?$allocator@U?$_Tree_node@U?$pair@$$CBV?$basic_string@DU?$char_traits@D@std@@V?$allocator@D@2@@std@@V12@@std@@PEAX@std@@@std@@@std@@@std@@YA$$QEAU?$_Wrap_alloc@V?$allocator@U?$_Tree_node@U?$pair@$$CBV?$basic_string@DU?$char_traits@D@std@@V?$allocator@D@2@@std@@V12@@std@@PEAX@std@@@std@@@0@AEAU10@@Z 0000000140033ea0 f i main.obj
 0001:00032ea0       ??$forward@V?$tuple@AEBH@std@@@std@@YA$$QEAV?$tuple@AEBH@0@AEAV10@@Z 0000000140033ea0 f i main.obj
 0001:00032ea0       ??$forward@V?$tuple@$$QEAH@std@@@std@@YA$$QEAV?$tuple@$$QEAH@0@AEAV10@@Z 0000000140033ea0 f i main.obj
 0001:00032ea0       ??$addressof@D@std@@YAPEADAEAD@Z 0000000140033ea0 f i main.obj
 0001:00032ea0       ?_Get_second@?$_Compressed_pair@U?$less@H@std@@V?$_Compressed_pair@U?$_Wrap_alloc@V?$allocator@U?$_Tree_node@U?$pair@$$CBHI@std@@PEAX@std@@@std@@@std@@V?$_Tree_val@U?$_Tree_simple_types@U?$pair@$$CBHI@std@@@std@@@2@$00@2@$00@std@@QEBAAEBV?$_Compressed_pair@U?$_Wrap_alloc@V?$allocator@U?$_Tree_node@U?$pair@$$CBHI@std@@PEAX@std@@@std@@@std@@V?$_Tree_val@U?$_Tree_simple_types@U?$pair@$$CBHI@std@@@std@@@2@$00@2@XZ 0000000140033ea0 f i main.obj
 0001:00032ea0       ?_Get_first@?$_Compressed_pair@U?$_Wrap_alloc@V?$allocator@U?$_Tree_node@U?$pair@$$CBHI@std@@PEAX@std@@@std@@@std@@V?$_Tree_val@U?$_Tree_simple_types@U?$pair@$$CBHI@std@@@std@@@2@$00@std@@QEAAAEAU?$_Wrap_alloc@V?$allocator@U?$_Tree_node@U?$pair@$$CBHI@std@@PEAX@std@@@std@@@2@XZ 0000000140033ea0 f i main.obj
 0001:00032ea0       ??$_Kfn@$$CBHI@?$_Tmap_traits@HIU?$less@H@std@@V?$allocator@U?$pair@$$CBHI@std@@@2@$0A@@std@@SAAEBHAEBU?$pair@$$CBHI@1@@Z 0000000140033ea0 f i main.obj
 0001:00032ea0       ??$addressof@U?$pair@$$CBV?$basic_string@DU?$char_traits@D@std@@V?$allocator@D@2@@std@@V12@@std@@@std@@YAPEAU?$pair@$$CBV?$basic_string@DU?$char_traits@D@std@@V?$allocator@D@2@@std@@V12@@0@AEAU10@@Z 0000000140033ea0 f i main.obj
 0001:00032ea0       ??$move@AEAU?$_Wrap_alloc@V?$allocator@U?$_Tree_node@U?$pair@$$CBV?$basic_string@DU?$char_traits@D@std@@V?$allocator@D@2@@std@@V12@@std@@PEAX@std@@@std@@@std@@@std@@YA$$QEAU?$_Wrap_alloc@V?$allocator@U?$_Tree_node@U?$pair@$$CBV?$basic_string@DU?$char_traits@D@std@@V?$allocator@D@2@@std@@V12@@std@@PEAX@std@@@std@@@0@AEAU10@@Z 0000000140033ea0 f i main.obj
 0001:00032ea0       ??$addressof@U?$pair@$$CBHI@std@@@std@@YAPEAU?$pair@$$CBHI@0@AEAU10@@Z 0000000140033ea0 f i main.obj
 0001:00032ea0       ?_Get_first@?$_Compressed_pair@U?$_Wrap_alloc@V?$allocator@U?$_Tree_node@U?$pair@$$CBV?$basic_string@DU?$char_traits@D@std@@V?$allocator@D@2@@std@@V12@@std@@PEAX@std@@@std@@@std@@V?$_Tree_val@U?$_Tree_simple_types@U?$pair@$$CBV?$basic_string@DU?$char_traits@D@std@@V?$allocator@D@2@@std@@V12@@std@@@std@@@2@$00@std@@QEBAAEBU?$_Wrap_alloc@V?$allocator@U?$_Tree_node@U?$pair@$$CBV?$basic_string@DU?$char_traits@D@std@@V?$allocator@D@2@@std@@V12@@std@@PEAX@std@@@std@@@2@XZ 0000000140033ea0 f i main.obj
 0001:00032ea0       ??$forward@AEBU?$pair@$$CBHI@std@@@std@@YAAEBU?$pair@$$CBHI@0@AEBU10@@Z 0000000140033ea0 f i main.obj
 0001:00032ea0       ??$addressof@PEAU?$_Tree_node@U?$pair@$$CBHI@std@@PEAX@std@@@std@@YAPEAPEAU?$_Tree_node@U?$pair@$$CBHI@std@@PEAX@0@AEAPEAU10@@Z 0000000140033ea0 f i main.obj
 0001:00032ea0       ??$forward@V?$_Tree@V?$_Tmap_traits@V?$basic_string@DU?$char_traits@D@std@@V?$allocator@D@2@@std@@V12@U?$less@V?$basic_string@DU?$char_traits@D@std@@V?$allocator@D@2@@std@@@2@V?$allocator@U?$pair@$$CBV?$basic_string@DU?$char_traits@D@std@@V?$allocator@D@2@@std@@V12@@std@@@2@$0A@@std@@@std@@@std@@YA$$QEAV?$_Tree@V?$_Tmap_traits@V?$basic_string@DU?$char_traits@D@std@@V?$allocator@D@2@@std@@V12@U?$less@V?$basic_string@DU?$char_traits@D@std@@V?$allocator@D@2@@std@@@2@V?$allocator@U?$pair@$$CBV?$basic_string@DU?$char_traits@D@std@@V?$allocator@D@2@@std@@V12@@std@@@2@$0A@@std@@@0@AEAV10@@Z 0000000140033ea0 f i main.obj
 0001:00032ea0       ??$forward@AEAPEAU?$_Tree_node@U?$pair@$$CBHI@std@@PEAX@std@@@std@@YAAEAPEAU?$_Tree_node@U?$pair@$$CBHI@std@@PEAX@0@AEAPEAU10@@Z 0000000140033ea0 f i main.obj
 0001:00032ea0       ?_Get_second@?$_Compressed_pair@U?$_Wrap_alloc@V?$allocator@D@std@@@std@@V?$_String_val@U?$_Simple_types@D@std@@@2@$00@std@@QEBAAEBV?$_String_val@U?$_Simple_types@D@std@@@2@XZ 0000000140033ea0 f i main.obj
 0001:00032ea0       ??$forward@_N@std@@YA$$QEA_NAEA_N@Z 0000000140033ea0 f i main.obj
 0001:00032ea0       ??$forward@V?$_Tree_iterator@V?$_Tree_val@U?$_Tree_simple_types@U?$pair@$$CBH_N@std@@@std@@@std@@@std@@@std@@YA$$QEAV?$_Tree_iterator@V?$_Tree_val@U?$_Tree_simple_types@U?$pair@$$CBH_N@std@@@std@@@std@@@0@AEAV10@@Z 0000000140033ea0 f i main.obj
 0001:00032ea0       ?_Get_second@?$_Compressed_pair@U?$_Wrap_alloc@V?$allocator@D@std@@@std@@V?$_String_val@U?$_Simple_types@D@std@@@2@$00@std@@QEAAAEAV?$_String_val@U?$_Simple_types@D@std@@@2@XZ 0000000140033ea0 f i main.obj
 0001:00032ea0       ?_Get_second@?$_Compressed_pair@U?$_Wrap_alloc@V?$allocator@U?$_Tree_node@U?$pair@$$CBH_N@std@@PEAX@std@@@std@@@std@@V?$_Tree_val@U?$_Tree_simple_types@U?$pair@$$CBH_N@std@@@std@@@2@$00@std@@QEAAAEAV?$_Tree_val@U?$_Tree_simple_types@U?$pair@$$CBH_N@std@@@std@@@2@XZ 0000000140033ea0 f i main.obj
 0001:00032ea0       ?_Get_first@?$_Compressed_pair@U?$less@V?$basic_string@DU?$char_traits@D@std@@V?$allocator@D@2@@std@@@std@@V?$_Compressed_pair@U?$_Wrap_alloc@V?$allocator@U?$_Tree_node@U?$pair@$$CBV?$basic_string@DU?$char_traits@D@std@@V?$allocator@D@2@@std@@V12@@std@@PEAX@std@@@std@@@std@@V?$_Tree_val@U?$_Tree_simple_types@U?$pair@$$CBV?$basic_string@DU?$char_traits@D@std@@V?$allocator@D@2@@std@@V12@@std@@@std@@@2@$00@2@$00@std@@QEBAAEBU?$less@V?$basic_string@DU?$char_traits@D@std@@V?$allocator@D@2@@std@@@2@XZ 0000000140033ea0 f i main.obj
 0001:00032ea0       ?_Get_second@?$_Compressed_pair@U?$default_delete@V?$tuple@P6AXPEAUasset_manager@@@ZPEAU1@@std@@@std@@PEAV?$tuple@P6AXPEAUasset_manager@@@ZPEAU1@@2@$00@std@@QEAAAEAPEAV?$tuple@P6AXPEAUasset_manager@@@ZPEAU1@@2@XZ 0000000140033ea0 f i main.obj
 0001:00032ea0       ??0?$tuple@$$V@std@@QEAA@XZ 0000000140033ea0 f i main.obj
 0001:00032ea0       ??0?$allocator@U?$_Tree_node@U?$pair@$$CBH_N@std@@PEAX@std@@@std@@QEAA@XZ 0000000140033ea0 f i main.obj
 0001:00032ea0       ??$forward@V?$tuple@$$V@std@@@std@@YA$$QEAV?$tuple@$$V@0@AEAV10@@Z 0000000140033ea0 f i main.obj
 0001:00032ea0       ??$_Kfn@$$CBV?$basic_string@DU?$char_traits@D@std@@V?$allocator@D@2@@std@@V12@@?$_Tmap_traits@V?$basic_string@DU?$char_traits@D@std@@V?$allocator@D@2@@std@@V12@U?$less@V?$basic_string@DU?$char_traits@D@std@@V?$allocator@D@2@@std@@@2@V?$allocator@U?$pair@$$CBV?$basic_string@DU?$char_traits@D@std@@V?$allocator@D@2@@std@@V12@@std@@@2@$0A@@std@@SAAEBV?$basic_string@DU?$char_traits@D@std@@V?$allocator@D@2@@1@AEBU?$pair@$$CBV?$basic_string@DU?$char_traits@D@std@@V?$allocator@D@2@@std@@V12@@1@@Z 0000000140033ea0 f i main.obj
 0001:00032ea0       ??$forward@AEAPEAD@std@@YAAEAPEADAEAPEAD@Z 0000000140033ea0 f i main.obj
 0001:00032ea0       ??$forward@V?$_Tree_iterator@V?$_Tree_val@U?$_Tree_simple_types@U?$pair@$$CBV?$basic_string@DU?$char_traits@D@std@@V?$allocator@D@2@@std@@V12@@std@@@std@@@std@@@std@@@std@@YA$$QEAV?$_Tree_iterator@V?$_Tree_val@U?$_Tree_simple_types@U?$pair@$$CBV?$basic_string@DU?$char_traits@D@std@@V?$allocator@D@2@@std@@V12@@std@@@std@@@std@@@0@AEAV10@@Z 0000000140033ea0 f i main.obj
 0001:00032ea0       ??$get@$00P6AXPEAUasset_manager@@@ZPEAU1@@std@@YAAEAPEAUasset_manager@@AEAV?$tuple@P6AXPEAUasset_manager@@@ZPEAU1@@0@@Z 0000000140033ea0 f i main.obj
 0001:00032ea0       ??$move@AEAV?$basic_string@DU?$char_traits@D@std@@V?$allocator@D@2@@std@@@std@@YA$$QEAV?$basic_string@DU?$char_traits@D@std@@V?$allocator@D@2@@0@AEAV10@@Z 0000000140033ea0 f i main.obj
 0001:00032ea0       ?_Left@?$_Tree_val@U?$_Tree_simple_types@U?$pair@$$CBV?$basic_string@DU?$char_traits@D@std@@V?$allocator@D@2@@std@@V12@@std@@@std@@@std@@SAAEAPEAU?$_Tree_node@U?$pair@$$CBV?$basic_string@DU?$char_traits@D@std@@V?$allocator@D@2@@std@@V12@@std@@PEAX@2@PEAU32@@Z 0000000140033ea0 f i main.obj
 0001:00032ea0       ?_Get_first@?$_Compressed_pair@U?$_Wrap_alloc@V?$allocator@D@std@@@std@@V?$_Vector_val@U?$_Simple_types@D@std@@@2@$00@std@@QEAAAEAU?$_Wrap_alloc@V?$allocator@D@std@@@2@XZ 0000000140033ea0 f i main.obj
 0001:00032ea0       ??$forward@AEBV?$allocator@D@std@@@std@@YAAEBV?$allocator@D@0@AEBV10@@Z 0000000140033ea0 f i main.obj
 0001:00032ea0       ??$forward@V?$allocator@D@std@@@std@@YA$$QEAV?$allocator@D@0@AEAV10@@Z 0000000140033ea0 f i main.obj
 0001:00032ea0       ?_Get_first@?$_Compressed_pair@U?$_Wrap_alloc@V?$allocator@U?$_Tree_node@U?$pair@$$CBHI@std@@PEAX@std@@@std@@@std@@V?$_Tree_val@U?$_Tree_simple_types@U?$pair@$$CBHI@std@@@std@@@2@$00@std@@QEBAAEBU?$_Wrap_alloc@V?$allocator@U?$_Tree_node@U?$pair@$$CBHI@std@@PEAX@std@@@std@@@2@XZ 0000000140033ea0 f i main.obj
 0001:00032ea0       ??$forward@AEAPEAU?$_Tree_node@U?$pair@$$CBV?$basic_string@DU?$char_traits@D@std@@V?$allocator@D@2@@std@@V12@@std@@PEAX@std@@@std@@YAAEAPEAU?$_Tree_node@U?$pair@$$CBV?$basic_string@DU?$char_traits@D@std@@V?$allocator@D@2@@std@@V12@@std@@PEAX@0@AEAPEAU10@@Z 0000000140033ea0 f i main.obj
 0001:00032ea0       ??$move@AEAP6AXPEAUasset_manager@@@Z@std@@YA$$QEAP6AXPEAUasset_manager@@@ZAEAP6AX0@Z@Z 0000000140033ea0 f i main.obj
 0001:00032ea0       ??$addressof@PEAU?$_Tree_node@U?$pair@$$CBV?$basic_string@DU?$char_traits@D@std@@V?$allocator@D@2@@std@@V12@@std@@PEAX@std@@@std@@YAPEAPEAU?$_Tree_node@U?$pair@$$CBV?$basic_string@DU?$char_traits@D@std@@V?$allocator@D@2@@std@@V12@@std@@PEAX@0@AEAPEAU10@@Z 0000000140033ea0 f i main.obj
 0001:00032ea0       ??$forward@AEAV?$_Tree_iterator@V?$_Tree_val@U?$_Tree_simple_types@U?$pair@$$CBH_N@std@@@std@@@std@@@std@@@std@@YAAEAV?$_Tree_iterator@V?$_Tree_val@U?$_Tree_simple_types@U?$pair@$$CBH_N@std@@@std@@@std@@@0@AEAV10@@Z 0000000140033ea0 f i main.obj
 0001:00032ea0       ??$forward@V?$tuple@AEBV?$basic_string@DU?$char_traits@D@std@@V?$allocator@D@2@@std@@@std@@@std@@YA$$QEAV?$tuple@AEBV?$basic_string@DU?$char_traits@D@std@@V?$allocator@D@2@@std@@@0@AEAV10@@Z 0000000140033ea0 f i main.obj
 0001:00032ea0       ??0?$allocator@U?$_Tree_node@U?$pair@$$CBV?$basic_string@DU?$char_traits@D@std@@V?$allocator@D@2@@std@@V12@@std@@PEAX@std@@@std@@QEAA@XZ 0000000140033ea0 f i main.obj
 0001:00032ea0       ?_Get_first@?$_Compressed_pair@U?$_Wrap_alloc@V?$allocator@U?$_Tree_node@U?$pair@$$CBV?$basic_string@DU?$char_traits@D@std@@V?$allocator@D@2@@std@@V12@@std@@PEAX@std@@@std@@@std@@V?$_Tree_val@U?$_Tree_simple_types@U?$pair@$$CBV?$basic_string@DU?$char_traits@D@std@@V?$allocator@D@2@@std@@V12@@std@@@std@@@2@$00@std@@QEAAAEAU?$_Wrap_alloc@V?$allocator@U?$_Tree_node@U?$pair@$$CBV?$basic_string@DU?$char_traits@D@std@@V?$allocator@D@2@@std@@V12@@std@@PEAX@std@@@std@@@2@XZ 0000000140033ea0 f i main.obj
 0001:00032ea0       ??$move@AEAPEAUasset_manager@@@std@@YA$$QEAPEAUasset_manager@@AEAPEAU1@@Z 0000000140033ea0 f i main.obj
 0001:00032ea0       ??0?$allocator@D@std@@QEAA@XZ 0000000140033ea0 f i main.obj
 0001:00032ea0       ??$move@AEAPEAU?$_Tree_node@U?$pair@$$CBV?$basic_string@DU?$char_traits@D@std@@V?$allocator@D@2@@std@@V12@@std@@PEAX@std@@@std@@YA$$QEAPEAU?$_Tree_node@U?$pair@$$CBV?$basic_string@DU?$char_traits@D@std@@V?$allocator@D@2@@std@@V12@@std@@PEAX@0@AEAPEAU10@@Z 0000000140033ea0 f i main.obj
 0001:00032ea0       ??$_Kfn@$$CBH_N@?$_Tmap_traits@H_NU?$less@H@std@@V?$allocator@U?$pair@$$CBH_N@std@@@2@$0A@@std@@SAAEBHAEBU?$pair@$$CBH_N@1@@Z 0000000140033ea0 f i main.obj
 0001:00032ea0       ??$forward@AEBH@std@@YAAEBHAEBH@Z 0000000140033ea0 f i main.obj
 0001:00032ea0       ??$move@AEAV?$basic_istream@DU?$char_traits@D@std@@@std@@@std@@YA$$QEAV?$basic_istream@DU?$char_traits@D@std@@@0@AEAV10@@Z 0000000140033ea0 f i main.obj
 0001:00032ea0       ?_Get_second@?$_Compressed_pair@U?$_Wrap_alloc@V?$allocator@U?$_Tree_node@U?$pair@$$CBHI@std@@PEAX@std@@@std@@@std@@V?$_Tree_val@U?$_Tree_simple_types@U?$pair@$$CBHI@std@@@std@@@2@$00@std@@QEBAAEBV?$_Tree_val@U?$_Tree_simple_types@U?$pair@$$CBHI@std@@@std@@@2@XZ 0000000140033ea0 f i main.obj
 0001:00032ea0       ?_Get_second@?$_Compressed_pair@U?$less@H@std@@V?$_Compressed_pair@U?$_Wrap_alloc@V?$allocator@U?$_Tree_node@U?$pair@$$CBH_N@std@@PEAX@std@@@std@@@std@@V?$_Tree_val@U?$_Tree_simple_types@U?$pair@$$CBH_N@std@@@std@@@2@$00@2@$00@std@@QEAAAEAV?$_Compressed_pair@U?$_Wrap_alloc@V?$allocator@U?$_Tree_node@U?$pair@$$CBH_N@std@@PEAX@std@@@std@@@std@@V?$_Tree_val@U?$_Tree_simple_types@U?$pair@$$CBH_N@std@@@std@@@2@$00@2@XZ 0000000140033ea0 f i main.obj
 0001:00032ea0       ??$forward@V?$tuple@$$QEAV?$basic_string@DU?$char_traits@D@std@@V?$allocator@D@2@@std@@@std@@@std@@YA$$QEAV?$tuple@$$QEAV?$basic_string@DU?$char_traits@D@std@@V?$allocator@D@2@@std@@@0@AEAV10@@Z 0000000140033ea0 f i main.obj
 0001:00032ea0       ?_Get_first@?$_Compressed_pair@U?$less@H@std@@V?$_Compressed_pair@U?$_Wrap_alloc@V?$allocator@U?$_Tree_node@U?$pair@$$CBH_N@std@@PEAX@std@@@std@@@std@@V?$_Tree_val@U?$_Tree_simple_types@U?$pair@$$CBH_N@std@@@std@@@2@$00@2@$00@std@@QEAAAEAU?$less@H@2@XZ 0000000140033ea0 f i main.obj
 0001:00032ea0       ??$forward@AEBU?$less@H@std@@@std@@YAAEBU?$less@H@0@AEBU10@@Z 0000000140033ea0 f i main.obj
 0001:00032ea0       ??$addressof@U?$pair@$$CBH_N@std@@@std@@YAPEAU?$pair@$$CBH_N@0@AEAU10@@Z 0000000140033ea0 f i main.obj
 0001:00032ea0       ??$forward@PEAUasset_manager@@@std@@YA$$QEAPEAUasset_manager@@AEAPEAU1@@Z 0000000140033ea0 f i main.obj
 0001:00032ea0       ?_Get_second@?$_Compressed_pair@U?$default_delete@V?$tuple@P6AXPEAUasset_manager@@@ZPEAU1@@std@@@std@@PEAV?$tuple@P6AXPEAUasset_manager@@@ZPEAU1@@2@$00@std@@QEBAAEBQEAV?$tuple@P6AXPEAUasset_manager@@@ZPEAU1@@2@XZ 0000000140033ea0 f i main.obj
 0001:00032ea0       ?_Get_first@?$_Compressed_pair@U?$default_delete@V?$tuple@P6AXPEAUasset_manager@@@ZPEAU1@@std@@@std@@PEAV?$tuple@P6AXPEAUasset_manager@@@ZPEAU1@@2@$00@std@@QEAAAEAU?$default_delete@V?$tuple@P6AXPEAUasset_manager@@@ZPEAU1@@std@@@2@XZ 0000000140033ea0 f i main.obj
 0001:00032ea0       ??$forward@AEAU?$pair@$$CBV?$basic_string@DU?$char_traits@D@std@@V?$allocator@D@2@@std@@V12@@std@@@std@@YAAEAU?$pair@$$CBV?$basic_string@DU?$char_traits@D@std@@V?$allocator@D@2@@std@@V12@@0@AEAU10@@Z 0000000140033ea0 f i main.obj
 0001:00032ea0       ??$move@AEAV?$tuple@$$QEAV?$basic_string@DU?$char_traits@D@std@@V?$allocator@D@2@@std@@@std@@@std@@YA$$QEAV?$tuple@$$QEAV?$basic_string@DU?$char_traits@D@std@@V?$allocator@D@2@@std@@@0@AEAV10@@Z 0000000140033ea0 f i main.obj
 0001:00032ea0       ?_Get_second@?$_Compressed_pair@U?$_Wrap_alloc@V?$allocator@U?$_Tree_node@U?$pair@$$CBHI@std@@PEAX@std@@@std@@@std@@V?$_Tree_val@U?$_Tree_simple_types@U?$pair@$$CBHI@std@@@std@@@2@$00@std@@QEAAAEAV?$_Tree_val@U?$_Tree_simple_types@U?$pair@$$CBHI@std@@@std@@@2@XZ 0000000140033ea0 f i main.obj
 0001:00032ea0       ??$move@AEAV?$map@V?$basic_string@DU?$char_traits@D@std@@V?$allocator@D@2@@std@@V12@U?$less@V?$basic_string@DU?$char_traits@D@std@@V?$allocator@D@2@@std@@@2@V?$allocator@U?$pair@$$CBV?$basic_string@DU?$char_traits@D@std@@V?$allocator@D@2@@std@@V12@@std@@@2@@std@@@std@@YA$$QEAV?$map@V?$basic_string@DU?$char_traits@D@std@@V?$allocator@D@2@@std@@V12@U?$less@V?$basic_string@DU?$char_traits@D@std@@V?$allocator@D@2@@std@@@2@V?$allocator@U?$pair@$$CBV?$basic_string@DU?$char_traits@D@std@@V?$allocator@D@2@@std@@V12@@std@@@2@@0@AEAV10@@Z 0000000140033ea0 f i main.obj
 0001:00032ea0       ?_Get_first@?$_Compressed_pair@U?$less@V?$basic_string@DU?$char_traits@D@std@@V?$allocator@D@2@@std@@@std@@V?$_Compressed_pair@U?$_Wrap_alloc@V?$allocator@U?$_Tree_node@U?$pair@$$CBV?$basic_string@DU?$char_traits@D@std@@V?$allocator@D@2@@std@@V12@@std@@PEAX@std@@@std@@@std@@V?$_Tree_val@U?$_Tree_simple_types@U?$pair@$$CBV?$basic_string@DU?$char_traits@D@std@@V?$allocator@D@2@@std@@V12@@std@@@std@@@2@$00@2@$00@std@@QEAAAEAU?$less@V?$basic_string@DU?$char_traits@D@std@@V?$allocator@D@2@@std@@@2@XZ 0000000140033ea0 f i main.obj
 0001:00032ea0       ??$move@AEAH@std@@YA$$QEAHAEAH@Z 0000000140033ea0 f i main.obj
 0001:00032ea0       ??$forward@P6AXPEAUasset_manager@@@Z@std@@YA$$QEAP6AXPEAUasset_manager@@@ZAEAP6AX0@Z@Z 0000000140033ea0 f i main.obj
 0001:00032ea0       ?_Get_first@?$_Compressed_pair@U?$_Wrap_alloc@V?$allocator@D@std@@@std@@V?$_Vector_val@U?$_Simple_types@D@std@@@2@$00@std@@QEBAAEBU?$_Wrap_alloc@V?$allocator@D@std@@@2@XZ 0000000140033ea0 f i main.obj
 0001:00032ea0       ??$move@AEAV?$tuple@$$QEAH@std@@@std@@YA$$QEAV?$tuple@$$QEAH@0@AEAV10@@Z 0000000140033ea0 f i main.obj
 0001:00032ea0       ??$forward@$$QEAH@std@@YA$$QEAHAEAH@Z 0000000140033ea0 f i main.obj
 0001:00032ea0       ?_Get_second@?$_Compressed_pair@U?$less@V?$basic_string@DU?$char_traits@D@std@@V?$allocator@D@2@@std@@@std@@V?$_Compressed_pair@U?$_Wrap_alloc@V?$allocator@U?$_Tree_node@U?$pair@$$CBV?$basic_string@DU?$char_traits@D@std@@V?$allocator@D@2@@std@@V12@@std@@PEAX@std@@@std@@@std@@V?$_Tree_val@U?$_Tree_simple_types@U?$pair@$$CBV?$basic_string@DU?$char_traits@D@std@@V?$allocator@D@2@@std@@V12@@std@@@std@@@2@$00@2@$00@std@@QEBAAEBV?$_Compressed_pair@U?$_Wrap_alloc@V?$allocator@U?$_Tree_node@U?$pair@$$CBV?$basic_string@DU?$char_traits@D@std@@V?$allocator@D@2@@std@@V12@@std@@PEAX@std@@@std@@@std@@V?$_Tree_val@U?$_Tree_simple_types@U?$pair@$$CBV?$basic_string@DU?$char_traits@D@std@@V?$allocator@D@2@@std@@V12@@std@@@std@@@2@$00@2@XZ 0000000140033ea0 f i main.obj
 0001:00032ea0       ?_Get_first@?$_Compressed_pair@U?$less@H@std@@V?$_Compressed_pair@U?$_Wrap_alloc@V?$allocator@U?$_Tree_node@U?$pair@$$CBHI@std@@PEAX@std@@@std@@@std@@V?$_Tree_val@U?$_Tree_simple_types@U?$pair@$$CBHI@std@@@std@@@2@$00@2@$00@std@@QEBAAEBU?$less@H@2@XZ 0000000140033ea0 f i main.obj
 0001:00032ea0       ??$move@AEAV?$tuple@AEBV?$basic_string@DU?$char_traits@D@std@@V?$allocator@D@2@@std@@@std@@@std@@YA$$QEAV?$tuple@AEBV?$basic_string@DU?$char_traits@D@std@@V?$allocator@D@2@@std@@@0@AEAV10@@Z 0000000140033ea0 f i main.obj
 0001:00032ea0       ??$forward@H@std@@YA$$QEAHAEAH@Z 0000000140033ea0 f i main.obj
 0001:00032ea0       ??$forward@U_Zero_then_variadic_args_t@std@@@std@@YA$$QEAU_Zero_then_variadic_args_t@0@AEAU10@@Z 0000000140033ea0 f i main.obj
 0001:00032ea0       ??$forward@AEAV?$_Tree_iterator@V?$_Tree_val@U?$_Tree_simple_types@U?$pair@$$CBHI@std@@@std@@@std@@@std@@@std@@YAAEAV?$_Tree_iterator@V?$_Tree_val@U?$_Tree_simple_types@U?$pair@$$CBHI@std@@@std@@@std@@@0@AEAV10@@Z 0000000140033ea0 f i main.obj
 0001:00032ea0       ??$forward@AEAPEAU?$_Tree_node@U?$pair@$$CBH_N@std@@PEAX@std@@@std@@YAAEAPEAU?$_Tree_node@U?$pair@$$CBH_N@std@@PEAX@0@AEAPEAU10@@Z 0000000140033ea0 f i main.obj
 0001:00032ea0       ?_Get_second@?$_Compressed_pair@U?$less@V?$basic_string@DU?$char_traits@D@std@@V?$allocator@D@2@@std@@@std@@V?$_Compressed_pair@U?$_Wrap_alloc@V?$allocator@U?$_Tree_node@U?$pair@$$CBV?$basic_string@DU?$char_traits@D@std@@V?$allocator@D@2@@std@@V12@@std@@PEAX@std@@@std@@@std@@V?$_Tree_val@U?$_Tree_simple_types@U?$pair@$$CBV?$basic_string@DU?$char_traits@D@std@@V?$allocator@D@2@@std@@V12@@std@@@std@@@2@$00@2@$00@std@@QEAAAEAV?$_Compressed_pair@U?$_Wrap_alloc@V?$allocator@U?$_Tree_node@U?$pair@$$CBV?$basic_string@DU?$char_traits@D@std@@V?$allocator@D@2@@std@@V12@@std@@PEAX@std@@@std@@@std@@V?$_Tree_val@U?$_Tree_simple_types@U?$pair@$$CBV?$basic_string@DU?$char_traits@D@std@@V?$allocator@D@2@@std@@V12@@std@@@std@@@2@$00@2@XZ 0000000140033ea0 f i main.obj
 0001:00032ea0       ??$move@AEAU?$_Wrap_alloc@V?$allocator@D@std@@@std@@@std@@YA$$QEAU?$_Wrap_alloc@V?$allocator@D@std@@@0@AEAU10@@Z 0000000140033ea0 f i main.obj
 0001:00032ea0       ??$forward@U?$_Wrap_alloc@V?$allocator@D@std@@@std@@@std@@YA$$QEAU?$_Wrap_alloc@V?$allocator@D@std@@@0@AEAU10@@Z 0000000140033ea0 f i main.obj
 0001:00032ea0       ??$forward@AEBV?$basic_string@DU?$char_traits@D@std@@V?$allocator@D@2@@std@@@std@@YAAEBV?$basic_string@DU?$char_traits@D@std@@V?$allocator@D@2@@0@AEBV10@@Z 0000000140033ea0 f i main.obj
 0001:00032ea0       ??$forward@AEBU?$pair@$$CBH_N@std@@@std@@YAAEBU?$pair@$$CBH_N@0@AEBU10@@Z 0000000140033ea0 f i main.obj
 0001:00032ea0       ??$addressof@PEAU?$_Tree_node@U?$pair@$$CBH_N@std@@PEAX@std@@@std@@YAPEAPEAU?$_Tree_node@U?$pair@$$CBH_N@std@@PEAX@0@AEAPEAU10@@Z 0000000140033ea0 f i main.obj
 0001:00032ea0       ??$forward@$$QEAV?$basic_string@DU?$char_traits@D@std@@V?$allocator@D@2@@std@@@std@@YA$$QEAV?$basic_string@DU?$char_traits@D@std@@V?$allocator@D@2@@0@AEAV10@@Z 0000000140033ea0 f i main.obj
 0001:00032ea0       ??$forward@AEBU?$less@V?$basic_string@DU?$char_traits@D@std@@V?$allocator@D@2@@std@@@std@@@std@@YAAEBU?$less@V?$basic_string@DU?$char_traits@D@std@@V?$allocator@D@2@@std@@@0@AEBU10@@Z 0000000140033ea0 f i main.obj
 0001:00032ea0       ??$forward@V?$_Tree_iterator@V?$_Tree_val@U?$_Tree_simple_types@U?$pair@$$CBHI@std@@@std@@@std@@@std@@@std@@YA$$QEAV?$_Tree_iterator@V?$_Tree_val@U?$_Tree_simple_types@U?$pair@$$CBHI@std@@@std@@@std@@@0@AEAV10@@Z 0000000140033ea0 f i main.obj
 0001:00032ea0       ?_Get_first@?$_Compressed_pair@U?$less@H@std@@V?$_Compressed_pair@U?$_Wrap_alloc@V?$allocator@U?$_Tree_node@U?$pair@$$CBH_N@std@@PEAX@std@@@std@@@std@@V?$_Tree_val@U?$_Tree_simple_types@U?$pair@$$CBH_N@std@@@std@@@2@$00@2@$00@std@@QEBAAEBU?$less@H@2@XZ 0000000140033ea0 f i main.obj
 0001:00032ea0       ?_Get_second@?$_Compressed_pair@U?$less@H@std@@V?$_Compressed_pair@U?$_Wrap_alloc@V?$allocator@U?$_Tree_node@U?$pair@$$CBH_N@std@@PEAX@std@@@std@@@std@@V?$_Tree_val@U?$_Tree_simple_types@U?$pair@$$CBH_N@std@@@std@@@2@$00@2@$00@std@@QEBAAEBV?$_Compressed_pair@U?$_Wrap_alloc@V?$allocator@U?$_Tree_node@U?$pair@$$CBH_N@std@@PEAX@std@@@std@@@std@@V?$_Tree_val@U?$_Tree_simple_types@U?$pair@$$CBH_N@std@@@std@@@2@$00@2@XZ 0000000140033ea0 f i main.obj
 0001:00032ea0       ??$forward@AEAU?$pair@$$CBH_N@std@@@std@@YAAEAU?$pair@$$CBH_N@0@AEAU10@@Z 0000000140033ea0 f i main.obj
 0001:00032ea0       ??$addressof@PEAD@std@@YAPEAPEADAEAPEAD@Z 0000000140033ea0 f i main.obj
 0001:00032ea0       ?_Get_first@?$_Compressed_pair@U?$less@H@std@@V?$_Compressed_pair@U?$_Wrap_alloc@V?$allocator@U?$_Tree_node@U?$pair@$$CBHI@std@@PEAX@std@@@std@@@std@@V?$_Tree_val@U?$_Tree_simple_types@U?$pair@$$CBHI@std@@@std@@@2@$00@2@$00@std@@QEAAAEAU?$less@H@2@XZ 0000000140033ea0 f i main.obj
 0001:00032ea0       ??$forward@V?$unique_ptr@V?$tuple@P6AXPEAUasset_manager@@@ZPEAU1@@std@@U?$default_delete@V?$tuple@P6AXPEAUasset_manager@@@ZPEAU1@@std@@@2@@std@@@std@@YA$$QEAV?$unique_ptr@V?$tuple@P6AXPEAUasset_manager@@@ZPEAU1@@std@@U?$default_delete@V?$tuple@P6AXPEAUasset_manager@@@ZPEAU1@@std@@@2@@0@AEAV10@@Z 0000000140033ea0 f i main.obj
 0001:00032ea0       ?_Get_second@?$_Compressed_pair@U?$_Wrap_alloc@V?$allocator@U?$_Tree_node@U?$pair@$$CBH_N@std@@PEAX@std@@@std@@@std@@V?$_Tree_val@U?$_Tree_simple_types@U?$pair@$$CBH_N@std@@@std@@@2@$00@std@@QEBAAEBV?$_Tree_val@U?$_Tree_simple_types@U?$pair@$$CBH_N@std@@@std@@@2@XZ 0000000140033ea0 f i main.obj
 0001:00032ea0       ?_Left@?$_Tree_val@U?$_Tree_simple_types@U?$pair@$$CBH_N@std@@@std@@@std@@SAAEAPEAU?$_Tree_node@U?$pair@$$CBH_N@std@@PEAX@2@PEAU32@@Z 0000000140033ea0 f i main.obj
 0001:00032ea0       ?_Get_first@?$_Compressed_pair@U?$_Wrap_alloc@V?$allocator@U?$_Tree_node@U?$pair@$$CBH_N@std@@PEAX@std@@@std@@@std@@V?$_Tree_val@U?$_Tree_simple_types@U?$pair@$$CBH_N@std@@@std@@@2@$00@std@@QEBAAEBU?$_Wrap_alloc@V?$allocator@U?$_Tree_node@U?$pair@$$CBH_N@std@@PEAX@std@@@std@@@2@XZ 0000000140033ea0 f i main.obj
 0001:00032ea0       ?_Left@?$_Tree_val@U?$_Tree_simple_types@U?$pair@$$CBHI@std@@@std@@@std@@SAAEAPEAU?$_Tree_node@U?$pair@$$CBHI@std@@PEAX@2@PEAU32@@Z 0000000140033ea0 f i main.obj
 0001:00032ea0       ??$move@AEAU?$less@V?$basic_string@DU?$char_traits@D@std@@V?$allocator@D@2@@std@@@std@@@std@@YA$$QEAU?$less@V?$basic_string@DU?$char_traits@D@std@@V?$allocator@D@2@@std@@@0@AEAU10@@Z 0000000140033ea0 f i main.obj
 0001:00032ea0       ??0_Bxty@?$_String_val@U?$_Simple_types@D@std@@@std@@QEAA@XZ 0000000140033ea0 f i main.obj
 0001:00032ea0       ?_Get_first@?$_Compressed_pair@U?$_Wrap_alloc@V?$allocator@U?$_Tree_node@U?$pair@$$CBH_N@std@@PEAX@std@@@std@@@std@@V?$_Tree_val@U?$_Tree_simple_types@U?$pair@$$CBH_N@std@@@std@@@2@$00@std@@QEAAAEAU?$_Wrap_alloc@V?$allocator@U?$_Tree_node@U?$pair@$$CBH_N@std@@PEAX@std@@@std@@@2@XZ 0000000140033ea0 f i main.obj
 0001:00032ea0       ??$forward@AEAV?$_Tree_iterator@V?$_Tree_val@U?$_Tree_simple_types@U?$pair@$$CBV?$basic_string@DU?$char_traits@D@std@@V?$allocator@D@2@@std@@V12@@std@@@std@@@std@@@std@@@std@@YAAEAV?$_Tree_iterator@V?$_Tree_val@U?$_Tree_simple_types@U?$pair@$$CBV?$basic_string@DU?$char_traits@D@std@@V?$allocator@D@2@@std@@V12@@std@@@std@@@std@@@0@AEAV10@@Z 0000000140033ea0 f i main.obj
 0001:00032ea0       ?_Get_second@?$_Compressed_pair@U?$_Wrap_alloc@V?$allocator@D@std@@@std@@V?$_Vector_val@U?$_Simple_types@D@std@@@2@$00@std@@QEAAAEAV?$_Vector_val@U?$_Simple_types@D@std@@@2@XZ 0000000140033ea0 f i main.obj
 0001:00032ea0       ??$move@AEA_K@std@@YA$$QEA_KAEA_K@Z 0000000140033ea0 f i main.obj
 0001:00032ea0       ??0?$allocator@U?$_Tree_node@U?$pair@$$CBHI@std@@PEAX@std@@@std@@QEAA@XZ 0000000140033ea0 f i main.obj
 0001:00032eb0       ?_Getal@?$_Tree_comp_alloc@V?$_Tmap_traits@H_NU?$less@H@std@@V?$allocator@U?$pair@$$CBH_N@std@@@2@$0A@@std@@@std@@QEBAAEBU?$_Wrap_alloc@V?$allocator@U?$_Tree_node@U?$pair@$$CBH_N@std@@PEAX@std@@@std@@@2@XZ 0000000140033eb0 f i main.obj
 0001:00032eb0       ?_Get_data@?$_Tree_comp_alloc@V?$_Tmap_traits@V?$basic_string@DU?$char_traits@D@std@@V?$allocator@D@2@@std@@V12@U?$less@V?$basic_string@DU?$char_traits@D@std@@V?$allocator@D@2@@std@@@2@V?$allocator@U?$pair@$$CBV?$basic_string@DU?$char_traits@D@std@@V?$allocator@D@2@@std@@V12@@std@@@2@$0A@@std@@@std@@QEAAAEAV?$_Tree_val@U?$_Tree_simple_types@U?$pair@$$CBV?$basic_string@DU?$char_traits@D@std@@V?$allocator@D@2@@std@@V12@@std@@@std@@@2@XZ 0000000140033eb0 f i main.obj
 0001:00032eb0       ?_Getal@?$_Tree_comp_alloc@V?$_Tmap_traits@H_NU?$less@H@std@@V?$allocator@U?$pair@$$CBH_N@std@@@2@$0A@@std@@@std@@QEAAAEAU?$_Wrap_alloc@V?$allocator@U?$_Tree_node@U?$pair@$$CBH_N@std@@PEAX@std@@@std@@@2@XZ 0000000140033eb0 f i main.obj
 0001:00032eb0       ?_Getal@?$_Tree_comp_alloc@V?$_Tmap_traits@V?$basic_string@DU?$char_traits@D@std@@V?$allocator@D@2@@std@@V12@U?$less@V?$basic_string@DU?$char_traits@D@std@@V?$allocator@D@2@@std@@@2@V?$allocator@U?$pair@$$CBV?$basic_string@DU?$char_traits@D@std@@V?$allocator@D@2@@std@@V12@@std@@@2@$0A@@std@@@std@@QEBAAEBU?$_Wrap_alloc@V?$allocator@U?$_Tree_node@U?$pair@$$CBV?$basic_string@DU?$char_traits@D@std@@V?$allocator@D@2@@std@@V12@@std@@PEAX@std@@@std@@@2@XZ 0000000140033eb0 f i main.obj
 0001:00032eb0       ?_Get_data@?$_Tree_comp_alloc@V?$_Tmap_traits@H_NU?$less@H@std@@V?$allocator@U?$pair@$$CBH_N@std@@@2@$0A@@std@@@std@@QEAAAEAV?$_Tree_val@U?$_Tree_simple_types@U?$pair@$$CBH_N@std@@@std@@@2@XZ 0000000140033eb0 f i main.obj
 0001:00032eb0       ?_Get_data@?$_Tree_comp_alloc@V?$_Tmap_traits@HIU?$less@H@std@@V?$allocator@U?$pair@$$CBHI@std@@@2@$0A@@std@@@std@@QEAAAEAV?$_Tree_val@U?$_Tree_simple_types@U?$pair@$$CBHI@std@@@std@@@2@XZ 0000000140033eb0 f i main.obj
 0001:00032eb0       ?_Getal@?$_Tree_comp_alloc@V?$_Tmap_traits@HIU?$less@H@std@@V?$allocator@U?$pair@$$CBHI@std@@@2@$0A@@std@@@std@@QEBAAEBU?$_Wrap_alloc@V?$allocator@U?$_Tree_node@U?$pair@$$CBHI@std@@PEAX@std@@@std@@@2@XZ 0000000140033eb0 f i main.obj
 0001:00032eb0       ?_Getal@?$_Tree_comp_alloc@V?$_Tmap_traits@V?$basic_string@DU?$char_traits@D@std@@V?$allocator@D@2@@std@@V12@U?$less@V?$basic_string@DU?$char_traits@D@std@@V?$allocator@D@2@@std@@@2@V?$allocator@U?$pair@$$CBV?$basic_string@DU?$char_traits@D@std@@V?$allocator@D@2@@std@@V12@@std@@@2@$0A@@std@@@std@@QEAAAEAU?$_Wrap_alloc@V?$allocator@U?$_Tree_node@U?$pair@$$CBV?$basic_string@DU?$char_traits@D@std@@V?$allocator@D@2@@std@@V12@@std@@PEAX@std@@@std@@@2@XZ 0000000140033eb0 f i main.obj
 0001:00032eb0       ?_Get_data@?$_Tree_comp_alloc@V?$_Tmap_traits@V?$basic_string@DU?$char_traits@D@std@@V?$allocator@D@2@@std@@V12@U?$less@V?$basic_string@DU?$char_traits@D@std@@V?$allocator@D@2@@std@@@2@V?$allocator@U?$pair@$$CBV?$basic_string@DU?$char_traits@D@std@@V?$allocator@D@2@@std@@V12@@std@@@2@$0A@@std@@@std@@QEBAAEBV?$_Tree_val@U?$_Tree_simple_types@U?$pair@$$CBV?$basic_string@DU?$char_traits@D@std@@V?$allocator@D@2@@std@@V12@@std@@@std@@@2@XZ 0000000140033eb0 f i main.obj
 0001:00032eb0       ?_Getal@?$_Tree_comp_alloc@V?$_Tmap_traits@HIU?$less@H@std@@V?$allocator@U?$pair@$$CBHI@std@@@2@$0A@@std@@@std@@QEAAAEAU?$_Wrap_alloc@V?$allocator@U?$_Tree_node@U?$pair@$$CBHI@std@@PEAX@std@@@std@@@2@XZ 0000000140033eb0 f i main.obj
 0001:00032eb0       ?_Get_data@?$_Tree_comp_alloc@V?$_Tmap_traits@HIU?$less@H@std@@V?$allocator@U?$pair@$$CBHI@std@@@2@$0A@@std@@@std@@QEBAAEBV?$_Tree_val@U?$_Tree_simple_types@U?$pair@$$CBHI@std@@@std@@@2@XZ 0000000140033eb0 f i main.obj
 0001:00032eb0       ?_Get_data@?$_Tree_comp_alloc@V?$_Tmap_traits@H_NU?$less@H@std@@V?$allocator@U?$pair@$$CBH_N@std@@@2@$0A@@std@@@std@@QEBAAEBV?$_Tree_val@U?$_Tree_simple_types@U?$pair@$$CBH_N@std@@@std@@@2@XZ 0000000140033eb0 f i main.obj
 0001:00032ee0       ?_Getcat@?$codecvt@DDU_Mbstatet@@@std@@SA_KPEAPEBVfacet@locale@2@PEBV42@@Z 0000000140033ee0 f i main.obj
 0001:00032fe0       ?_Getcat@?$ctype@D@std@@SA_KPEAPEBVfacet@locale@2@PEBV42@@Z 0000000140033fe0 f i main.obj
 0001:000330e0       ?_Getctype@_Locinfo@std@@QEBA?AU_Ctypevec@@XZ 00000001400340e0 f i main.obj
 0001:00033140       ?_Getfacet@locale@std@@QEBAPEBVfacet@12@_K@Z 0000000140034140 f i main.obj
 0001:00033200       ?_Gnavail@?$basic_streambuf@DU?$char_traits@D@std@@@std@@IEBA_JXZ 0000000140034200 f i main.obj
 0001:00033240       ?_Gndec@?$basic_streambuf@DU?$char_traits@D@std@@@std@@IEAAPEADXZ 0000000140034240 f i main.obj
 0001:00033290       ?_Gninc@?$basic_streambuf@DU?$char_traits@D@std@@@std@@IEAAPEADXZ 0000000140034290 f i main.obj
 0001:000332f0       ?_Gnpreinc@?$basic_streambuf@DU?$char_traits@D@std@@@std@@IEAAPEADXZ 00000001400342f0 f i main.obj
 0001:00033340       ?_Go@?$_LaunchPad@V?$unique_ptr@V?$tuple@P6AXPEAUasset_manager@@@ZPEAU1@@std@@U?$default_delete@V?$tuple@P6AXPEAUasset_manager@@@ZPEAU1@@std@@@2@@std@@@std@@UEAAXXZ 0000000140034340 f i main.obj
 0001:00033360       ?_Grow@?$basic_string@DU?$char_traits@D@std@@V?$allocator@D@2@@std@@QEAA_N_K_N@Z 0000000140034360 f i main.obj
 0001:00033450       ?_Incref@facet@locale@std@@UEAAXXZ 0000000140034450 f i main.obj
 0001:00033470       ?_Init@?$basic_filebuf@DU?$char_traits@D@std@@@std@@IEAAXPEAU_iobuf@@W4_Initfl@12@@Z 0000000140034470 f i main.obj
 0001:000335a0       ?_Init@?$basic_streambuf@DU?$char_traits@D@std@@@std@@IEAAXPEAPEAD0PEAH001@Z 00000001400345a0 f i main.obj
 0001:00033610       ?_Init@?$basic_streambuf@DU?$char_traits@D@std@@@std@@IEAAXXZ 0000000140034610 f i main.obj
 0001:000336b0       ??$destroy@PEAU?$_Tree_node@U?$pair@$$CBV?$basic_string@DU?$char_traits@D@std@@V?$allocator@D@2@@std@@V12@@std@@PEAX@std@@@?$allocator@U?$_Tree_node@U?$pair@$$CBV?$basic_string@DU?$char_traits@D@std@@V?$allocator@D@2@@std@@V12@@std@@PEAX@std@@@std@@QEAAXPEAPEAU?$_Tree_node@U?$pair@$$CBV?$basic_string@DU?$char_traits@D@std@@V?$allocator@D@2@@std@@V12@@std@@PEAX@1@@Z 00000001400346b0 f i main.obj
 0001:000336b0       ??$destroy@U?$pair@$$CBH_N@std@@@?$allocator@U?$_Tree_node@U?$pair@$$CBH_N@std@@PEAX@std@@@std@@QEAAXPEAU?$pair@$$CBH_N@1@@Z 00000001400346b0 f i main.obj
 0001:000336b0       ?_Adopt@_Iterator_base0@std@@QEAAXPEBX@Z 00000001400346b0 f i main.obj
 0001:000336b0       ?_Init@?$codecvt@DDU_Mbstatet@@@std@@IEAAXAEBV_Locinfo@2@@Z 00000001400346b0 f i main.obj
 0001:000336b0       ??3@YAXPEAX0@Z             00000001400346b0 f i main.obj
 0001:000336b0       ??$destroy@PEAU?$_Tree_node@U?$pair@$$CBHI@std@@PEAX@std@@@?$allocator@U?$_Tree_node@U?$pair@$$CBHI@std@@PEAX@std@@@std@@QEAAXPEAPEAU?$_Tree_node@U?$pair@$$CBHI@std@@PEAX@1@@Z 00000001400346b0 f i main.obj
 0001:000336b0       ?_Compat@?$_String_const_iterator@V?$_String_val@U?$_Simple_types@D@std@@@std@@@std@@QEBAXAEBV12@@Z 00000001400346b0 f i main.obj
 0001:000336b0       ??$destroy@PEAD@?$allocator@D@std@@QEAAXPEAPEAD@Z 00000001400346b0 f i main.obj
 0001:000336b0       ?_Swap_all@_Container_base0@std@@QEAAXAEAU12@@Z 00000001400346b0 f i main.obj
 0001:000336b0       ??$destroy@PEAU?$_Tree_node@U?$pair@$$CBH_N@std@@PEAX@std@@@?$allocator@U?$_Tree_node@U?$pair@$$CBH_N@std@@PEAX@std@@@std@@QEAAXPEAPEAU?$_Tree_node@U?$pair@$$CBH_N@std@@PEAX@1@@Z 00000001400346b0 f i main.obj
 0001:000336b0       ?_Compat@?$_Vector_const_iterator@V?$_Vector_val@U?$_Simple_types@D@std@@@std@@@std@@QEBAXAEBV12@@Z 00000001400346b0 f i main.obj
 0001:000336b0       ?imbue@?$basic_streambuf@DU?$char_traits@D@std@@@std@@MEAAXAEBVlocale@2@@Z 00000001400346b0 f i main.obj
 0001:000336b0       ??$destroy@U?$pair@$$CBHI@std@@@?$allocator@U?$_Tree_node@U?$pair@$$CBHI@std@@PEAX@std@@@std@@QEAAXPEAU?$pair@$$CBHI@1@@Z 00000001400346b0 f i main.obj
 0001:000336c0       ?_Init@?$ctype@D@std@@IEAAXAEBV_Locinfo@2@@Z 00000001400346c0 f i main.obj
 0001:00033700       ?_Init@ios_base@std@@IEAAXXZ 0000000140034700 f i main.obj
 0001:000337c0       ?_Init_atomic_counter@std@@YAXAEAKK@Z 00000001400347c0 f i main.obj
 0001:000337e0       ?_Initcvt@?$basic_filebuf@DU?$char_traits@D@std@@@std@@IEAAXPEBV?$codecvt@DDU_Mbstatet@@@2@@Z 00000001400347e0 f i main.obj
 0001:00033830       ?_Inside@?$basic_string@DU?$char_traits@D@std@@V?$allocator@D@2@@std@@QEAA_NPEBD@Z 0000000140034830 f i main.obj
 0001:00033890       ?_Ipfx@?$basic_istream@DU?$char_traits@D@std@@@std@@QEAA_N_N@Z 0000000140034890 f i main.obj
 0001:00033b30       ?_Isnil@?$_Tree_comp_alloc@V?$_Tmap_traits@V?$basic_string@DU?$char_traits@D@std@@V?$allocator@D@2@@std@@V12@U?$less@V?$basic_string@DU?$char_traits@D@std@@V?$allocator@D@2@@std@@@2@V?$allocator@U?$pair@$$CBV?$basic_string@DU?$char_traits@D@std@@V?$allocator@D@2@@std@@V12@@std@@@2@$0A@@std@@@std@@SAAEADPEAU?$_Tree_node@U?$pair@$$CBV?$basic_string@DU?$char_traits@D@std@@V?$allocator@D@2@@std@@V12@@std@@PEAX@2@@Z 0000000140034b30 f i main.obj
 0001:00033b30       ?_Isnil@?$_Tree_comp_alloc@V?$_Tmap_traits@HIU?$less@H@std@@V?$allocator@U?$pair@$$CBHI@std@@@2@$0A@@std@@@std@@SAAEADPEAU?$_Tree_node@U?$pair@$$CBHI@std@@PEAX@2@@Z 0000000140034b30 f i main.obj
 0001:00033b30       ?_Isnil@?$_Tree_comp_alloc@V?$_Tmap_traits@H_NU?$less@H@std@@V?$allocator@U?$pair@$$CBH_N@std@@@2@$0A@@std@@@std@@SAAEADPEAU?$_Tree_node@U?$pair@$$CBH_N@std@@PEAX@2@@Z 0000000140034b30 f i main.obj
 0001:00033b50       ?_Isnil@?$_Tree_val@U?$_Tree_simple_types@U?$pair@$$CBH_N@std@@@std@@@std@@SAAEADPEAU?$_Tree_node@U?$pair@$$CBH_N@std@@PEAX@2@@Z 0000000140034b50 f i main.obj
 0001:00033b50       ?_Isnil@?$_Tree_val@U?$_Tree_simple_types@U?$pair@$$CBV?$basic_string@DU?$char_traits@D@std@@V?$allocator@D@2@@std@@V12@@std@@@std@@@std@@SAAEADPEAU?$_Tree_node@U?$pair@$$CBV?$basic_string@DU?$char_traits@D@std@@V?$allocator@D@2@@std@@V12@@std@@PEAX@2@@Z 0000000140034b50 f i main.obj
 0001:00033b50       ?_Isnil@?$_Tree_val@U?$_Tree_simple_types@U?$pair@$$CBHI@std@@@std@@@std@@SAAEADPEAU?$_Tree_node@U?$pair@$$CBHI@std@@PEAX@2@@Z 0000000140034b50 f i main.obj
 0001:00033b60       ?_Key@?$_Tree@V?$_Tmap_traits@HIU?$less@H@std@@V?$allocator@U?$pair@$$CBHI@std@@@2@$0A@@std@@@std@@IEBAAEBHPEAU?$_Tree_node@U?$pair@$$CBHI@std@@PEAX@2@@Z 0000000140034b60 f i main.obj
 0001:00033b60       ?_Key@?$_Tree@V?$_Tmap_traits@H_NU?$less@H@std@@V?$allocator@U?$pair@$$CBH_N@std@@@2@$0A@@std@@@std@@IEBAAEBHPEAU?$_Tree_node@U?$pair@$$CBH_N@std@@PEAX@2@@Z 0000000140034b60 f i main.obj
 0001:00033b90       ?_Key@?$_Tree@V?$_Tmap_traits@V?$basic_string@DU?$char_traits@D@std@@V?$allocator@D@2@@std@@V12@U?$less@V?$basic_string@DU?$char_traits@D@std@@V?$allocator@D@2@@std@@@2@V?$allocator@U?$pair@$$CBV?$basic_string@DU?$char_traits@D@std@@V?$allocator@D@2@@std@@V12@@std@@@2@$0A@@std@@@std@@IEBAAEBV?$basic_string@DU?$char_traits@D@std@@V?$allocator@D@2@@2@PEAU?$_Tree_node@U?$pair@$$CBV?$basic_string@DU?$char_traits@D@std@@V?$allocator@D@2@@std@@V12@@std@@PEAX@2@@Z 0000000140034b90 f i main.obj
 0001:00033bc0       ?_Kfn@?$_Tree@V?$_Tmap_traits@HIU?$less@H@std@@V?$allocator@U?$pair@$$CBHI@std@@@2@$0A@@std@@@std@@IEBAAEBHAEBU?$pair@$$CBHI@2@@Z 0000000140034bc0 f i main.obj
 0001:00033bc0       ?_Kfn@?$_Tree@V?$_Tmap_traits@V?$basic_string@DU?$char_traits@D@std@@V?$allocator@D@2@@std@@V12@U?$less@V?$basic_string@DU?$char_traits@D@std@@V?$allocator@D@2@@std@@@2@V?$allocator@U?$pair@$$CBV?$basic_string@DU?$char_traits@D@std@@V?$allocator@D@2@@std@@V12@@std@@@2@$0A@@std@@@std@@IEBAAEBV?$basic_string@DU?$char_traits@D@std@@V?$allocator@D@2@@2@AEBU?$pair@$$CBV?$basic_string@DU?$char_traits@D@std@@V?$allocator@D@2@@std@@V12@@2@@Z 0000000140034bc0 f i main.obj
 0001:00033bc0       ?_Kfn@?$_Tree@V?$_Tmap_traits@H_NU?$less@H@std@@V?$allocator@U?$pair@$$CBH_N@std@@@2@$0A@@std@@@std@@IEBAAEBHAEBU?$pair@$$CBH_N@2@@Z 0000000140034bc0 f i main.obj
 0001:00033be0       ?_Launch@_Pad@std@@QEAAXPEAU_Thrd_imp_t@@@Z 0000000140034be0 f i main.obj
 0001:00033c30       ?pointer_to@?$pointer_traits@PEAU?$pair@$$CBV?$basic_string@DU?$char_traits@D@std@@V?$allocator@D@2@@std@@V12@@std@@@std@@SAPEAU?$pair@$$CBV?$basic_string@DU?$char_traits@D@std@@V?$allocator@D@2@@std@@V12@@2@AEAU32@@Z 0000000140034c30 f i main.obj
 0001:00033c30       ?_Left@?$_Tree_comp_alloc@V?$_Tmap_traits@V?$basic_string@DU?$char_traits@D@std@@V?$allocator@D@2@@std@@V12@U?$less@V?$basic_string@DU?$char_traits@D@std@@V?$allocator@D@2@@std@@@2@V?$allocator@U?$pair@$$CBV?$basic_string@DU?$char_traits@D@std@@V?$allocator@D@2@@std@@V12@@std@@@2@$0A@@std@@@std@@SAAEAPEAU?$_Tree_node@U?$pair@$$CBV?$basic_string@DU?$char_traits@D@std@@V?$allocator@D@2@@std@@V12@@std@@PEAX@2@PEAU32@@Z 0000000140034c30 f i main.obj
 0001:00033c30       ?pointer_to@?$pointer_traits@PEAU?$pair@$$CBHI@std@@@std@@SAPEAU?$pair@$$CBHI@2@AEAU32@@Z 0000000140034c30 f i main.obj
 0001:00033c30       ?_Left@?$_Tree_comp_alloc@V?$_Tmap_traits@HIU?$less@H@std@@V?$allocator@U?$pair@$$CBHI@std@@@2@$0A@@std@@@std@@SAAEAPEAU?$_Tree_node@U?$pair@$$CBHI@std@@PEAX@2@PEAU32@@Z 0000000140034c30 f i main.obj
 0001:00033c30       ?_Left@?$_Tree_comp_alloc@V?$_Tmap_traits@H_NU?$less@H@std@@V?$allocator@U?$pair@$$CBH_N@std@@@2@$0A@@std@@@std@@SAAEAPEAU?$_Tree_node@U?$pair@$$CBH_N@std@@PEAX@2@PEAU32@@Z 0000000140034c30 f i main.obj
 0001:00033c30       ?pointer_to@?$pointer_traits@PEAU?$pair@$$CBH_N@std@@@std@@SAPEAU?$pair@$$CBH_N@2@AEAU32@@Z 0000000140034c30 f i main.obj
 0001:00033c30       ?pointer_to@?$pointer_traits@PEAD@std@@SAPEADAEAD@Z 0000000140034c30 f i main.obj
 0001:00033c50       ?_Lmost@?$_Tree@V?$_Tmap_traits@HIU?$less@H@std@@V?$allocator@U?$pair@$$CBHI@std@@@2@$0A@@std@@@std@@IEBAAEAPEAU?$_Tree_node@U?$pair@$$CBHI@std@@PEAX@2@XZ 0000000140034c50 f i main.obj
 0001:00033c50       ?_Lmost@?$_Tree@V?$_Tmap_traits@V?$basic_string@DU?$char_traits@D@std@@V?$allocator@D@2@@std@@V12@U?$less@V?$basic_string@DU?$char_traits@D@std@@V?$allocator@D@2@@std@@@2@V?$allocator@U?$pair@$$CBV?$basic_string@DU?$char_traits@D@std@@V?$allocator@D@2@@std@@V12@@std@@@2@$0A@@std@@@std@@IEBAAEAPEAU?$_Tree_node@U?$pair@$$CBV?$basic_string@DU?$char_traits@D@std@@V?$allocator@D@2@@std@@V12@@std@@PEAX@2@XZ 0000000140034c50 f i main.obj
 0001:00033c50       ?_Lmost@?$_Tree@V?$_Tmap_traits@H_NU?$less@H@std@@V?$allocator@U?$pair@$$CBH_N@std@@@2@$0A@@std@@@std@@IEBAAEAPEAU?$_Tree_node@U?$pair@$$CBH_N@std@@PEAX@2@XZ 0000000140034c50 f i main.obj
 0001:00033c70       ?_Lock@?$basic_filebuf@DU?$char_traits@D@std@@@std@@UEAAXXZ 0000000140034c70 f i main.obj
 0001:00033ca0       ?_Lrotate@?$_Tree@V?$_Tmap_traits@V?$basic_string@DU?$char_traits@D@std@@V?$allocator@D@2@@std@@V12@U?$less@V?$basic_string@DU?$char_traits@D@std@@V?$allocator@D@2@@std@@@2@V?$allocator@U?$pair@$$CBV?$basic_string@DU?$char_traits@D@std@@V?$allocator@D@2@@std@@V12@@std@@@2@$0A@@std@@@std@@IEAAXPEAU?$_Tree_node@U?$pair@$$CBV?$basic_string@DU?$char_traits@D@std@@V?$allocator@D@2@@std@@V12@@std@@PEAX@2@@Z 0000000140034ca0 f i main.obj
 0001:00033ca0       ?_Lrotate@?$_Tree@V?$_Tmap_traits@H_NU?$less@H@std@@V?$allocator@U?$pair@$$CBH_N@std@@@2@$0A@@std@@@std@@IEAAXPEAU?$_Tree_node@U?$pair@$$CBH_N@std@@PEAX@2@@Z 0000000140034ca0 f i main.obj
 0001:00033ca0       ?_Lrotate@?$_Tree@V?$_Tmap_traits@HIU?$less@H@std@@V?$allocator@U?$pair@$$CBHI@std@@@2@$0A@@std@@@std@@IEAAXPEAU?$_Tree_node@U?$pair@$$CBHI@std@@PEAX@2@@Z 0000000140034ca0 f i main.obj
 0001:00033de0       ?_Makestr@_System_error@std@@CA?AV?$basic_string@DU?$char_traits@D@std@@V?$allocator@D@2@@2@Verror_code@2@V32@@Z 0000000140034de0 f i main.obj
 0001:00033ec0       ?_Max@?$_Tree_comp_alloc@V?$_Tmap_traits@H_NU?$less@H@std@@V?$allocator@U?$pair@$$CBH_N@std@@@2@$0A@@std@@@std@@SAPEAU?$_Tree_node@U?$pair@$$CBH_N@std@@PEAX@2@PEAU32@@Z 0000000140034ec0 f i main.obj
 0001:00033ec0       ?_Max@?$_Tree_comp_alloc@V?$_Tmap_traits@V?$basic_string@DU?$char_traits@D@std@@V?$allocator@D@2@@std@@V12@U?$less@V?$basic_string@DU?$char_traits@D@std@@V?$allocator@D@2@@std@@@2@V?$allocator@U?$pair@$$CBV?$basic_string@DU?$char_traits@D@std@@V?$allocator@D@2@@std@@V12@@std@@@2@$0A@@std@@@std@@SAPEAU?$_Tree_node@U?$pair@$$CBV?$basic_string@DU?$char_traits@D@std@@V?$allocator@D@2@@std@@V12@@std@@PEAX@2@PEAU32@@Z 0000000140034ec0 f i main.obj
 0001:00033ec0       ?_Max@?$_Tree_comp_alloc@V?$_Tmap_traits@HIU?$less@H@std@@V?$allocator@U?$pair@$$CBHI@std@@@2@$0A@@std@@@std@@SAPEAU?$_Tree_node@U?$pair@$$CBHI@std@@PEAX@2@PEAU32@@Z 0000000140034ec0 f i main.obj
 0001:00033ee0       ?_Max@?$_Tree_val@U?$_Tree_simple_types@U?$pair@$$CBV?$basic_string@DU?$char_traits@D@std@@V?$allocator@D@2@@std@@V12@@std@@@std@@@std@@SAPEAU?$_Tree_node@U?$pair@$$CBV?$basic_string@DU?$char_traits@D@std@@V?$allocator@D@2@@std@@V12@@std@@PEAX@2@PEAU32@@Z 0000000140034ee0 f i main.obj
 0001:00033ee0       ?_Max@?$_Tree_val@U?$_Tree_simple_types@U?$pair@$$CBHI@std@@@std@@@std@@SAPEAU?$_Tree_node@U?$pair@$$CBHI@std@@PEAX@2@PEAU32@@Z 0000000140034ee0 f i main.obj
 0001:00033ee0       ?_Max@?$_Tree_val@U?$_Tree_simple_types@U?$pair@$$CBH_N@std@@@std@@@std@@SAPEAU?$_Tree_node@U?$pair@$$CBH_N@std@@PEAX@2@PEAU32@@Z 0000000140034ee0 f i main.obj
 0001:00033f20       ?_Min@?$_Tree_comp_alloc@V?$_Tmap_traits@H_NU?$less@H@std@@V?$allocator@U?$pair@$$CBH_N@std@@@2@$0A@@std@@@std@@SAPEAU?$_Tree_node@U?$pair@$$CBH_N@std@@PEAX@2@PEAU32@@Z 0000000140034f20 f i main.obj
 0001:00033f20       ?_Min@?$_Tree_comp_alloc@V?$_Tmap_traits@HIU?$less@H@std@@V?$allocator@U?$pair@$$CBHI@std@@@2@$0A@@std@@@std@@SAPEAU?$_Tree_node@U?$pair@$$CBHI@std@@PEAX@2@PEAU32@@Z 0000000140034f20 f i main.obj
 0001:00033f20       ?_Min@?$_Tree_comp_alloc@V?$_Tmap_traits@V?$basic_string@DU?$char_traits@D@std@@V?$allocator@D@2@@std@@V12@U?$less@V?$basic_string@DU?$char_traits@D@std@@V?$allocator@D@2@@std@@@2@V?$allocator@U?$pair@$$CBV?$basic_string@DU?$char_traits@D@std@@V?$allocator@D@2@@std@@V12@@std@@@2@$0A@@std@@@std@@SAPEAU?$_Tree_node@U?$pair@$$CBV?$basic_string@DU?$char_traits@D@std@@V?$allocator@D@2@@std@@V12@@std@@PEAX@2@PEAU32@@Z 0000000140034f20 f i main.obj
 0001:00033f40       ?_Min@?$_Tree_val@U?$_Tree_simple_types@U?$pair@$$CBHI@std@@@std@@@std@@SAPEAU?$_Tree_node@U?$pair@$$CBHI@std@@PEAX@2@PEAU32@@Z 0000000140034f40 f i main.obj
 0001:00033f40       ?_Min@?$_Tree_val@U?$_Tree_simple_types@U?$pair@$$CBH_N@std@@@std@@@std@@SAPEAU?$_Tree_node@U?$pair@$$CBH_N@std@@PEAX@2@PEAU32@@Z 0000000140034f40 f i main.obj
 0001:00033f40       ?_Min@?$_Tree_val@U?$_Tree_simple_types@U?$pair@$$CBV?$basic_string@DU?$char_traits@D@std@@V?$allocator@D@2@@std@@V12@@std@@@std@@@std@@SAPEAU?$_Tree_node@U?$pair@$$CBV?$basic_string@DU?$char_traits@D@std@@V?$allocator@D@2@@std@@V12@@std@@PEAX@2@PEAU32@@Z 0000000140034f40 f i main.obj
 0001:00033f80       ?_Move_alloc@?$_String_alloc@U?$_String_base_types@DV?$allocator@D@std@@@std@@@std@@QEAAXAEAU?$_Wrap_alloc@V?$allocator@D@std@@@2@@Z 0000000140034f80 f i main.obj
 0001:00033fb0       ?_Mtx_initX@std@@YAHPEAPEAU_Mtx_internal_imp_t@@H@Z 0000000140034fb0 f i main.obj
 0001:00033fe0       ?_Mtx_lockX@std@@YAHPEAU_Mtx_internal_imp_t@@@Z 0000000140034fe0 f i main.obj
 0001:00034000       ?_Mtx_unlockX@std@@YAHPEAU_Mtx_internal_imp_t@@@Z 0000000140035000 f i main.obj
 0001:00034020       ?_Mysize@?$_String_alloc@U?$_String_base_types@DV?$allocator@D@std@@@std@@@std@@QEBAAEB_KXZ 0000000140035020 f i main.obj
 0001:00034020       ?_Myend@?$_Vector_alloc@U?$_Vec_base_types@DV?$allocator@D@std@@@std@@@std@@QEAAAEAPEADXZ 0000000140035020 f i main.obj
 0001:00034020       ?_Mysize@?$_String_alloc@U?$_String_base_types@DV?$allocator@D@std@@@std@@@std@@QEAAAEA_KXZ 0000000140035020 f i main.obj
 0001:00034040       ?_Myhead@?$_Tree_comp_alloc@V?$_Tmap_traits@H_NU?$less@H@std@@V?$allocator@U?$pair@$$CBH_N@std@@@2@$0A@@std@@@std@@QEBAAEBQEAU?$_Tree_node@U?$pair@$$CBH_N@std@@PEAX@2@XZ 0000000140035040 f i main.obj
 0001:00034040       ?_Myhead@?$_Tree_comp_alloc@V?$_Tmap_traits@H_NU?$less@H@std@@V?$allocator@U?$pair@$$CBH_N@std@@@2@$0A@@std@@@std@@QEAAAEAPEAU?$_Tree_node@U?$pair@$$CBH_N@std@@PEAX@2@XZ 0000000140035040 f i main.obj
 0001:00034040       ?_Myhead@?$_Tree_comp_alloc@V?$_Tmap_traits@V?$basic_string@DU?$char_traits@D@std@@V?$allocator@D@2@@std@@V12@U?$less@V?$basic_string@DU?$char_traits@D@std@@V?$allocator@D@2@@std@@@2@V?$allocator@U?$pair@$$CBV?$basic_string@DU?$char_traits@D@std@@V?$allocator@D@2@@std@@V12@@std@@@2@$0A@@std@@@std@@QEBAAEBQEAU?$_Tree_node@U?$pair@$$CBV?$basic_string@DU?$char_traits@D@std@@V?$allocator@D@2@@std@@V12@@std@@PEAX@2@XZ 0000000140035040 f i main.obj
 0001:00034040       ?_Myhead@?$_Tree_comp_alloc@V?$_Tmap_traits@V?$basic_string@DU?$char_traits@D@std@@V?$allocator@D@2@@std@@V12@U?$less@V?$basic_string@DU?$char_traits@D@std@@V?$allocator@D@2@@std@@@2@V?$allocator@U?$pair@$$CBV?$basic_string@DU?$char_traits@D@std@@V?$allocator@D@2@@std@@V12@@std@@@2@$0A@@std@@@std@@QEAAAEAPEAU?$_Tree_node@U?$pair@$$CBV?$basic_string@DU?$char_traits@D@std@@V?$allocator@D@2@@std@@V12@@std@@PEAX@2@XZ 0000000140035040 f i main.obj
 0001:00034040       ?_Myhead@?$_Tree_comp_alloc@V?$_Tmap_traits@HIU?$less@H@std@@V?$allocator@U?$pair@$$CBHI@std@@@2@$0A@@std@@@std@@QEAAAEAPEAU?$_Tree_node@U?$pair@$$CBHI@std@@PEAX@2@XZ 0000000140035040 f i main.obj
 0001:00034040       ?_Myhead@?$_Tree_comp_alloc@V?$_Tmap_traits@HIU?$less@H@std@@V?$allocator@U?$pair@$$CBHI@std@@@2@$0A@@std@@@std@@QEBAAEBQEAU?$_Tree_node@U?$pair@$$CBHI@std@@PEAX@2@XZ 0000000140035040 f i main.obj
 0001:00034060       ?_Mylast@?$_Vector_alloc@U?$_Vec_base_types@DV?$allocator@D@std@@@std@@@std@@QEAAAEAPEADXZ 0000000140035060 f i main.obj
 0001:00034080       ?_Mynode@?$_Tree_unchecked_const_iterator@V?$_Tree_val@U?$_Tree_simple_types@U?$pair@$$CBH_N@std@@@std@@@std@@U_Iterator_base0@2@@std@@QEBAPEAU?$_Tree_node@U?$pair@$$CBH_N@std@@PEAX@2@XZ 0000000140035080 f i main.obj
 0001:00034080       ?count@?$duration@_JU?$ratio@$00$0JIJGIA@@std@@@chrono@std@@QEBA_JXZ 0000000140035080 f i main.obj
 0001:00034080       ?count@?$duration@_JU?$ratio@$00$00@std@@@chrono@std@@QEBA_JXZ 0000000140035080 f i main.obj
 0001:00034080       ?begin@?$initializer_list@U?$pair@$$CBH_N@std@@@std@@QEBAPEBU?$pair@$$CBH_N@2@XZ 0000000140035080 f i main.obj
 0001:00034080       ?begin@?$initializer_list@U?$pair@$$CBHI@std@@@std@@QEBAPEBU?$pair@$$CBHI@2@XZ 0000000140035080 f i main.obj
 0001:00034080       ?count@?$duration@_JU?$ratio@$00$0DLJKMKAA@@std@@@chrono@std@@QEBA_JXZ 0000000140035080 f i main.obj
 0001:00034080       ?_Mynode@?$_Tree_unchecked_const_iterator@V?$_Tree_val@U?$_Tree_simple_types@U?$pair@$$CBHI@std@@@std@@@std@@U_Iterator_base0@2@@std@@QEBAPEAU?$_Tree_node@U?$pair@$$CBHI@std@@PEAX@2@XZ 0000000140035080 f i main.obj
 0001:00034080       ??D?$_Vector_const_iterator@V?$_Vector_val@U?$_Simple_types@D@std@@@std@@@std@@QEBAAEBDXZ 0000000140035080 f i main.obj
 0001:00034080       ?_Mynode@?$_Tree_unchecked_const_iterator@V?$_Tree_val@U?$_Tree_simple_types@U?$pair@$$CBV?$basic_string@DU?$char_traits@D@std@@V?$allocator@D@2@@std@@V12@@std@@@std@@@std@@U_Iterator_base0@2@@std@@QEBAPEAU?$_Tree_node@U?$pair@$$CBV?$basic_string@DU?$char_traits@D@std@@V?$allocator@D@2@@std@@V12@@std@@PEAX@2@XZ 0000000140035080 f i main.obj
 0001:00034080       ??D?$_String_const_iterator@V?$_String_val@U?$_Simple_types@D@std@@@std@@@std@@QEBAAEBDXZ 0000000140035080 f i main.obj
 0001:00034090       ?_Myptr@?$_String_alloc@U?$_String_base_types@DV?$allocator@D@std@@@std@@@std@@QEBAPEBDXZ 0000000140035090 f i main.obj
 0001:00034090       ?_Myptr@?$_String_alloc@U?$_String_base_types@DV?$allocator@D@std@@@std@@@std@@QEAAPEADXZ 0000000140035090 f i main.obj
 0001:000340b0       ?_Myptr@?$_String_val@U?$_Simple_types@D@std@@@std@@QEBAPEBDXZ 00000001400350b0 f i main.obj
 0001:000340b0       ?_Myptr@?$_String_val@U?$_Simple_types@D@std@@@std@@QEAAPEADXZ 00000001400350b0 f i main.obj
 0001:000340f0       ?_Getal@?$_Vector_alloc@U?$_Vec_base_types@DV?$allocator@D@std@@@std@@@std@@QEAAAEAU?$_Wrap_alloc@V?$allocator@D@std@@@2@XZ 00000001400350f0 f i main.obj
 0001:000340f0       ?get_deleter@?$_Unique_ptr_base@V?$tuple@P6AXPEAUasset_manager@@@ZPEAU1@@std@@U?$default_delete@V?$tuple@P6AXPEAUasset_manager@@@ZPEAU1@@std@@@2@@std@@QEAAAEAU?$default_delete@V?$tuple@P6AXPEAUasset_manager@@@ZPEAU1@@std@@@2@XZ 00000001400350f0 f i main.obj
 0001:000340f0       ?_Getcomp@?$_Tree_comp_alloc@V?$_Tmap_traits@HIU?$less@H@std@@V?$allocator@U?$pair@$$CBHI@std@@@2@$0A@@std@@@std@@QEBAAEBU?$less@H@2@XZ 00000001400350f0 f i main.obj
 0001:000340f0       ?_Myptr@?$_Unique_ptr_base@V?$tuple@P6AXPEAUasset_manager@@@ZPEAU1@@std@@U?$default_delete@V?$tuple@P6AXPEAUasset_manager@@@ZPEAU1@@std@@@2@@std@@QEAAAEAPEAV?$tuple@P6AXPEAUasset_manager@@@ZPEAU1@@2@XZ 00000001400350f0 f i main.obj
 0001:000340f0       ?_Getal@?$_String_alloc@U?$_String_base_types@DV?$allocator@D@std@@@std@@@std@@QEBAAEBU?$_Wrap_alloc@V?$allocator@D@std@@@2@XZ 00000001400350f0 f i main.obj
 0001:000340f0       ?_Getcomp@?$_Tree_comp_alloc@V?$_Tmap_traits@V?$basic_string@DU?$char_traits@D@std@@V?$allocator@D@2@@std@@V12@U?$less@V?$basic_string@DU?$char_traits@D@std@@V?$allocator@D@2@@std@@@2@V?$allocator@U?$pair@$$CBV?$basic_string@DU?$char_traits@D@std@@V?$allocator@D@2@@std@@V12@@std@@@2@$0A@@std@@@std@@QEAAAEAU?$less@V?$basic_string@DU?$char_traits@D@std@@V?$allocator@D@2@@std@@@2@XZ 00000001400350f0 f i main.obj
 0001:000340f0       ?_Getcomp@?$_Tree_comp_alloc@V?$_Tmap_traits@H_NU?$less@H@std@@V?$allocator@U?$pair@$$CBH_N@std@@@2@$0A@@std@@@std@@QEBAAEBU?$less@H@2@XZ 00000001400350f0 f i main.obj
 0001:000340f0       ?_Getcomp@?$_Tree_comp_alloc@V?$_Tmap_traits@V?$basic_string@DU?$char_traits@D@std@@V?$allocator@D@2@@std@@V12@U?$less@V?$basic_string@DU?$char_traits@D@std@@V?$allocator@D@2@@std@@@2@V?$allocator@U?$pair@$$CBV?$basic_string@DU?$char_traits@D@std@@V?$allocator@D@2@@std@@V12@@std@@@2@$0A@@std@@@std@@QEBAAEBU?$less@V?$basic_string@DU?$char_traits@D@std@@V?$allocator@D@2@@std@@@2@XZ 00000001400350f0 f i main.obj
 0001:000340f0       ?_Getal@?$_String_alloc@U?$_String_base_types@DV?$allocator@D@std@@@std@@@std@@QEAAAEAU?$_Wrap_alloc@V?$allocator@D@std@@@2@XZ 00000001400350f0 f i main.obj
 0001:000340f0       ?_Getal@?$_Vector_alloc@U?$_Vec_base_types@DV?$allocator@D@std@@@std@@@std@@QEBAAEBU?$_Wrap_alloc@V?$allocator@D@std@@@2@XZ 00000001400350f0 f i main.obj
 0001:000340f0       ?_Getcomp@?$_Tree_comp_alloc@V?$_Tmap_traits@HIU?$less@H@std@@V?$allocator@U?$pair@$$CBHI@std@@@2@$0A@@std@@@std@@QEAAAEAU?$less@H@2@XZ 00000001400350f0 f i main.obj
 0001:000340f0       ?_Get_data@?$_String_alloc@U?$_String_base_types@DV?$allocator@D@std@@@std@@@std@@QEBAAEBV?$_String_val@U?$_Simple_types@D@std@@@2@XZ 00000001400350f0 f i main.obj
 0001:000340f0       ?_Getcomp@?$_Tree_comp_alloc@V?$_Tmap_traits@H_NU?$less@H@std@@V?$allocator@U?$pair@$$CBH_N@std@@@2@$0A@@std@@@std@@QEAAAEAU?$less@H@2@XZ 00000001400350f0 f i main.obj
 0001:000340f0       ?_Get_data@?$_String_alloc@U?$_String_base_types@DV?$allocator@D@std@@@std@@@std@@QEAAAEAV?$_String_val@U?$_Simple_types@D@std@@@2@XZ 00000001400350f0 f i main.obj
 0001:000340f0       ?_Myptr@?$_Unique_ptr_base@V?$tuple@P6AXPEAUasset_manager@@@ZPEAU1@@std@@U?$default_delete@V?$tuple@P6AXPEAUasset_manager@@@ZPEAU1@@std@@@2@@std@@QEBAAEBQEAV?$tuple@P6AXPEAUasset_manager@@@ZPEAU1@@2@XZ 00000001400350f0 f i main.obj
 0001:000340f0       ?_Get_data@?$_Vector_alloc@U?$_Vec_base_types@DV?$allocator@D@std@@@std@@@std@@QEAAAEAV?$_Vector_val@U?$_Simple_types@D@std@@@2@XZ 00000001400350f0 f i main.obj
 0001:00034110       ?_Myres@?$_String_alloc@U?$_String_base_types@DV?$allocator@D@std@@@std@@@std@@QEAAAEA_KXZ 0000000140035110 f i main.obj
 0001:00034130       ?_Mysize@?$_Tree_comp_alloc@V?$_Tmap_traits@HIU?$less@H@std@@V?$allocator@U?$pair@$$CBHI@std@@@2@$0A@@std@@@std@@QEAAAEA_KXZ 0000000140035130 f i main.obj
 0001:00034130       ?_Mysize@?$_Tree_comp_alloc@V?$_Tmap_traits@V?$basic_string@DU?$char_traits@D@std@@V?$allocator@D@2@@std@@V12@U?$less@V?$basic_string@DU?$char_traits@D@std@@V?$allocator@D@2@@std@@@2@V?$allocator@U?$pair@$$CBV?$basic_string@DU?$char_traits@D@std@@V?$allocator@D@2@@std@@V12@@std@@@2@$0A@@std@@@std@@QEAAAEA_KXZ 0000000140035130 f i main.obj
 0001:00034130       ?_Mysize@?$_Tree_comp_alloc@V?$_Tmap_traits@H_NU?$less@H@std@@V?$allocator@U?$pair@$$CBH_N@std@@@2@$0A@@std@@@std@@QEAAAEA_KXZ 0000000140035130 f i main.obj
 0001:00034130       ?_Mysize@?$_Tree_comp_alloc@V?$_Tmap_traits@H_NU?$less@H@std@@V?$allocator@U?$pair@$$CBH_N@std@@@2@$0A@@std@@@std@@QEBAAEB_KXZ 0000000140035130 f i main.obj
 0001:00034130       ?_Mysize@?$_Tree_comp_alloc@V?$_Tmap_traits@HIU?$less@H@std@@V?$allocator@U?$pair@$$CBHI@std@@@2@$0A@@std@@@std@@QEBAAEB_KXZ 0000000140035130 f i main.obj
 0001:00034130       ?_Mysize@?$_Tree_comp_alloc@V?$_Tmap_traits@V?$basic_string@DU?$char_traits@D@std@@V?$allocator@D@2@@std@@V12@U?$less@V?$basic_string@DU?$char_traits@D@std@@V?$allocator@D@2@@std@@@2@V?$allocator@U?$pair@$$CBV?$basic_string@DU?$char_traits@D@std@@V?$allocator@D@2@@std@@V12@@std@@@2@$0A@@std@@@std@@QEBAAEB_KXZ 0000000140035130 f i main.obj
 0001:00034150       ?_Myval@?$_Tree_comp_alloc@V?$_Tmap_traits@HIU?$less@H@std@@V?$allocator@U?$pair@$$CBHI@std@@@2@$0A@@std@@@std@@SAAEAU?$pair@$$CBHI@2@PEAU?$_Tree_node@U?$pair@$$CBHI@std@@PEAX@2@@Z 0000000140035150 f i main.obj
 0001:00034150       ?_Myval@?$_Tree_comp_alloc@V?$_Tmap_traits@H_NU?$less@H@std@@V?$allocator@U?$pair@$$CBH_N@std@@@2@$0A@@std@@@std@@SAAEAU?$pair@$$CBH_N@2@PEAU?$_Tree_node@U?$pair@$$CBH_N@std@@PEAX@2@@Z 0000000140035150 f i main.obj
 0001:00034170       ?_Myval@?$_Tree_comp_alloc@V?$_Tmap_traits@V?$basic_string@DU?$char_traits@D@std@@V?$allocator@D@2@@std@@V12@U?$less@V?$basic_string@DU?$char_traits@D@std@@V?$allocator@D@2@@std@@@2@V?$allocator@U?$pair@$$CBV?$basic_string@DU?$char_traits@D@std@@V?$allocator@D@2@@std@@V12@@std@@@2@$0A@@std@@@std@@SAAEAU?$pair@$$CBV?$basic_string@DU?$char_traits@D@std@@V?$allocator@D@2@@std@@V12@@2@PEAU?$_Tree_node@U?$pair@$$CBV?$basic_string@DU?$char_traits@D@std@@V?$allocator@D@2@@std@@V12@@std@@PEAX@2@@Z 0000000140035170 f i main.obj
 0001:00034190       ?_Myval@?$_Tree_val@U?$_Tree_simple_types@U?$pair@$$CBH_N@std@@@std@@@std@@SAAEAU?$pair@$$CBH_N@2@PEAU?$_Tree_node@U?$pair@$$CBH_N@std@@PEAX@2@@Z 0000000140035190 f i main.obj
 0001:00034190       ?_Myval@?$_Tree_val@U?$_Tree_simple_types@U?$pair@$$CBHI@std@@@std@@@std@@SAAEAU?$pair@$$CBHI@2@PEAU?$_Tree_node@U?$pair@$$CBHI@std@@PEAX@2@@Z 0000000140035190 f i main.obj
 0001:000341a0       ?_Myval@?$_Tree_val@U?$_Tree_simple_types@U?$pair@$$CBV?$basic_string@DU?$char_traits@D@std@@V?$allocator@D@2@@std@@V12@@std@@@std@@@std@@SAAEAU?$pair@$$CBV?$basic_string@DU?$char_traits@D@std@@V?$allocator@D@2@@std@@V12@@2@PEAU?$_Tree_node@U?$pair@$$CBV?$basic_string@DU?$char_traits@D@std@@V?$allocator@D@2@@std@@V12@@std@@PEAX@2@@Z 00000001400351a0 f i main.obj
 0001:000341b0       ?_Orphan_all@?$_Vector_alloc@U?$_Vec_base_types@DV?$allocator@D@std@@@std@@@std@@QEAAXXZ 00000001400351b0 f i main.obj
 0001:000341d0       ?_Osfx@?$basic_ostream@DU?$char_traits@D@std@@@std@@QEAAXXZ 00000001400351d0 f i main.obj
 0001:000342b0       ?_Parent@?$_Tree_comp_alloc@V?$_Tmap_traits@HIU?$less@H@std@@V?$allocator@U?$pair@$$CBHI@std@@@2@$0A@@std@@@std@@SAAEAPEAU?$_Tree_node@U?$pair@$$CBHI@std@@PEAX@2@PEAU32@@Z 00000001400352b0 f i main.obj
 0001:000342b0       ?_Parent@?$_Tree_comp_alloc@V?$_Tmap_traits@V?$basic_string@DU?$char_traits@D@std@@V?$allocator@D@2@@std@@V12@U?$less@V?$basic_string@DU?$char_traits@D@std@@V?$allocator@D@2@@std@@@2@V?$allocator@U?$pair@$$CBV?$basic_string@DU?$char_traits@D@std@@V?$allocator@D@2@@std@@V12@@std@@@2@$0A@@std@@@std@@SAAEAPEAU?$_Tree_node@U?$pair@$$CBV?$basic_string@DU?$char_traits@D@std@@V?$allocator@D@2@@std@@V12@@std@@PEAX@2@PEAU32@@Z 00000001400352b0 f i main.obj
 0001:000342b0       ?_Parent@?$_Tree_comp_alloc@V?$_Tmap_traits@H_NU?$less@H@std@@V?$allocator@U?$pair@$$CBH_N@std@@@2@$0A@@std@@@std@@SAAEAPEAU?$_Tree_node@U?$pair@$$CBH_N@std@@PEAX@2@PEAU32@@Z 00000001400352b0 f i main.obj
 0001:000342d0       ?_Parent@?$_Tree_val@U?$_Tree_simple_types@U?$pair@$$CBHI@std@@@std@@@std@@SAAEAPEAU?$_Tree_node@U?$pair@$$CBHI@std@@PEAX@2@PEAU32@@Z 00000001400352d0 f i main.obj
 0001:000342d0       ?_Parent@?$_Tree_val@U?$_Tree_simple_types@U?$pair@$$CBV?$basic_string@DU?$char_traits@D@std@@V?$allocator@D@2@@std@@V12@@std@@@std@@@std@@SAAEAPEAU?$_Tree_node@U?$pair@$$CBV?$basic_string@DU?$char_traits@D@std@@V?$allocator@D@2@@std@@V12@@std@@PEAX@2@PEAU32@@Z 00000001400352d0 f i main.obj
 0001:000342d0       ?_Parent@?$_Tree_val@U?$_Tree_simple_types@U?$pair@$$CBH_N@std@@@std@@@std@@SAAEAPEAU?$_Tree_node@U?$pair@$$CBH_N@std@@PEAX@2@PEAU32@@Z 00000001400352d0 f i main.obj
 0001:000342d0       ??$get@$0A@P6AXPEAUasset_manager@@@ZPEAU1@@std@@YAAEAP6AXPEAUasset_manager@@@ZAEAV?$tuple@P6AXPEAUasset_manager@@@ZPEAU1@@0@@Z 00000001400352d0 f i main.obj
 0001:000342e0       ?_Pnavail@?$basic_streambuf@DU?$char_traits@D@std@@@std@@IEBA_JXZ 00000001400352e0 f i main.obj
 0001:00034320       ?_Pninc@?$basic_streambuf@DU?$char_traits@D@std@@@std@@IEAAPEADXZ 0000000140035320 f i main.obj
 0001:00034380       ?_Release@_Auto_cnd@std@@QEAAXXZ 0000000140035380 f i main.obj
 0001:00034380       ?_Release@_Auto_mtx@std@@QEAAXXZ 0000000140035380 f i main.obj
 0001:00034390       ?_Release@_Pad@std@@QEAAXXZ 0000000140035390 f i main.obj
 0001:000343e0       ?_Reset_back@?$basic_filebuf@DU?$char_traits@D@std@@@std@@AEAAXXZ 00000001400353e0 f i main.obj
 0001:00034440       ?_Right@?$_Tree_comp_alloc@V?$_Tmap_traits@V?$basic_string@DU?$char_traits@D@std@@V?$allocator@D@2@@std@@V12@U?$less@V?$basic_string@DU?$char_traits@D@std@@V?$allocator@D@2@@std@@@2@V?$allocator@U?$pair@$$CBV?$basic_string@DU?$char_traits@D@std@@V?$allocator@D@2@@std@@V12@@std@@@2@$0A@@std@@@std@@SAAEAPEAU?$_Tree_node@U?$pair@$$CBV?$basic_string@DU?$char_traits@D@std@@V?$allocator@D@2@@std@@V12@@std@@PEAX@2@PEAU32@@Z 0000000140035440 f i main.obj
 0001:00034440       ?_Right@?$_Tree_comp_alloc@V?$_Tmap_traits@HIU?$less@H@std@@V?$allocator@U?$pair@$$CBHI@std@@@2@$0A@@std@@@std@@SAAEAPEAU?$_Tree_node@U?$pair@$$CBHI@std@@PEAX@2@PEAU32@@Z 0000000140035440 f i main.obj
 0001:00034440       ?_Right@?$_Tree_comp_alloc@V?$_Tmap_traits@H_NU?$less@H@std@@V?$allocator@U?$pair@$$CBH_N@std@@@2@$0A@@std@@@std@@SAAEAPEAU?$_Tree_node@U?$pair@$$CBH_N@std@@PEAX@2@PEAU32@@Z 0000000140035440 f i main.obj
 0001:00034460       ?_Right@?$_Tree_val@U?$_Tree_simple_types@U?$pair@$$CBHI@std@@@std@@@std@@SAAEAPEAU?$_Tree_node@U?$pair@$$CBHI@std@@PEAX@2@PEAU32@@Z 0000000140035460 f i main.obj
 0001:00034460       ?_Right@?$_Tree_val@U?$_Tree_simple_types@U?$pair@$$CBV?$basic_string@DU?$char_traits@D@std@@V?$allocator@D@2@@std@@V12@@std@@@std@@@std@@SAAEAPEAU?$_Tree_node@U?$pair@$$CBV?$basic_string@DU?$char_traits@D@std@@V?$allocator@D@2@@std@@V12@@std@@PEAX@2@PEAU32@@Z 0000000140035460 f i main.obj
 0001:00034460       ?_Right@?$_Tree_val@U?$_Tree_simple_types@U?$pair@$$CBH_N@std@@@std@@@std@@SAAEAPEAU?$_Tree_node@U?$pair@$$CBH_N@std@@PEAX@2@PEAU32@@Z 0000000140035460 f i main.obj
 0001:00034470       ?_Rmost@?$_Tree@V?$_Tmap_traits@V?$basic_string@DU?$char_traits@D@std@@V?$allocator@D@2@@std@@V12@U?$less@V?$basic_string@DU?$char_traits@D@std@@V?$allocator@D@2@@std@@@2@V?$allocator@U?$pair@$$CBV?$basic_string@DU?$char_traits@D@std@@V?$allocator@D@2@@std@@V12@@std@@@2@$0A@@std@@@std@@IEBAAEAPEAU?$_Tree_node@U?$pair@$$CBV?$basic_string@DU?$char_traits@D@std@@V?$allocator@D@2@@std@@V12@@std@@PEAX@2@XZ 0000000140035470 f i main.obj
 0001:00034470       ?_Rmost@?$_Tree@V?$_Tmap_traits@H_NU?$less@H@std@@V?$allocator@U?$pair@$$CBH_N@std@@@2@$0A@@std@@@std@@IEBAAEAPEAU?$_Tree_node@U?$pair@$$CBH_N@std@@PEAX@2@XZ 0000000140035470 f i main.obj
 0001:00034470       ?_Rmost@?$_Tree@V?$_Tmap_traits@HIU?$less@H@std@@V?$allocator@U?$pair@$$CBHI@std@@@2@$0A@@std@@@std@@IEBAAEAPEAU?$_Tree_node@U?$pair@$$CBHI@std@@PEAX@2@XZ 0000000140035470 f i main.obj
 0001:00034490       ?_Root@?$_Tree@V?$_Tmap_traits@HIU?$less@H@std@@V?$allocator@U?$pair@$$CBHI@std@@@2@$0A@@std@@@std@@IEBAAEAPEAU?$_Tree_node@U?$pair@$$CBHI@std@@PEAX@2@XZ 0000000140035490 f i main.obj
 0001:00034490       ?_Root@?$_Tree@V?$_Tmap_traits@H_NU?$less@H@std@@V?$allocator@U?$pair@$$CBH_N@std@@@2@$0A@@std@@@std@@IEBAAEAPEAU?$_Tree_node@U?$pair@$$CBH_N@std@@PEAX@2@XZ 0000000140035490 f i main.obj
 0001:00034490       ?_Root@?$_Tree@V?$_Tmap_traits@V?$basic_string@DU?$char_traits@D@std@@V?$allocator@D@2@@std@@V12@U?$less@V?$basic_string@DU?$char_traits@D@std@@V?$allocator@D@2@@std@@@2@V?$allocator@U?$pair@$$CBV?$basic_string@DU?$char_traits@D@std@@V?$allocator@D@2@@std@@V12@@std@@@2@$0A@@std@@@std@@IEBAAEAPEAU?$_Tree_node@U?$pair@$$CBV?$basic_string@DU?$char_traits@D@std@@V?$allocator@D@2@@std@@V12@@std@@PEAX@2@XZ 0000000140035490 f i main.obj
 0001:000344b0       ?_Rrotate@?$_Tree@V?$_Tmap_traits@HIU?$less@H@std@@V?$allocator@U?$pair@$$CBHI@std@@@2@$0A@@std@@@std@@IEAAXPEAU?$_Tree_node@U?$pair@$$CBHI@std@@PEAX@2@@Z 00000001400354b0 f i main.obj
 0001:000344b0       ?_Rrotate@?$_Tree@V?$_Tmap_traits@H_NU?$less@H@std@@V?$allocator@U?$pair@$$CBH_N@std@@@2@$0A@@std@@@std@@IEAAXPEAU?$_Tree_node@U?$pair@$$CBH_N@std@@PEAX@2@@Z 00000001400354b0 f i main.obj
 0001:000344b0       ?_Rrotate@?$_Tree@V?$_Tmap_traits@V?$basic_string@DU?$char_traits@D@std@@V?$allocator@D@2@@std@@V12@U?$less@V?$basic_string@DU?$char_traits@D@std@@V?$allocator@D@2@@std@@@2@V?$allocator@U?$pair@$$CBV?$basic_string@DU?$char_traits@D@std@@V?$allocator@D@2@@std@@V12@@std@@@2@$0A@@std@@@std@@IEAAXPEAU?$_Tree_node@U?$pair@$$CBV?$basic_string@DU?$char_traits@D@std@@V?$allocator@D@2@@std@@V12@@std@@PEAX@2@@Z 00000001400354b0 f i main.obj
 0001:000345f0       ?_Run@?$_LaunchPad@V?$unique_ptr@V?$tuple@P6AXPEAUasset_manager@@@ZPEAU1@@std@@U?$default_delete@V?$tuple@P6AXPEAUasset_manager@@@ZPEAU1@@std@@@2@@std@@@std@@CAXPEAV12@@Z 00000001400355f0 f i main.obj
 0001:00034660       ?_Set_back@?$basic_filebuf@DU?$char_traits@D@std@@@std@@AEAAXXZ 0000000140035660 f i main.obj
 0001:000346e0       ?_Swap_all@?$_Tree_comp_alloc@V?$_Tmap_traits@V?$basic_string@DU?$char_traits@D@std@@V?$allocator@D@2@@std@@V12@U?$less@V?$basic_string@DU?$char_traits@D@std@@V?$allocator@D@2@@std@@@2@V?$allocator@U?$pair@$$CBV?$basic_string@DU?$char_traits@D@std@@V?$allocator@D@2@@std@@V12@@std@@@2@$0A@@std@@@std@@QEAAXAEAV12@@Z 00000001400356e0 f i main.obj
 0001:00034720       ?_Thrd_startX@std@@YAHPEAU_Thrd_imp_t@@P6AIPEAX@Z1@Z 0000000140035720 f i main.obj
 0001:00034780       ?_Tidy@?$_Tree@V?$_Tmap_traits@HIU?$less@H@std@@V?$allocator@U?$pair@$$CBHI@std@@@2@$0A@@std@@@std@@IEAAXXZ 0000000140035780 f i main.obj
 0001:000347e0       ?_Tidy@?$_Tree@V?$_Tmap_traits@H_NU?$less@H@std@@V?$allocator@U?$pair@$$CBH_N@std@@@2@$0A@@std@@@std@@IEAAXXZ 00000001400357e0 f i main.obj
 0001:00034840       ?_Tidy@?$_Tree@V?$_Tmap_traits@V?$basic_string@DU?$char_traits@D@std@@V?$allocator@D@2@@std@@V12@U?$less@V?$basic_string@DU?$char_traits@D@std@@V?$allocator@D@2@@std@@@2@V?$allocator@U?$pair@$$CBV?$basic_string@DU?$char_traits@D@std@@V?$allocator@D@2@@std@@V12@@std@@@2@$0A@@std@@@std@@IEAAXXZ 0000000140035840 f i main.obj
 0001:000348a0       ?_Tidy@?$_Yarn@D@std@@AEAAXXZ 00000001400358a0 f i main.obj
 0001:000348a0       ?_Tidy@?$_Yarn@_W@std@@AEAAXXZ 00000001400358a0 f i main.obj
 0001:000348e0       ?_Tidy@?$basic_string@DU?$char_traits@D@std@@V?$allocator@D@2@@std@@QEAAX_N_K@Z 00000001400358e0 f i main.obj
 0001:000349f0       ?_Tidy@?$ctype@D@std@@IEAAXXZ 00000001400359f0 f i main.obj
 0001:00034a50       ?_Tidy@?$vector@DV?$allocator@D@std@@@std@@IEAAXXZ 0000000140035a50 f i main.obj
 0001:00034b40       ?_Traits_compare@?$basic_string@DU?$char_traits@D@std@@V?$allocator@D@2@@std@@SAHQEBD_K01@Z 0000000140035b40 f i main.obj
 0001:00034be0       ?_Unlock@?$basic_filebuf@DU?$char_traits@D@std@@@std@@UEAAXXZ 0000000140035be0 f i main.obj
 0001:00034c10       ??1?$_Immortalizer@V_Iostream_error_category@std@@@std@@QEAA@XZ 0000000140035c10 f i main.obj
 0001:00034c10       ?_Unlock@?$basic_streambuf@DU?$char_traits@D@std@@@std@@UEAAXXZ 0000000140035c10 f i main.obj
 0001:00034c10       ?_Lock@?$basic_streambuf@DU?$char_traits@D@std@@@std@@UEAAXXZ 0000000140035c10 f i main.obj
 0001:00034c10       ?_Orphan_all@_Container_base0@std@@QEAAXXZ 0000000140035c10 f i main.obj
 0001:00034c10       ??1_Bxty@?$_String_val@U?$_Simple_types@D@std@@@std@@QEAA@XZ 0000000140035c10 f i main.obj
 0001:00034c20       ?_Xlen@?$basic_string@DU?$char_traits@D@std@@V?$allocator@D@2@@std@@QEBAXXZ 0000000140035c20 f i main.obj
 0001:00034c40       ?_Xlen@?$vector@DV?$allocator@D@std@@@std@@IEBAXXZ 0000000140035c40 f i main.obj
 0001:00034c60       ?_Xran@?$basic_string@DU?$char_traits@D@std@@V?$allocator@D@2@@std@@QEBAXXZ 0000000140035c60 f i main.obj
 0001:00034c80       ?abs@@YAMM@Z               0000000140035c80 f i main.obj
 0001:00034ca0       ?address@?$_Wrap_alloc@V?$allocator@D@std@@@std@@QEBAPEADAEAD@Z 0000000140035ca0 f i main.obj
 0001:00034cc0       ?allocate@?$_Wrap_alloc@V?$allocator@D@std@@@std@@QEAAPEAD_K@Z 0000000140035cc0 f i main.obj
 0001:00034cf0       ?allocate@?$_Wrap_alloc@V?$allocator@U?$_Tree_node@U?$pair@$$CBH_N@std@@PEAX@std@@@std@@@std@@QEAAPEAU?$_Tree_node@U?$pair@$$CBH_N@std@@PEAX@2@_K@Z 0000000140035cf0 f i main.obj
 0001:00034cf0       ?allocate@?$_Wrap_alloc@V?$allocator@U?$_Tree_node@U?$pair@$$CBHI@std@@PEAX@std@@@std@@@std@@QEAAPEAU?$_Tree_node@U?$pair@$$CBHI@std@@PEAX@2@_K@Z 0000000140035cf0 f i main.obj
 0001:00034d20       ?allocate@?$_Wrap_alloc@V?$allocator@U?$_Tree_node@U?$pair@$$CBV?$basic_string@DU?$char_traits@D@std@@V?$allocator@D@2@@std@@V12@@std@@PEAX@std@@@std@@@std@@QEAAPEAU?$_Tree_node@U?$pair@$$CBV?$basic_string@DU?$char_traits@D@std@@V?$allocator@D@2@@std@@V12@@std@@PEAX@2@_K@Z 0000000140035d20 f i main.obj
 0001:00034d50       ?allocate@?$allocator@D@std@@QEAAPEAD_K@Z 0000000140035d50 f i main.obj
 0001:00034d80       ?allocate@?$allocator@U?$_Tree_node@U?$pair@$$CBH_N@std@@PEAX@std@@@std@@QEAAPEAU?$_Tree_node@U?$pair@$$CBH_N@std@@PEAX@2@_K@Z 0000000140035d80 f i main.obj
 0001:00034d80       ?allocate@?$allocator@U?$_Tree_node@U?$pair@$$CBHI@std@@PEAX@std@@@std@@QEAAPEAU?$_Tree_node@U?$pair@$$CBHI@std@@PEAX@2@_K@Z 0000000140035d80 f i main.obj
 0001:00034db0       ?allocate@?$allocator@U?$_Tree_node@U?$pair@$$CBV?$basic_string@DU?$char_traits@D@std@@V?$allocator@D@2@@std@@V12@@std@@PEAX@std@@@std@@QEAAPEAU?$_Tree_node@U?$pair@$$CBV?$basic_string@DU?$char_traits@D@std@@V?$allocator@D@2@@std@@V12@@std@@PEAX@2@_K@Z 0000000140035db0 f i main.obj
 0001:00034de0       ?always_noconv@codecvt_base@std@@QEBA_NXZ 0000000140035de0 f i main.obj
 0001:00034e00       ?append@?$basic_string@DU?$char_traits@D@std@@V?$allocator@D@2@@std@@QEAAAEAV12@AEBV12@@Z 0000000140035e00 f i main.obj
 0001:00034e30       ?append@?$basic_string@DU?$char_traits@D@std@@V?$allocator@D@2@@std@@QEAAAEAV12@AEBV12@_K1@Z 0000000140035e30 f i main.obj
 0001:00034f40       ?append@?$basic_string@DU?$char_traits@D@std@@V?$allocator@D@2@@std@@QEAAAEAV12@PEBD@Z 0000000140035f40 f i main.obj
 0001:00034f70       ?append@?$basic_string@DU?$char_traits@D@std@@V?$allocator@D@2@@std@@QEAAAEAV12@PEBD_K@Z 0000000140035f70 f i main.obj
 0001:00035080       ?append@?$basic_string@DU?$char_traits@D@std@@V?$allocator@D@2@@std@@QEAAAEAV12@_KD@Z 0000000140036080 f i main.obj
 0001:00035140       ?assign@?$basic_string@DU?$char_traits@D@std@@V?$allocator@D@2@@std@@QEAAAEAV12@AEBV12@@Z 0000000140036140 f i main.obj
 0001:00035170       ?assign@?$basic_string@DU?$char_traits@D@std@@V?$allocator@D@2@@std@@QEAAAEAV12@AEBV12@_K1@Z 0000000140036170 f i main.obj
 0001:00035260       ?assign@?$basic_string@DU?$char_traits@D@std@@V?$allocator@D@2@@std@@QEAAAEAV12@PEBD@Z 0000000140036260 f i main.obj
 0001:00035290       ?assign@?$basic_string@DU?$char_traits@D@std@@V?$allocator@D@2@@std@@QEAAAEAV12@PEBD_K@Z 0000000140036290 f i main.obj
 0001:00035340       ?assign@?$basic_string@DU?$char_traits@D@std@@V?$allocator@D@2@@std@@QEAAAEAV12@_KD@Z 0000000140036340 f i main.obj
 0001:000353c0       ?assign@?$char_traits@D@std@@SAPEADPEAD_KD@Z 00000001400363c0 f i main.obj
 0001:000353f0       ?assign@?$char_traits@D@std@@SAXAEADAEBD@Z 00000001400363f0 f i main.obj
 0001:00035410       ?begin@?$_Tree@V?$_Tmap_traits@HIU?$less@H@std@@V?$allocator@U?$pair@$$CBHI@std@@@2@$0A@@std@@@std@@QEAA?AV?$_Tree_iterator@V?$_Tree_val@U?$_Tree_simple_types@U?$pair@$$CBHI@std@@@std@@@std@@@2@XZ 0000000140036410 f i main.obj
 0001:00035470       ?begin@?$_Tree@V?$_Tmap_traits@H_NU?$less@H@std@@V?$allocator@U?$pair@$$CBH_N@std@@@2@$0A@@std@@@std@@QEAA?AV?$_Tree_iterator@V?$_Tree_val@U?$_Tree_simple_types@U?$pair@$$CBH_N@std@@@std@@@std@@@2@XZ 0000000140036470 f i main.obj
 0001:000354d0       ?begin@?$_Tree@V?$_Tmap_traits@V?$basic_string@DU?$char_traits@D@std@@V?$allocator@D@2@@std@@V12@U?$less@V?$basic_string@DU?$char_traits@D@std@@V?$allocator@D@2@@std@@@2@V?$allocator@U?$pair@$$CBV?$basic_string@DU?$char_traits@D@std@@V?$allocator@D@2@@std@@V12@@std@@@2@$0A@@std@@@std@@QEAA?AV?$_Tree_iterator@V?$_Tree_val@U?$_Tree_simple_types@U?$pair@$$CBV?$basic_string@DU?$char_traits@D@std@@V?$allocator@D@2@@std@@V12@@std@@@std@@@std@@@2@XZ 00000001400364d0 f i main.obj
 0001:00035530       ?begin@?$basic_string@DU?$char_traits@D@std@@V?$allocator@D@2@@std@@QEAA?AV?$_String_iterator@V?$_String_val@U?$_Simple_types@D@std@@@std@@@2@XZ 0000000140036530 f i main.obj
 0001:000355a0       ?begin@?$vector@DV?$allocator@D@std@@@std@@QEAA?AV?$_Vector_iterator@V?$_Vector_val@U?$_Simple_types@D@std@@@std@@@2@XZ 00000001400365a0 f i main.obj
 0001:00035600       ?c_str@?$_Yarn@D@std@@QEBAPEBDXZ 0000000140036600 f i main.obj
 0001:00035640       ?c_str@?$basic_string@DU?$char_traits@D@std@@V?$allocator@D@2@@std@@QEBAPEBDXZ 0000000140036640 f i main.obj
 0001:00035670       ?c_str@locale@std@@QEBAPEBDXZ 0000000140036670 f i main.obj
 0001:000356c0       ?call@?$compute_abs@M$00@detail@glm@@SAMM@Z 00000001400366c0 f i main.obj
 0001:00035710       ?call@?$compute_abs_vector@M$0A@Utvec4@glm@@$0A@@detail@glm@@SA?AU?$tvec4@M$0A@@3@AEBU43@@Z 0000000140036710 f i main.obj
 0001:00035740       ?call@?$compute_dot@Utvec2@glm@@M$0A@$0A@@detail@glm@@SAMAEBU?$tvec2@M$0A@@3@0@Z 0000000140036740 f i main.obj
 0001:00035780       ?call@?$compute_dot@Utvec3@glm@@M$0A@$0A@@detail@glm@@SAMAEBU?$tvec3@M$0A@@3@0@Z 0000000140036780 f i main.obj
 0001:000357c0       ?call@?$compute_floor@M$0A@Utvec4@glm@@$0A@@detail@glm@@SA?AU?$tvec4@M$0A@@3@AEBU43@@Z 00000001400367c0 f i main.obj
 0001:000357f0       ?call@?$compute_fract@M$0A@Utvec4@glm@@$0A@@detail@glm@@SA?AU?$tvec4@M$0A@@3@AEBU43@@Z 00000001400367f0 f i main.obj
 0001:00035830       ?call@?$compute_mix@MM@detail@glm@@SAMAEBM00@Z 0000000140036830 f i main.obj
 0001:00035880       ?call@?$compute_mix_scalar@MM$0A@Utvec2@glm@@$0A@@detail@glm@@SA?AU?$tvec2@M$0A@@3@AEBU43@0AEBM@Z 0000000140036880 f i main.obj
 0001:00035900       ?call@?$compute_mod@M$0A@Utvec4@glm@@$0A@@detail@glm@@SA?AU?$tvec4@M$0A@@3@AEBU43@0@Z 0000000140036900 f i main.obj
 0001:00035970       ?call@?$compute_normalize@M$0A@Utvec3@glm@@$0A@@detail@glm@@SA?AU?$tvec3@M$0A@@3@AEBU43@@Z 0000000140036970 f i main.obj
 0001:000359b0       ?call@?$compute_vec4_add@M$0A@$0A@@detail@glm@@SA?AU?$tvec4@M$0A@@3@AEBU43@0@Z 00000001400369b0 f i main.obj
 0001:00035a40       ?call@?$compute_vec4_div@M$0A@$0A@@detail@glm@@SA?AU?$tvec4@M$0A@@3@AEBU43@0@Z 0000000140036a40 f i main.obj
 0001:00035ad0       ?call@?$compute_vec4_mul@M$0A@$0A@@detail@glm@@SA?AU?$tvec4@M$0A@@3@AEBU43@0@Z 0000000140036ad0 f i main.obj
 0001:00035b60       ?call@?$compute_vec4_sub@M$0A@$0A@@detail@glm@@SA?AU?$tvec4@M$0A@@3@AEBU43@0@Z 0000000140036b60 f i main.obj
 0001:00035bf0       ?call@?$functor1@MM$0A@Utvec4@glm@@@detail@glm@@SA?AU?$tvec4@M$0A@@3@P6AMM@ZAEBU43@@Z 0000000140036bf0 f i main.obj
 0001:00035c90       ?clear@?$_Tree@V?$_Tmap_traits@HIU?$less@H@std@@V?$allocator@U?$pair@$$CBHI@std@@@2@$0A@@std@@@std@@QEAAXXZ 0000000140036c90 f i main.obj
 0001:00035d50       ?clear@?$_Tree@V?$_Tmap_traits@H_NU?$less@H@std@@V?$allocator@U?$pair@$$CBH_N@std@@@2@$0A@@std@@@std@@QEAAXXZ 0000000140036d50 f i main.obj
 0001:00035e10       ?clear@?$_Tree@V?$_Tmap_traits@V?$basic_string@DU?$char_traits@D@std@@V?$allocator@D@2@@std@@V12@U?$less@V?$basic_string@DU?$char_traits@D@std@@V?$allocator@D@2@@std@@@2@V?$allocator@U?$pair@$$CBV?$basic_string@DU?$char_traits@D@std@@V?$allocator@D@2@@std@@V12@@std@@@2@$0A@@std@@@std@@QEAAXXZ 0000000140036e10 f i main.obj
 0001:00035ed0       ?clear@?$basic_ios@DU?$char_traits@D@std@@@std@@QEAAXH_N@Z 0000000140036ed0 f i main.obj
 0001:00035f20       ?clear@ios_base@std@@QEAAXH@Z 0000000140036f20 f i main.obj
 0001:00035f50       ?clear@ios_base@std@@QEAAXH_N@Z 0000000140036f50 f i main.obj
 0001:000360b0       ?close@?$basic_filebuf@DU?$char_traits@D@std@@@std@@QEAAPEAV12@XZ 00000001400370b0 f i main.obj
 0001:00036140       ?close@?$basic_ifstream@DU?$char_traits@D@std@@@std@@QEAAXXZ 0000000140037140 f i main.obj
 0001:00036190       ?compare@?$basic_string@DU?$char_traits@D@std@@V?$allocator@D@2@@std@@QEBAHAEBV12@@Z 0000000140037190 f i main.obj
 0001:00036210       ?compare@?$char_traits@D@std@@SAHPEBD0_K@Z 0000000140037210 f i main.obj
 0001:00036260       ?copy@?$char_traits@D@std@@SAPEADPEADPEBD_K@Z 0000000140037260 f i main.obj
 0001:000362b0       ?cos@@YAMM@Z               00000001400372b0 f i main.obj
 0001:000362d0       ?count@?$duration@NU?$ratio@$00$00@std@@@chrono@std@@QEBANXZ 00000001400372d0 f i main.obj
 0001:000362e0       ?deallocate@?$_Wrap_alloc@V?$allocator@D@std@@@std@@QEAAXPEAD_K@Z 00000001400372e0 f i main.obj
 0001:00036310       ?deallocate@?$_Wrap_alloc@V?$allocator@U?$_Tree_node@U?$pair@$$CBHI@std@@PEAX@std@@@std@@@std@@QEAAXPEAU?$_Tree_node@U?$pair@$$CBHI@std@@PEAX@2@_K@Z 0000000140037310 f i main.obj
 0001:00036310       ?deallocate@?$_Wrap_alloc@V?$allocator@U?$_Tree_node@U?$pair@$$CBH_N@std@@PEAX@std@@@std@@@std@@QEAAXPEAU?$_Tree_node@U?$pair@$$CBH_N@std@@PEAX@2@_K@Z 0000000140037310 f i main.obj
 0001:00036340       ?deallocate@?$_Wrap_alloc@V?$allocator@U?$_Tree_node@U?$pair@$$CBV?$basic_string@DU?$char_traits@D@std@@V?$allocator@D@2@@std@@V12@@std@@PEAX@std@@@std@@@std@@QEAAXPEAU?$_Tree_node@U?$pair@$$CBV?$basic_string@DU?$char_traits@D@std@@V?$allocator@D@2@@std@@V12@@std@@PEAX@2@_K@Z 0000000140037340 f i main.obj
 0001:00036370       ?deallocate@?$allocator@D@std@@QEAAXPEAD_K@Z 0000000140037370 f i main.obj
 0001:000363a0       ?deallocate@?$allocator@U?$_Tree_node@U?$pair@$$CBHI@std@@PEAX@std@@@std@@QEAAXPEAU?$_Tree_node@U?$pair@$$CBHI@std@@PEAX@2@_K@Z 00000001400373a0 f i main.obj
 0001:000363a0       ?deallocate@?$allocator@U?$_Tree_node@U?$pair@$$CBH_N@std@@PEAX@std@@@std@@QEAAXPEAU?$_Tree_node@U?$pair@$$CBH_N@std@@PEAX@2@_K@Z 00000001400373a0 f i main.obj
 0001:000363d0       ?deallocate@?$allocator@U?$_Tree_node@U?$pair@$$CBV?$basic_string@DU?$char_traits@D@std@@V?$allocator@D@2@@std@@V12@@std@@PEAX@std@@@std@@QEAAXPEAU?$_Tree_node@U?$pair@$$CBV?$basic_string@DU?$char_traits@D@std@@V?$allocator@D@2@@std@@V12@@std@@PEAX@2@_K@Z 00000001400373d0 f i main.obj
 0001:00036400       ?default_error_condition@error_category@std@@UEBA?AVerror_condition@2@H@Z 0000000140037400 f i main.obj
 0001:00036430       ?do_always_noconv@?$codecvt@DDU_Mbstatet@@@std@@MEBA_NXZ 0000000140037430 f i main.obj
 0001:00036440       ?do_always_noconv@codecvt_base@std@@MEBA_NXZ 0000000140037440 f i main.obj
 0001:00036450       ?do_length@?$codecvt@DDU_Mbstatet@@@std@@MEBAHAEAU_Mbstatet@@PEBD1_K@Z 0000000140037450 f i main.obj
 0001:000364b0       ?do_max_length@codecvt_base@std@@MEBAHXZ 00000001400374b0 f i main.obj
 0001:000364b0       ?do_encoding@codecvt_base@std@@MEBAHXZ 00000001400374b0 f i main.obj
 0001:000364c0       ?do_narrow@?$ctype@D@std@@MEBADDD@Z 00000001400374c0 f i main.obj
 0001:000364e0       ?do_narrow@?$ctype@D@std@@MEBAPEBDPEBD0DPEAD@Z 00000001400374e0 f i main.obj
 0001:00036520       ?do_in@?$codecvt@DDU_Mbstatet@@@std@@MEBAHAEAU_Mbstatet@@PEBD1AEAPEBDPEAD3AEAPEAD@Z 0000000140037520 f i main.obj
 0001:00036520       ?do_out@?$codecvt@DDU_Mbstatet@@@std@@MEBAHAEAU_Mbstatet@@PEBD1AEAPEBDPEAD3AEAPEAD@Z 0000000140037520 f i main.obj
 0001:000365c0       ?do_tolower@?$ctype@D@std@@MEBADD@Z 00000001400375c0 f i main.obj
 0001:000365f0       ?do_tolower@?$ctype@D@std@@MEBAPEBDPEADPEBD@Z 00000001400375f0 f i main.obj
 0001:00036650       ?do_toupper@?$ctype@D@std@@MEBADD@Z 0000000140037650 f i main.obj
 0001:00036680       ?do_toupper@?$ctype@D@std@@MEBAPEBDPEADPEBD@Z 0000000140037680 f i main.obj
 0001:000366e0       ?do_unshift@?$codecvt@DDU_Mbstatet@@@std@@MEBAHAEAU_Mbstatet@@PEAD1AEAPEAD@Z 00000001400376e0 f i main.obj
 0001:00036710       ?do_widen@?$ctype@D@std@@MEBADD@Z 0000000140037710 f i main.obj
 0001:00036720       ?do_widen@?$ctype@D@std@@MEBAPEBDPEBD0PEAD@Z 0000000140037720 f i main.obj
 0001:00036760       ?eback@?$basic_streambuf@DU?$char_traits@D@std@@@std@@IEBAPEADXZ 0000000140037760 f i main.obj
 0001:00036780       ?egptr@?$basic_streambuf@DU?$char_traits@D@std@@@std@@IEBAPEADXZ 0000000140037780 f i main.obj
 0001:000367b0       ?empty@?$basic_string@DU?$char_traits@D@std@@V?$allocator@D@2@@std@@QEBA_NXZ 00000001400377b0 f i main.obj
 0001:000367f0       ?end@?$_Tree@V?$_Tmap_traits@HIU?$less@H@std@@V?$allocator@U?$pair@$$CBHI@std@@@2@$0A@@std@@@std@@QEAA?AV?$_Tree_iterator@V?$_Tree_val@U?$_Tree_simple_types@U?$pair@$$CBHI@std@@@std@@@std@@@2@XZ 00000001400377f0 f i main.obj
 0001:00036850       ?end@?$_Tree@V?$_Tmap_traits@H_NU?$less@H@std@@V?$allocator@U?$pair@$$CBH_N@std@@@2@$0A@@std@@@std@@QEAA?AV?$_Tree_iterator@V?$_Tree_val@U?$_Tree_simple_types@U?$pair@$$CBH_N@std@@@std@@@std@@@2@XZ 0000000140037850 f i main.obj
 0001:000368b0       ?end@?$_Tree@V?$_Tmap_traits@V?$basic_string@DU?$char_traits@D@std@@V?$allocator@D@2@@std@@V12@U?$less@V?$basic_string@DU?$char_traits@D@std@@V?$allocator@D@2@@std@@@2@V?$allocator@U?$pair@$$CBV?$basic_string@DU?$char_traits@D@std@@V?$allocator@D@2@@std@@V12@@std@@@2@$0A@@std@@@std@@QEAA?AV?$_Tree_iterator@V?$_Tree_val@U?$_Tree_simple_types@U?$pair@$$CBV?$basic_string@DU?$char_traits@D@std@@V?$allocator@D@2@@std@@V12@@std@@@std@@@std@@@2@XZ 00000001400378b0 f i main.obj
 0001:00036910       ?end@?$basic_string@DU?$char_traits@D@std@@V?$allocator@D@2@@std@@QEAA?AV?$_String_iterator@V?$_String_val@U?$_Simple_types@D@std@@@std@@@2@XZ 0000000140037910 f i main.obj
 0001:00036990       ?category@error_condition@std@@QEBAAEBVerror_category@2@XZ 0000000140037990 f i main.obj
 0001:00036990       ?seekpos@?$fpos@U_Mbstatet@@@std@@QEBA_JXZ 0000000140037990 f i main.obj
 0001:00036990       ?end@?$initializer_list@U?$pair@$$CBH_N@std@@@std@@QEBAPEBU?$pair@$$CBH_N@2@XZ 0000000140037990 f i main.obj
 0001:00036990       ?end@?$initializer_list@U?$pair@$$CBHI@std@@@std@@QEBAPEBU?$pair@$$CBHI@2@XZ 0000000140037990 f i main.obj
 0001:00036990       ?category@error_code@std@@QEBAAEBVerror_category@2@XZ 0000000140037990 f i main.obj
 0001:000369a0       ?end@?$vector@DV?$allocator@D@std@@@std@@QEAA?AV?$_Vector_iterator@V?$_Vector_val@U?$_Simple_types@D@std@@@std@@@2@XZ 00000001400379a0 f i main.obj
 0001:00036a00       ?eof@?$char_traits@D@std@@SAHXZ 0000000140037a00 f i main.obj
 0001:00036a10       ?epptr@?$basic_streambuf@DU?$char_traits@D@std@@@std@@IEBAPEADXZ 0000000140037a10 f i main.obj
 0001:00036a40       ?eq_int_type@?$char_traits@D@std@@SA_NAEBH0@Z 0000000140037a40 f i main.obj
 0001:00036a80       ?equivalent@error_category@std@@UEBA_NAEBVerror_code@2@H@Z 0000000140037a80 f i main.obj
 0001:00036ae0       ?equivalent@error_category@std@@UEBA_NHAEBVerror_condition@2@@Z 0000000140037ae0 f i main.obj
 0001:00036b20       ?erase@?$_Tree@V?$_Tmap_traits@HIU?$less@H@std@@V?$allocator@U?$pair@$$CBHI@std@@@2@$0A@@std@@@std@@QEAA?AV?$_Tree_iterator@V?$_Tree_val@U?$_Tree_simple_types@U?$pair@$$CBHI@std@@@std@@@std@@@2@V?$_Tree_const_iterator@V?$_Tree_val@U?$_Tree_simple_types@U?$pair@$$CBHI@std@@@std@@@std@@@2@0@Z 0000000140037b20 f i main.obj
 0001:00036c10       ?erase@?$_Tree@V?$_Tmap_traits@HIU?$less@H@std@@V?$allocator@U?$pair@$$CBHI@std@@@2@$0A@@std@@@std@@QEAA?AV?$_Tree_iterator@V?$_Tree_val@U?$_Tree_simple_types@U?$pair@$$CBHI@std@@@std@@@std@@@2@V?$_Tree_const_iterator@V?$_Tree_val@U?$_Tree_simple_types@U?$pair@$$CBHI@std@@@std@@@std@@@2@@Z 0000000140037c10 f i main.obj
 0001:00036c10       ?erase@?$_Tree@V?$_Tmap_traits@H_NU?$less@H@std@@V?$allocator@U?$pair@$$CBH_N@std@@@2@$0A@@std@@@std@@QEAA?AV?$_Tree_iterator@V?$_Tree_val@U?$_Tree_simple_types@U?$pair@$$CBH_N@std@@@std@@@std@@@2@V?$_Tree_const_iterator@V?$_Tree_val@U?$_Tree_simple_types@U?$pair@$$CBH_N@std@@@std@@@std@@@2@@Z 0000000140037c10 f i main.obj
 0001:00037450       ?erase@?$_Tree@V?$_Tmap_traits@H_NU?$less@H@std@@V?$allocator@U?$pair@$$CBH_N@std@@@2@$0A@@std@@@std@@QEAA?AV?$_Tree_iterator@V?$_Tree_val@U?$_Tree_simple_types@U?$pair@$$CBH_N@std@@@std@@@std@@@2@V?$_Tree_const_iterator@V?$_Tree_val@U?$_Tree_simple_types@U?$pair@$$CBH_N@std@@@std@@@std@@@2@0@Z 0000000140038450 f i main.obj
 0001:00037540       ?erase@?$_Tree@V?$_Tmap_traits@V?$basic_string@DU?$char_traits@D@std@@V?$allocator@D@2@@std@@V12@U?$less@V?$basic_string@DU?$char_traits@D@std@@V?$allocator@D@2@@std@@@2@V?$allocator@U?$pair@$$CBV?$basic_string@DU?$char_traits@D@std@@V?$allocator@D@2@@std@@V12@@std@@@2@$0A@@std@@@std@@QEAA?AV?$_Tree_iterator@V?$_Tree_val@U?$_Tree_simple_types@U?$pair@$$CBV?$basic_string@DU?$char_traits@D@std@@V?$allocator@D@2@@std@@V12@@std@@@std@@@std@@@2@V?$_Tree_const_iterator@V?$_Tree_val@U?$_Tree_simple_types@U?$pair@$$CBV?$basic_string@DU?$char_traits@D@std@@V?$allocator@D@2@@std@@V12@@std@@@std@@@std@@@2@0@Z 0000000140038540 f i main.obj
 0001:00037630       ?erase@?$_Tree@V?$_Tmap_traits@V?$basic_string@DU?$char_traits@D@std@@V?$allocator@D@2@@std@@V12@U?$less@V?$basic_string@DU?$char_traits@D@std@@V?$allocator@D@2@@std@@@2@V?$allocator@U?$pair@$$CBV?$basic_string@DU?$char_traits@D@std@@V?$allocator@D@2@@std@@V12@@std@@@2@$0A@@std@@@std@@QEAA?AV?$_Tree_iterator@V?$_Tree_val@U?$_Tree_simple_types@U?$pair@$$CBV?$basic_string@DU?$char_traits@D@std@@V?$allocator@D@2@@std@@V12@@std@@@std@@@std@@@2@V?$_Tree_const_iterator@V?$_Tree_val@U?$_Tree_simple_types@U?$pair@$$CBV?$basic_string@DU?$char_traits@D@std@@V?$allocator@D@2@@std@@V12@@std@@@std@@@std@@@2@@Z 0000000140038630 f i main.obj
 0001:00037e70       ?erase@?$basic_string@DU?$char_traits@D@std@@V?$allocator@D@2@@std@@QEAAAEAV12@_K0@Z 0000000140038e70 f i main.obj
 0001:00037f40       ?erase@?$basic_string@DU?$char_traits@D@std@@V?$allocator@D@2@@std@@QEAAAEAV12@_K@Z 0000000140038f40 f i main.obj
 0001:00037f80       ?fail@ios_base@std@@QEBA_NXZ 0000000140038f80 f i main.obj
 0001:00037fc0       ?fill@?$basic_ios@DU?$char_traits@D@std@@@std@@QEBADXZ 0000000140038fc0 f i main.obj
 0001:00037fd0       ?find@?$char_traits@D@std@@SAPEBDPEBD_KAEBD@Z 0000000140038fd0 f i main.obj
 0001:00038020       ?find_first_of@?$basic_string@DU?$char_traits@D@std@@V?$allocator@D@2@@std@@QEBA_KPEBD_K1@Z 0000000140039020 f i main.obj
 0001:00038100       ?find_first_of@?$basic_string@DU?$char_traits@D@std@@V?$allocator@D@2@@std@@QEBA_KPEBD_K@Z 0000000140039100 f i main.obj
 0001:00038140       ?find_last_of@?$basic_string@DU?$char_traits@D@std@@V?$allocator@D@2@@std@@QEBA_KPEBD_K1@Z 0000000140039140 f i main.obj
 0001:00038230       ?find_last_of@?$basic_string@DU?$char_traits@D@std@@V?$allocator@D@2@@std@@QEBA_KPEBD_K@Z 0000000140039230 f i main.obj
 0001:00038270       ?flags@ios_base@std@@QEBAHXZ 0000000140039270 f i main.obj
 0001:00038280       ?floor@@YAMM@Z             0000000140039280 f i main.obj
 0001:000382a0       ?flush@?$basic_ostream@DU?$char_traits@D@std@@@std@@QEAAAEAV12@XZ 00000001400392a0 f i main.obj
 0001:00038360       ?gbump@?$basic_streambuf@DU?$char_traits@D@std@@@std@@IEAAXH@Z 0000000140039360 f i main.obj
 0001:000383b0       ?get@?$unique_ptr@V?$tuple@P6AXPEAUasset_manager@@@ZPEAU1@@std@@U?$default_delete@V?$tuple@P6AXPEAUasset_manager@@@ZPEAU1@@std@@@2@@std@@QEBAPEAV?$tuple@P6AXPEAUasset_manager@@@ZPEAU1@@2@XZ 00000001400393b0 f i main.obj
 0001:000383d0       ?get_allocator@?$basic_string@DU?$char_traits@D@std@@V?$allocator@D@2@@std@@QEBA?AV?$allocator@D@2@XZ 00000001400393d0 f i main.obj
 0001:00038410       ?getloc@?$basic_streambuf@DU?$char_traits@D@std@@@std@@QEBA?AVlocale@2@XZ 0000000140039410 f i main.obj
 0001:00038450       ?getloc@ios_base@std@@QEBA?AVlocale@2@XZ 0000000140039450 f i main.obj
 0001:00038490       ?good@ios_base@std@@QEBA_NXZ 0000000140039490 f i main.obj
 0001:000384d0       ?gptr@?$basic_streambuf@DU?$char_traits@D@std@@@std@@IEBAPEADXZ 00000001400394d0 f i main.obj
 0001:000384f0       ?imbue@?$basic_filebuf@DU?$char_traits@D@std@@@std@@MEAAXAEBVlocale@2@@Z 00000001400394f0 f i main.obj
 0001:00038520       ?in@?$codecvt@DDU_Mbstatet@@@std@@QEBAHAEAU_Mbstatet@@PEBD1AEAPEBDPEAD3AEAPEAD@Z 0000000140039520 f i main.obj
 0001:00038590       ?init@?$basic_ios@DU?$char_traits@D@std@@@std@@IEAAXPEAV?$basic_streambuf@DU?$char_traits@D@std@@@2@_N@Z 0000000140039590 f i main.obj
 0001:00038620       ?insert@?$_Tree@V?$_Tmap_traits@HIU?$less@H@std@@V?$allocator@U?$pair@$$CBHI@std@@@2@$0A@@std@@@std@@QEAAXV?$initializer_list@U?$pair@$$CBHI@std@@@2@@Z 0000000140039620 f i main.obj
 0001:00038670       ?insert@?$_Tree@V?$_Tmap_traits@H_NU?$less@H@std@@V?$allocator@U?$pair@$$CBH_N@std@@@2@$0A@@std@@@std@@QEAAXV?$initializer_list@U?$pair@$$CBH_N@std@@@2@@Z 0000000140039670 f i main.obj
 0001:000386c0       ?insert@?$basic_string@DU?$char_traits@D@std@@V?$allocator@D@2@@std@@QEAAAEAV12@_KAEBV12@00@Z 00000001400396c0 f i main.obj
 0001:000388b0       ?insert@?$basic_string@DU?$char_traits@D@std@@V?$allocator@D@2@@std@@QEAAAEAV12@_KAEBV12@@Z 00000001400398b0 f i main.obj
 0001:000388f0       ?iostream_category@std@@YAAEBVerror_category@1@XZ 00000001400398f0 f i main.obj
 0001:00038910       ?is@?$ctype@D@std@@QEBA_NFD@Z 0000000140039910 f i main.obj
 0001:00038960       ?joinable@thread@std@@QEBA_NXZ 0000000140039960 f i main.obj
 0001:00038990       ?key_comp@?$_Tree@V?$_Tmap_traits@V?$basic_string@DU?$char_traits@D@std@@V?$allocator@D@2@@std@@V12@U?$less@V?$basic_string@DU?$char_traits@D@std@@V?$allocator@D@2@@std@@@2@V?$allocator@U?$pair@$$CBV?$basic_string@DU?$char_traits@D@std@@V?$allocator@D@2@@std@@V12@@std@@@2@$0A@@std@@@std@@QEBA?AU?$less@V?$basic_string@DU?$char_traits@D@std@@V?$allocator@D@2@@std@@@2@XZ 0000000140039990 f i main.obj
 0001:000389c0       ?ldexp@@YAMMH@Z            00000001400399c0 f i main.obj
 0001:000389f0       ?length@?$char_traits@D@std@@SA_KPEBD@Z 00000001400399f0 f i main.obj
 0001:00038a50       ?length@?$tvec3@M$0A@@glm@@SAHXZ 0000000140039a50 f i main.obj
 0001:00038a60       ?length@?$tmat4x4@M$0A@@glm@@SAHXZ 0000000140039a60 f i main.obj
 0001:00038a60       ?length@?$tvec4@M$0A@@glm@@SAHXZ 0000000140039a60 f i main.obj
 0001:00038a70       ?lower_bound@?$_Tree@V?$_Tmap_traits@H_NU?$less@H@std@@V?$allocator@U?$pair@$$CBH_N@std@@@2@$0A@@std@@@std@@QEAA?AV?$_Tree_iterator@V?$_Tree_val@U?$_Tree_simple_types@U?$pair@$$CBH_N@std@@@std@@@std@@@2@AEBH@Z 0000000140039a70 f i main.obj
 0001:00038a70       ?lower_bound@?$_Tree@V?$_Tmap_traits@HIU?$less@H@std@@V?$allocator@U?$pair@$$CBHI@std@@@2@$0A@@std@@@std@@QEAA?AV?$_Tree_iterator@V?$_Tree_val@U?$_Tree_simple_types@U?$pair@$$CBHI@std@@@std@@@std@@@2@AEBH@Z 0000000140039a70 f i main.obj
 0001:00038ac0       ?lower_bound@?$_Tree@V?$_Tmap_traits@V?$basic_string@DU?$char_traits@D@std@@V?$allocator@D@2@@std@@V12@U?$less@V?$basic_string@DU?$char_traits@D@std@@V?$allocator@D@2@@std@@@2@V?$allocator@U?$pair@$$CBV?$basic_string@DU?$char_traits@D@std@@V?$allocator@D@2@@std@@V12@@std@@@2@$0A@@std@@@std@@QEAA?AV?$_Tree_iterator@V?$_Tree_val@U?$_Tree_simple_types@U?$pair@$$CBV?$basic_string@DU?$char_traits@D@std@@V?$allocator@D@2@@std@@V12@@std@@@std@@@std@@@2@AEBV?$basic_string@DU?$char_traits@D@std@@V?$allocator@D@2@@2@@Z 0000000140039ac0 f i main.obj
 0001:00038b10       ?make_error_code@std@@YA?AVerror_code@1@W4io_errc@1@@Z 0000000140039b10 f i main.obj
 0001:00038b40       ?max_size@?$_Tree@V?$_Tmap_traits@HIU?$less@H@std@@V?$allocator@U?$pair@$$CBHI@std@@@2@$0A@@std@@@std@@QEBA_KXZ 0000000140039b40 f i main.obj
 0001:00038b40       ?max_size@?$_Tree@V?$_Tmap_traits@H_NU?$less@H@std@@V?$allocator@U?$pair@$$CBH_N@std@@@2@$0A@@std@@@std@@QEBA_KXZ 0000000140039b40 f i main.obj
 0001:00038b70       ?max_size@?$_Tree@V?$_Tmap_traits@V?$basic_string@DU?$char_traits@D@std@@V?$allocator@D@2@@std@@V12@U?$less@V?$basic_string@DU?$char_traits@D@std@@V?$allocator@D@2@@std@@@2@V?$allocator@U?$pair@$$CBV?$basic_string@DU?$char_traits@D@std@@V?$allocator@D@2@@std@@V12@@std@@@2@$0A@@std@@@std@@QEBA_KXZ 0000000140039b70 f i main.obj
 0001:00038ba0       ?max_size@?$_Wrap_alloc@V?$allocator@D@std@@@std@@QEBA_KU_Nil@2@@Z 0000000140039ba0 f i main.obj
 0001:00038bc0       ?max_size@?$_Wrap_alloc@V?$allocator@U?$_Tree_node@U?$pair@$$CBH_N@std@@PEAX@std@@@std@@@std@@QEBA_KU_Nil@2@@Z 0000000140039bc0 f i main.obj
 0001:00038bc0       ?max_size@?$_Wrap_alloc@V?$allocator@U?$_Tree_node@U?$pair@$$CBHI@std@@PEAX@std@@@std@@@std@@QEBA_KU_Nil@2@@Z 0000000140039bc0 f i main.obj
 0001:00038be0       ?max_size@?$_Wrap_alloc@V?$allocator@U?$_Tree_node@U?$pair@$$CBV?$basic_string@DU?$char_traits@D@std@@V?$allocator@D@2@@std@@V12@@std@@PEAX@std@@@std@@@std@@QEBA_KU_Nil@2@@Z 0000000140039be0 f i main.obj
 0001:00038c00       ?max_size@?$allocator@D@std@@QEBA_KXZ 0000000140039c00 f i main.obj
 0001:00038c10       ?max_size@?$allocator@U?$_Tree_node@U?$pair@$$CBH_N@std@@PEAX@std@@@std@@QEBA_KXZ 0000000140039c10 f i main.obj
 0001:00038c10       ?max_size@?$allocator@U?$_Tree_node@U?$pair@$$CBHI@std@@PEAX@std@@@std@@QEBA_KXZ 0000000140039c10 f i main.obj
 0001:00038c20       ?max_size@?$allocator@U?$_Tree_node@U?$pair@$$CBV?$basic_string@DU?$char_traits@D@std@@V?$allocator@D@2@@std@@V12@@std@@PEAX@std@@@std@@QEBA_KXZ 0000000140039c20 f i main.obj
 0001:00038c30       ?max_size@?$allocator_traits@V?$allocator@D@std@@@std@@SA_KAEBV?$allocator@D@2@@Z 0000000140039c30 f i main.obj
 0001:00038c50       ?max_size@?$allocator_traits@V?$allocator@U?$_Tree_node@U?$pair@$$CBH_N@std@@PEAX@std@@@std@@@std@@SA_KAEBV?$allocator@U?$_Tree_node@U?$pair@$$CBH_N@std@@PEAX@std@@@2@@Z 0000000140039c50 f i main.obj
 0001:00038c50       ?max_size@?$allocator_traits@V?$allocator@U?$_Tree_node@U?$pair@$$CBHI@std@@PEAX@std@@@std@@@std@@SA_KAEBV?$allocator@U?$_Tree_node@U?$pair@$$CBHI@std@@PEAX@std@@@2@@Z 0000000140039c50 f i main.obj
 0001:00038c70       ?max_size@?$allocator_traits@V?$allocator@U?$_Tree_node@U?$pair@$$CBV?$basic_string@DU?$char_traits@D@std@@V?$allocator@D@2@@std@@V12@@std@@PEAX@std@@@std@@@std@@SA_KAEBV?$allocator@U?$_Tree_node@U?$pair@$$CBV?$basic_string@DU?$char_traits@D@std@@V?$allocator@D@2@@std@@V12@@std@@PEAX@std@@@2@@Z 0000000140039c70 f i main.obj
 0001:00038c90       ?max_size@?$basic_string@DU?$char_traits@D@std@@V?$allocator@D@2@@std@@QEBA_KXZ 0000000140039c90 f i main.obj
 0001:00038ce0       ?max_size@?$vector@DV?$allocator@D@std@@@std@@QEBA_KXZ 0000000140039ce0 f i main.obj
 0001:00038d10       ?message@_Generic_error_category@std@@UEBA?AV?$basic_string@DU?$char_traits@D@std@@V?$allocator@D@2@@2@H@Z 0000000140039d10 f i main.obj
 0001:00038d60       ?message@_Iostream_error_category@std@@UEBA?AV?$basic_string@DU?$char_traits@D@std@@V?$allocator@D@2@@2@H@Z 0000000140039d60 f i main.obj
 0001:00038dd0       ?message@error_code@std@@QEBA?AV?$basic_string@DU?$char_traits@D@std@@V?$allocator@D@2@@2@XZ 0000000140039dd0 f i main.obj
 0001:00038e40       ?move@?$char_traits@D@std@@SAPEADPEADPEBD_K@Z 0000000140039e40 f i main.obj
 0001:00038e90       ?name@_Generic_error_category@std@@UEBAPEBDXZ 0000000140039e90 f i main.obj
 0001:00038ea0       ?name@_Iostream_error_category@std@@UEBAPEBDXZ 0000000140039ea0 f i main.obj
 0001:00038eb0       ?not_eof@?$char_traits@D@std@@SAHAEBH@Z 0000000140039eb0 f i main.obj
 0001:00038f00       ?now@system_clock@chrono@std@@SA?AV?$time_point@Usystem_clock@chrono@std@@V?$duration@_JU?$ratio@$00$0JIJGIA@@std@@@23@@23@XZ 0000000140039f00 f i main.obj
 0001:00038f50       ?open@?$basic_filebuf@DU?$char_traits@D@std@@@std@@QEAAPEAV12@PEBDHH@Z 0000000140039f50 f i main.obj
 0001:00039010       ?out@?$codecvt@DDU_Mbstatet@@@std@@QEBAHAEAU_Mbstatet@@PEBD1AEAPEBDPEAD3AEAPEAD@Z 000000014003a010 f i main.obj
 0001:00039080       ?overflow@?$basic_filebuf@DU?$char_traits@D@std@@@std@@MEAAHH@Z 000000014003a080 f i main.obj
 0001:000394c0       ?pbackfail@?$basic_streambuf@DU?$char_traits@D@std@@@std@@MEAAHH@Z 000000014003a4c0 f i main.obj
 0001:000394c0       ?overflow@?$basic_streambuf@DU?$char_traits@D@std@@@std@@MEAAHH@Z 000000014003a4c0 f i main.obj
 0001:000394e0       ?pbackfail@?$basic_filebuf@DU?$char_traits@D@std@@@std@@MEAAHH@Z 000000014003a4e0 f i main.obj
 0001:00039660       ?pbump@?$basic_streambuf@DU?$char_traits@D@std@@@std@@IEAAXH@Z 000000014003a660 f i main.obj
 0001:000396b0       ?pow@@YAMMM@Z              000000014003a6b0 f i main.obj
 0001:000396e0       ?pptr@?$basic_streambuf@DU?$char_traits@D@std@@@std@@IEBAPEADXZ 000000014003a6e0 f i main.obj
 0001:00039700       ?pubsync@?$basic_streambuf@DU?$char_traits@D@std@@@std@@QEAAHXZ 000000014003a700 f i main.obj
 0001:00039720       ?put@?$basic_ostream@DU?$char_traits@D@std@@@std@@QEAAAEAV12@D@Z 000000014003a720 f i main.obj
 0001:00039820       ?rdbuf@?$basic_ios@DU?$char_traits@D@std@@@std@@QEBAPEAV?$basic_streambuf@DU?$char_traits@D@std@@@2@XZ 000000014003a820 f i main.obj
 0001:00039830       ?rdstate@ios_base@std@@QEBAHXZ 000000014003a830 f i main.obj
 0001:00039840       ?release@?$unique_ptr@V?$tuple@P6AXPEAUasset_manager@@@ZPEAU1@@std@@U?$default_delete@V?$tuple@P6AXPEAUasset_manager@@@ZPEAU1@@std@@@2@@std@@QEAAPEAV?$tuple@P6AXPEAUasset_manager@@@ZPEAU1@@2@XZ 000000014003a840 f i main.obj
 0001:00039880       ?replace@?$basic_string@DU?$char_traits@D@std@@V?$allocator@D@2@@std@@QEAAAEAV12@V?$_String_const_iterator@V?$_String_val@U?$_Simple_types@D@std@@@std@@@2@0V?$_String_iterator@V?$_String_val@U?$_Simple_types@D@std@@@std@@@2@1@Z 000000014003a880 f i main.obj
 0001:000399a0       ?replace@?$basic_string@DU?$char_traits@D@std@@V?$allocator@D@2@@std@@QEAAAEAV12@_K0AEBV12@00@Z 000000014003a9a0 f i main.obj
 0001:00039fa0       ?replace@?$basic_string@DU?$char_traits@D@std@@V?$allocator@D@2@@std@@QEAAAEAV12@_K0PEBD0@Z 000000014003afa0 f i main.obj
 0001:0003a200       ?sbumpc@?$basic_streambuf@DU?$char_traits@D@std@@@std@@QEAAHXZ 000000014003b200 f i main.obj
 0001:0003a250       ?seekoff@?$basic_filebuf@DU?$char_traits@D@std@@@std@@MEAA?AV?$fpos@U_Mbstatet@@@2@_JHH@Z 000000014003b250 f i main.obj
 0001:0003a350       ?seekoff@?$basic_streambuf@DU?$char_traits@D@std@@@std@@MEAA?AV?$fpos@U_Mbstatet@@@2@_JHH@Z 000000014003b350 f i main.obj
 0001:0003a350       ?seekpos@?$basic_streambuf@DU?$char_traits@D@std@@@std@@MEAA?AV?$fpos@U_Mbstatet@@@2@V32@H@Z 000000014003b350 f i main.obj
 0001:0003a390       ?seekpos@?$basic_filebuf@DU?$char_traits@D@std@@@std@@MEAA?AV?$fpos@U_Mbstatet@@@2@V32@H@Z 000000014003b390 f i main.obj
 0001:0003a4b0       ?select_on_container_copy_construction@?$_Wrap_alloc@V?$allocator@D@std@@@std@@QEBA?AU12@U_Nil@2@@Z 000000014003b4b0 f i main.obj
 0001:0003a4f0       ?select_on_container_copy_construction@?$allocator_traits@V?$allocator@D@std@@@std@@SA?AV?$allocator@D@2@AEBV32@@Z 000000014003b4f0 f i main.obj
 0001:0003a520       ?setbuf@?$basic_filebuf@DU?$char_traits@D@std@@@std@@MEAAPEAV?$basic_streambuf@DU?$char_traits@D@std@@@2@PEAD_J@Z 000000014003b520 f i main.obj
 0001:0003a5c0       ?setbuf@?$basic_streambuf@DU?$char_traits@D@std@@@std@@MEAAPEAV12@PEAD_J@Z 000000014003b5c0 f i main.obj
 0001:0003a5e0       ?setg@?$basic_streambuf@DU?$char_traits@D@std@@@std@@IEAAXPEAD00@Z 000000014003b5e0 f i main.obj
 0001:0003a640       ?setp@?$basic_streambuf@DU?$char_traits@D@std@@@std@@IEAAXPEAD0@Z 000000014003b640 f i main.obj
 0001:0003a690       ?setstate@?$basic_ios@DU?$char_traits@D@std@@@std@@QEAAXH_N@Z 000000014003b690 f i main.obj
 0001:0003a6d0       ?sgetc@?$basic_streambuf@DU?$char_traits@D@std@@@std@@QEAAHXZ 000000014003b6d0 f i main.obj
 0001:0003a720       ?sin@@YAMM@Z               000000014003b720 f i main.obj
 0001:0003a740       ?size@?$_Tree@V?$_Tmap_traits@HIU?$less@H@std@@V?$allocator@U?$pair@$$CBHI@std@@@2@$0A@@std@@@std@@QEBA_KXZ 000000014003b740 f i main.obj
 0001:0003a740       ?size@?$_Tree@V?$_Tmap_traits@H_NU?$less@H@std@@V?$allocator@U?$pair@$$CBH_N@std@@@2@$0A@@std@@@std@@QEBA_KXZ 000000014003b740 f i main.obj
 0001:0003a740       ?size@?$_Tree@V?$_Tmap_traits@V?$basic_string@DU?$char_traits@D@std@@V?$allocator@D@2@@std@@V12@U?$less@V?$basic_string@DU?$char_traits@D@std@@V?$allocator@D@2@@std@@@2@V?$allocator@U?$pair@$$CBV?$basic_string@DU?$char_traits@D@std@@V?$allocator@D@2@@std@@V12@@std@@@2@$0A@@std@@@std@@QEBA_KXZ 000000014003b740 f i main.obj
 0001:0003a760       ?size@?$basic_string@DU?$char_traits@D@std@@V?$allocator@D@2@@std@@QEBA_KXZ 000000014003b760 f i main.obj
 0001:0003a780       ?sleep_until@this_thread@std@@YAXPEBUxtime@@@Z 000000014003b780 f i main.obj
 0001:0003a7a0       ?snextc@?$basic_streambuf@DU?$char_traits@D@std@@@std@@QEAAHXZ 000000014003b7a0 f i main.obj
 0001:0003a830       ?sputc@?$basic_streambuf@DU?$char_traits@D@std@@@std@@QEAAHD@Z 000000014003b830 f i main.obj
 0001:0003a8b0       ?sputn@?$basic_streambuf@DU?$char_traits@D@std@@@std@@QEAA_JPEBD_J@Z 000000014003b8b0 f i main.obj
 0001:0003a8f0       ?sqrt@@YAMM@Z              000000014003b8f0 f i main.obj
 0001:0003a910       ?state@?$fpos@U_Mbstatet@@@std@@QEBA?AU_Mbstatet@@XZ 000000014003b910 f i main.obj
 0001:0003a940       ?substr@?$basic_string@DU?$char_traits@D@std@@V?$allocator@D@2@@std@@QEBA?AV12@_K0@Z 000000014003b940 f i main.obj
 0001:0003a9b0       ?sync@?$basic_filebuf@DU?$char_traits@D@std@@@std@@MEAAHXZ 000000014003b9b0 f i main.obj
 0001:0003aa40       ?showmanyc@?$basic_streambuf@DU?$char_traits@D@std@@@std@@MEAA_JXZ 000000014003ba40 f i main.obj
 0001:0003aa40       ?sync@?$basic_streambuf@DU?$char_traits@D@std@@@std@@MEAAHXZ 000000014003ba40 f i main.obj
 0001:0003aa50       ?tie@?$basic_ios@DU?$char_traits@D@std@@@std@@QEBAPEAV?$basic_ostream@DU?$char_traits@D@std@@@2@XZ 000000014003ba50 f i main.obj
 0001:0003aa60       ?time_since_epoch@?$time_point@Usystem_clock@chrono@std@@V?$duration@_JU?$ratio@$00$0JIJGIA@@std@@@23@@chrono@std@@QEBA?AV?$duration@_JU?$ratio@$00$0JIJGIA@@std@@@23@XZ 000000014003ba60 f i main.obj
 0001:0003aa80       ?to_char_type@?$char_traits@D@std@@SADAEBH@Z 000000014003ba80 f i main.obj
 0001:0003aa80       ?to_int_type@?$char_traits@D@std@@SAHAEBD@Z 000000014003ba80 f i main.obj
 0001:0003aa90       ?uflow@?$basic_filebuf@DU?$char_traits@D@std@@@std@@MEAAHXZ 000000014003ba90 f i main.obj
 0001:0003aea0       ?uflow@?$basic_streambuf@DU?$char_traits@D@std@@@std@@MEAAHXZ 000000014003bea0 f i main.obj
 0001:0003af10       ?underflow@?$basic_filebuf@DU?$char_traits@D@std@@@std@@MEAAHXZ 000000014003bf10 f i main.obj
 0001:0003afc0       ?underflow@?$basic_streambuf@DU?$char_traits@D@std@@@std@@MEAAHXZ 000000014003bfc0 f i main.obj
 0001:0003afe0       ?unshift@?$codecvt@DDU_Mbstatet@@@std@@QEBAHAEAU_Mbstatet@@PEAD1AEAPEAD@Z 000000014003bfe0 f i main.obj
 0001:0003b030       ?value@error_condition@std@@QEBAHXZ 000000014003c030 f i main.obj
 0001:0003b030       ?value@error_code@std@@QEBAHXZ 000000014003c030 f i main.obj
 0001:0003b040       ?what@exception@std@@UEBAPEBDXZ 000000014003c040 f i main.obj
 0001:0003b080       ?widen@?$basic_ios@DU?$char_traits@D@std@@@std@@QEBADD@Z 000000014003c080 f i main.obj
 0001:0003b0f0       ?widen@?$ctype@D@std@@QEBADD@Z 000000014003c0f0 f i main.obj
 0001:0003b120       ?width@ios_base@std@@QEAA_J_J@Z 000000014003c120 f i main.obj
 0001:0003b160       ?width@ios_base@std@@QEBA_JXZ 000000014003c160 f i main.obj
 0001:0003b170       ?xsgetn@?$basic_streambuf@DU?$char_traits@D@std@@@std@@MEAA_JPEAD_J@Z 000000014003c170 f i main.obj
 0001:0003b2c0       ?xsputn@?$basic_streambuf@DU?$char_traits@D@std@@@std@@MEAA_JPEBD_J@Z 000000014003c2c0 f i main.obj
 0001:0003b410       ?zero@?$duration@NU?$ratio@$00$00@std@@@chrono@std@@SA?AV123@XZ 000000014003c410 f i main.obj
 0001:0003b440       ?zero@?$duration_values@N@chrono@std@@SANXZ 000000014003c440 f i main.obj
 0001:0003b450       __local_stdio_printf_options 000000014003c450 f i main.obj
 0001:0003b460       _vfprintf_l                000000014003c460 f i main.obj
 0001:0003b4b0       fabsf                      000000014003c4b0 f i main.obj
 0001:0003b4d0       fprintf                    000000014003c4d0 f i main.obj
 0001:0003b530       ldexpf                     000000014003c530 f i main.obj
 0001:0003b560       printf                     000000014003c560 f i main.obj
 0001:0003b5c0       gladLoadGL                 000000014003c5c0 f   glad.obj
 0001:0003b600       gladLoadGLLoader           000000014003c600 f   glad.obj
 0001:0004fb80       __local_stdio_scanf_options 0000000140050b80 f i glad.obj
 0001:0004fb90       _vsscanf_s_l               0000000140050b90 f i glad.obj
 0001:0004fbf0       sscanf_s                   0000000140050bf0 f i glad.obj
 0001:0004fc40       vsscanf_s                  0000000140050c40 f i glad.obj
 0001:0004fc70       _glfwInputError            0000000140050c70 f   glfw3:init.c.obj
 0001:0004fe00       glfwInit                   0000000140050e00 f   glfw3:init.c.obj
 0001:0004fe70       glfwSetErrorCallback       0000000140050e70 f   glfw3:init.c.obj
 0001:0004fe80       glfwTerminate              0000000140050e80 f   glfw3:init.c.obj
 0001:0004ff90       _glfwAllocMonitor          0000000140050f90 f   glfw3:monitor.c.obj
 0001:0004fff0       _glfwChooseVideoMode       0000000140050ff0 f   glfw3:monitor.c.obj
 0001:00050120       _glfwCompareVideoModes     0000000140051120 f   glfw3:monitor.c.obj
 0001:00050170       _glfwFreeMonitor           0000000140051170 f   glfw3:monitor.c.obj
 0001:00050210       _glfwFreeMonitors          0000000140051210 f   glfw3:monitor.c.obj
 0001:000502f0       _glfwInputMonitorChange    00000001400512f0 f   glfw3:monitor.c.obj
 0001:00050500       _glfwInputMonitorWindowChange 0000000140051500 f   glfw3:monitor.c.obj
 0001:00050510       _glfwSplitBPP              0000000140051510 f   glfw3:monitor.c.obj
 0001:00050560       glfwGetPrimaryMonitor      0000000140051560 f   glfw3:monitor.c.obj
 0001:000505a0       glfwGetVideoMode           00000001400515a0 f   glfw3:monitor.c.obj
 0001:00050660       _glfwInputFramebufferSize  0000000140051660 f   glfw3:window.c.obj
 0001:00050670       _glfwInputWindowCloseRequest 0000000140051670 f   glfw3:window.c.obj
 0001:00050690       _glfwInputWindowDamage     0000000140051690 f   glfw3:window.c.obj
 0001:000506a0       _glfwInputWindowFocus      00000001400516a0 f   glfw3:window.c.obj
 0001:00050750       _glfwInputWindowIconify    0000000140051750 f   glfw3:window.c.obj
 0001:00050760       _glfwInputWindowMonitorChange 0000000140051760 f   glfw3:window.c.obj
 0001:00050770       _glfwInputWindowPos        0000000140051770 f   glfw3:window.c.obj
 0001:00050780       _glfwInputWindowSize       0000000140051780 f   glfw3:window.c.obj
 0001:00050790       glfwCreateWindow           0000000140051790 f   glfw3:window.c.obj
 0001:00050a00       glfwDefaultWindowHints     0000000140051a00 f   glfw3:window.c.obj
 0001:00050aa0       glfwDestroyWindow          0000000140051aa0 f   glfw3:window.c.obj
 0001:00050b30       glfwGetFramebufferSize     0000000140051b30 f   glfw3:window.c.obj
 0001:00050b60       glfwGetWindowUserPointer   0000000140051b60 f   glfw3:window.c.obj
 0001:00050b90       glfwPollEvents             0000000140051b90 f   glfw3:window.c.obj
 0001:00050bb0       glfwSetFramebufferSizeCallback 0000000140051bb0 f   glfw3:window.c.obj
 0001:00050bf0       glfwSetWindowAspectRatio   0000000140051bf0 f   glfw3:window.c.obj
 0001:00050c50       glfwSetWindowPos           0000000140051c50 f   glfw3:window.c.obj
 0001:00050c80       glfwSetWindowShouldClose   0000000140051c80 f   glfw3:window.c.obj
 0001:00050ca0       glfwSetWindowUserPointer   0000000140051ca0 f   glfw3:window.c.obj
 0001:00050cc0       glfwWindowHint             0000000140051cc0 f   glfw3:window.c.obj
 0001:00050f40       glfwWindowShouldClose      0000000140051f40 f   glfw3:window.c.obj
 0001:00050f70       _glfwInputChar             0000000140051f70 f   glfw3:input.c.obj
 0001:00050fd0       _glfwInputCursorEnter      0000000140051fd0 f   glfw3:input.c.obj
 0001:00050fe0       _glfwInputCursorPos        0000000140051fe0 f   glfw3:input.c.obj
 0001:00051020       _glfwInputDrop             0000000140052020 f   glfw3:input.c.obj
 0001:00051030       _glfwInputJoystickChange   0000000140052030 f   glfw3:input.c.obj
 0001:00051040       _glfwInputKey              0000000140052040 f   glfw3:input.c.obj
 0001:000510a0       _glfwInputMouseClick       00000001400520a0 f   glfw3:input.c.obj
 0001:000510e0       _glfwInputScroll           00000001400520e0 f   glfw3:input.c.obj
 0001:000510f0       glfwDestroyCursor          00000001400520f0 f   glfw3:input.c.obj
 0001:000511b0       glfwGetTime                00000001400521b0 f   glfw3:input.c.obj
 0001:00051220       glfwSetCharCallback        0000000140052220 f   glfw3:input.c.obj
 0001:00051260       glfwSetCursorPosCallback   0000000140052260 f   glfw3:input.c.obj
 0001:000512a0       glfwSetKeyCallback         00000001400522a0 f   glfw3:input.c.obj
 0001:000512e0       _glfwChooseFBConfig        00000001400522e0 f   glfw3:context.c.obj
 0001:000514d0       _glfwIsValidContextConfig  00000001400524d0 f   glfw3:context.c.obj
 0001:000516d0       _glfwRefreshContextAttribs 00000001400526d0 f   glfw3:context.c.obj
 0001:00051ad0       _glfwStringInExtensionString 0000000140052ad0 f   glfw3:context.c.obj
 0001:00051b40       glfwExtensionSupported     0000000140052b40 f   glfw3:context.c.obj
 0001:00051ca0       glfwGetProcAddress         0000000140052ca0 f   glfw3:context.c.obj
 0001:00051d00       glfwMakeContextCurrent     0000000140052d00 f   glfw3:context.c.obj
 0001:00051d90       glfwSwapBuffers            0000000140052d90 f   glfw3:context.c.obj
 0001:00051dd0       glfwSwapInterval           0000000140052dd0 f   glfw3:context.c.obj
 0001:00051e20       sscanf                     0000000140052e20 f i glfw3:context.c.obj
 0001:00051e70       _glfwCreateUTF8FromWideStringWin32 0000000140052e70 f   glfw3:win32_init.c.obj
 0001:00051f30       _glfwCreateWideStringFromUTF8Win32 0000000140052f30 f   glfw3:win32_init.c.obj
 0001:00051fe0       _glfwPlatformInit          0000000140052fe0 f   glfw3:win32_init.c.obj
 0001:00052090       _glfwPlatformTerminate     0000000140053090 f   glfw3:win32_init.c.obj
 0001:00052780       _glfwPlatformGetMonitorPos 0000000140053780 f   glfw3:win32_monitor.c.obj
 0001:00052820       _glfwPlatformGetMonitors   0000000140053820 f   glfw3:win32_monitor.c.obj
 0001:00052c00       _glfwPlatformGetVideoMode  0000000140053c00 f   glfw3:win32_monitor.c.obj
 0001:00052cc0       _glfwPlatformGetVideoModes 0000000140053cc0 f   glfw3:win32_monitor.c.obj
 0001:00052ee0       _glfwPlatformIsSameMonitor 0000000140053ee0 f   glfw3:win32_monitor.c.obj
 0001:00052f60       _glfwPlatformSetGammaRamp  0000000140053f60 f   glfw3:win32_monitor.c.obj
 0001:00053140       _glfwRestoreVideoModeWin32 0000000140054140 f   glfw3:win32_monitor.c.obj
 0001:00053180       _glfwSetVideoModeWin32     0000000140054180 f   glfw3:win32_monitor.c.obj
 0001:00053450       _glfwInitTimerWin32        0000000140054450 f   glfw3:win32_time.c.obj
 0001:000534a0       _glfwPlatformGetTimerFrequency 00000001400544a0 f   glfw3:win32_time.c.obj
 0001:000534b0       _glfwPlatformGetTimerValue 00000001400544b0 f   glfw3:win32_time.c.obj
 0001:000534e0       _glfwTerminateVulkan       00000001400544e0 f   glfw3:vulkan.c.obj
 0001:00053540       _glfwPlatformCreateWindow  0000000140054540 f   glfw3:win32_window.c.obj
 0001:00053640       _glfwPlatformDestroyCursor 0000000140054640 f   glfw3:win32_window.c.obj
 0001:00053660       _glfwPlatformDestroyWindow 0000000140054660 f   glfw3:win32_window.c.obj
 0001:00053710       _glfwPlatformFocusWindow   0000000140054710 f   glfw3:win32_window.c.obj
 0001:00053750       _glfwPlatformGetFramebufferSize 0000000140054750 f   glfw3:win32_window.c.obj
 0001:00053750       _glfwPlatformGetWindowSize 0000000140054750 f   glfw3:win32_window.c.obj
 0001:000537b0       _glfwPlatformPollEvents    00000001400547b0 f   glfw3:win32_window.c.obj
 0001:000539b0       _glfwPlatformSetCursor     00000001400549b0 f   glfw3:win32_window.c.obj
 0001:00053a20       _glfwPlatformSetCursorMode 0000000140054a20 f   glfw3:win32_window.c.obj
 0001:00053b50       _glfwPlatformSetWindowAspectRatio 0000000140054b50 f   glfw3:win32_window.c.obj
 0001:00053be0       _glfwPlatformSetWindowMonitor 0000000140054be0 f   glfw3:win32_window.c.obj
 0001:00053ee0       _glfwPlatformSetWindowPos  0000000140054ee0 f   glfw3:win32_window.c.obj
 0001:00053fa0       _glfwPlatformShowWindow    0000000140054fa0 f   glfw3:win32_window.c.obj
 0001:00053fc0       _glfwRegisterWindowClassWin32 0000000140054fc0 f   glfw3:win32_window.c.obj
 0001:000540c0       _glfwUnregisterWindowClassWin32 00000001400550c0 f   glfw3:win32_window.c.obj
 0001:00055480       _glfwInitThreadLocalStorageWin32 0000000140056480 f   glfw3:win32_tls.c.obj
 0001:000554d0       _glfwPlatformGetCurrentContext 00000001400564d0 f   glfw3:win32_tls.c.obj
 0001:000554e0       _glfwPlatformSetCurrentContext 00000001400564e0 f   glfw3:win32_tls.c.obj
 0001:000554f0       _glfwTerminateThreadLocalStorageWin32 00000001400564f0 f   glfw3:win32_tls.c.obj
 0001:00055510       _glfwDetectJoystickConnectionWin32 0000000140056510 f   glfw3:win32_joystick.c.obj
 0001:00055580       _glfwDetectJoystickDisconnectionWin32 0000000140056580 f   glfw3:win32_joystick.c.obj
 0001:00055670       _glfwInitJoysticksWin32    0000000140056670 f   glfw3:win32_joystick.c.obj
 0001:000556d0       _glfwTerminateJoysticksWin32 00000001400566d0 f   glfw3:win32_joystick.c.obj
 0001:00056160       _glfwCreateContextWGL      0000000140057160 f   glfw3:wgl_context.c.obj
 0001:00056590       _glfwInitWGL               0000000140057590 f   glfw3:wgl_context.c.obj
 0001:00056680       _glfwTerminateWGL          0000000140057680 f   glfw3:wgl_context.c.obj
 0001:00057020       _glfwCreateContextEGL      0000000140058020 f   glfw3:egl_context.c.obj
 0001:000574b0       _glfwInitEGL               00000001400584b0 f   glfw3:egl_context.c.obj
 0001:00057980       _glfwTerminateEGL          0000000140058980 f   glfw3:egl_context.c.obj
 0001:00057ff0       FT_Init_FreeType           0000000140058ff0 f   freetype271d:ftinit.obj
 0001:000580a0       FT_Done_FreeType           00000001400590a0 f   freetype271d:ftinit.obj
 0001:00058110       FT_Add_Default_Modules     0000000140059110 f   freetype271d:ftinit.obj
 0001:00058550       FT_New_Face                0000000140059550 f   freetype271d:ftbase.obj
 0001:00058620       FT_New_Memory_Face         0000000140059620 f   freetype271d:ftbase.obj
 0001:000586f0       FT_Open_Face               00000001400596f0 f   freetype271d:ftbase.obj
 0001:00058750       FT_Attach_File             0000000140059750 f   freetype271d:ftbase.obj
 0001:00058800       FT_Attach_Stream           0000000140059800 f   freetype271d:ftbase.obj
 0001:00058940       FT_Reference_Face          0000000140059940 f   freetype271d:ftbase.obj
 0001:000589b0       FT_Done_Face               00000001400599b0 f   freetype271d:ftbase.obj
 0001:00058ae0       FT_Select_Size             0000000140059ae0 f   freetype271d:ftbase.obj
 0001:00058e20       FT_Request_Size            0000000140059e20 f   freetype271d:ftbase.obj
 0001:000591d0       FT_Set_Char_Size           000000014005a1d0 f   freetype271d:ftbase.obj
 0001:00059320       FT_Set_Pixel_Sizes         000000014005a320 f   freetype271d:ftbase.obj
 0001:00059440       FT_Load_Glyph              000000014005a440 f   freetype271d:ftbase.obj
 0001:00059c20       FT_Load_Char               000000014005ac20 f   freetype271d:ftbase.obj
 0001:00059cc0       FT_Set_Transform           000000014005acc0 f   freetype271d:ftbase.obj
 0001:00059e20       FT_Render_Glyph            000000014005ae20 f   freetype271d:ftbase.obj
 0001:00059eb0       FT_Get_Kerning             000000014005aeb0 f   freetype271d:ftbase.obj
 0001:0005a1e0       FT_Get_Track_Kerning       000000014005b1e0 f   freetype271d:ftbase.obj
 0001:0005a310       FT_Get_Glyph_Name          000000014005b310 f   freetype271d:ftbase.obj
 0001:0005a530       FT_Get_Postscript_Name     000000014005b530 f   freetype271d:ftbase.obj
 0001:0005a680       FT_Select_Charmap          000000014005b680 f   freetype271d:ftbase.obj
 0001:0005a7e0       FT_Set_Charmap             000000014005b7e0 f   freetype271d:ftbase.obj
 0001:0005a930       FT_Get_Charmap_Index       000000014005b930 f   freetype271d:ftbase.obj
 0001:0005a9f0       FT_Get_Char_Index          000000014005b9f0 f   freetype271d:ftbase.obj
 0001:0005aaf0       FT_Get_First_Char          000000014005baf0 f   freetype271d:ftbase.obj
 0001:0005abb0       FT_Get_Next_Char           000000014005bbb0 f   freetype271d:ftbase.obj
 0001:0005acb0       FT_Get_Name_Index          000000014005bcb0 f   freetype271d:ftbase.obj
 0001:0005ae20       FT_Get_SubGlyph_Info       000000014005be20 f   freetype271d:ftbase.obj
 0001:0005af20       FT_Face_GetCharVariantIndex 000000014005bf20 f   freetype271d:ftbase.obj
 0001:0005b0b0       FT_Face_GetCharVariantIsDefault 000000014005c0b0 f   freetype271d:ftbase.obj
 0001:0005b200       FT_Face_GetVariantSelectors 000000014005c200 f   freetype271d:ftbase.obj
 0001:0005b290       FT_Face_GetVariantsOfChar  000000014005c290 f   freetype271d:ftbase.obj
 0001:0005b390       FT_Face_GetCharsOfVariant  000000014005c390 f   freetype271d:ftbase.obj
 0001:0005b490       FT_MulDiv                  000000014005c490 f   freetype271d:ftbase.obj
 0001:0005b670       FT_MulFix                  000000014005c670 f   freetype271d:ftbase.obj
 0001:0005b7a0       FT_DivFix                  000000014005c7a0 f   freetype271d:ftbase.obj
 0001:0005b920       FT_RoundFix                000000014005c920 f   freetype271d:ftbase.obj
 0001:0005b970       FT_CeilFix                 000000014005c970 f   freetype271d:ftbase.obj
 0001:0005b990       FT_FloorFix                000000014005c990 f   freetype271d:ftbase.obj
 0001:0005b9b0       FT_Vector_Transform        000000014005c9b0 f   freetype271d:ftbase.obj
 0001:0005ba80       FT_Library_Version         000000014005ca80 f   freetype271d:ftbase.obj
 0001:0005bb40       FT_Add_Module              000000014005cb40 f   freetype271d:ftbase.obj
 0001:0005be90       FT_Get_Module              000000014005ce90 f   freetype271d:ftbase.obj
 0001:0005bf70       FT_Remove_Module           000000014005cf70 f   freetype271d:ftbase.obj
 0001:0005c0e0       FT_Property_Set            000000014005d0e0 f   freetype271d:ftbase.obj
 0001:0005c140       FT_Property_Get            000000014005d140 f   freetype271d:ftbase.obj
 0001:0005c1a0       FT_Reference_Library       000000014005d1a0 f   freetype271d:ftbase.obj
 0001:0005c210       FT_New_Library             000000014005d210 f   freetype271d:ftbase.obj
 0001:0005c350       FT_Done_Library            000000014005d350 f   freetype271d:ftbase.obj
 0001:0005c5c0       FT_Set_Debug_Hook          000000014005d5c0 f   freetype271d:ftbase.obj
 0001:0005c610       FT_Get_TrueType_Engine_Type 000000014005d610 f   freetype271d:ftbase.obj
 0001:0005c6a0       FT_Matrix_Multiply         000000014005d6a0 f   freetype271d:ftbase.obj
 0001:0005c800       FT_Matrix_Invert           000000014005d800 f   freetype271d:ftbase.obj
 0001:0005c930       FT_Get_Renderer            000000014005d930 f   freetype271d:ftbase.obj
 0001:0005c970       FT_Set_Renderer            000000014005d970 f   freetype271d:ftbase.obj
 0001:0005cb20       FT_New_Size                000000014005db20 f   freetype271d:ftbase.obj
 0001:0005cd30       FT_Done_Size               000000014005dd30 f   freetype271d:ftbase.obj
 0001:0005cef0       FT_Activate_Size           000000014005def0 f   freetype271d:ftbase.obj
 0001:0005cf90       ft_mem_alloc               000000014005df90 f   freetype271d:ftbase.obj
 0001:0005d030       ft_mem_qalloc              000000014005e030 f   freetype271d:ftbase.obj
 0001:0005d0f0       ft_mem_realloc             000000014005e0f0 f   freetype271d:ftbase.obj
 0001:0005d1e0       ft_mem_qrealloc            000000014005e1e0 f   freetype271d:ftbase.obj
 0001:0005d3b0       ft_mem_free                000000014005e3b0 f   freetype271d:ftbase.obj
 0001:0005d400       ft_mem_strdup              000000014005e400 f   freetype271d:ftbase.obj
 0001:0005d480       ft_mem_dup                 000000014005e480 f   freetype271d:ftbase.obj
 0001:0005d520       ft_mem_strcpyn             000000014005e520 f   freetype271d:ftbase.obj
 0001:0005d5d0       FT_GlyphLoader_New         000000014005e5d0 f   freetype271d:ftbase.obj
 0001:0005d660       FT_GlyphLoader_CreateExtra 000000014005e660 f   freetype271d:ftbase.obj
 0001:0005d730       FT_GlyphLoader_Done        000000014005e730 f   freetype271d:ftbase.obj
 0001:0005d7a0       FT_GlyphLoader_Reset       000000014005e7a0 f   freetype271d:ftbase.obj
 0001:0005d8d0       FT_GlyphLoader_Rewind      000000014005e8d0 f   freetype271d:ftbase.obj
 0001:0005d950       FT_GlyphLoader_CheckPoints 000000014005e950 f   freetype271d:ftbase.obj
 0001:0005dcc0       FT_GlyphLoader_CheckSubGlyphs 000000014005ecc0 f   freetype271d:ftbase.obj
 0001:0005ddf0       FT_GlyphLoader_Prepare     000000014005edf0 f   freetype271d:ftbase.obj
 0001:0005de60       FT_GlyphLoader_Add         000000014005ee60 f   freetype271d:ftbase.obj
 0001:0005df70       FT_GlyphLoader_CopyPoints  000000014005ef70 f   freetype271d:ftbase.obj
 0001:0005e0e0       ft_service_list_lookup     000000014005f0e0 f   freetype271d:ftbase.obj
 0001:0005e180       FT_CMap_New                000000014005f180 f   freetype271d:ftbase.obj
 0001:0005e380       FT_CMap_Done               000000014005f380 f   freetype271d:ftbase.obj
 0001:0005e570       FT_Get_Module_Interface    000000014005f570 f   freetype271d:ftbase.obj
 0001:0005e5e0       ft_module_get_service      000000014005f5e0 f   freetype271d:ftbase.obj
 0001:0005e7c0       ft_property_string_set     000000014005f7c0 f   freetype271d:ftbase.obj
 0001:0005e820       FT_New_GlyphSlot           000000014005f820 f   freetype271d:ftbase.obj
 0001:0005ea10       FT_Done_GlyphSlot          000000014005fa10 f   freetype271d:ftbase.obj
 0001:0005eb30       FT_Select_Metrics          000000014005fb30 f   freetype271d:ftbase.obj
 0001:0005eea0       FT_Request_Metrics         000000014005fea0 f   freetype271d:ftbase.obj
 0001:0005f4a0       FT_Match_Size              00000001400604a0 f   freetype271d:ftbase.obj
 0001:0005f730       ft_synthesize_vertical_metrics 0000000140060730 f   freetype271d:ftbase.obj
 0001:0005f810       ft_glyphslot_free_bitmap   0000000140060810 f   freetype271d:ftbase.obj
 0001:0005f8d0       ft_glyphslot_alloc_bitmap  00000001400608d0 f   freetype271d:ftbase.obj
 0001:0005f9b0       ft_glyphslot_set_bitmap    00000001400609b0 f   freetype271d:ftbase.obj
 0001:0005fa30       FT_Lookup_Renderer         0000000140060a30 f   freetype271d:ftbase.obj
 0001:0005fb10       FT_Render_Glyph_Internal   0000000140060b10 f   freetype271d:ftbase.obj
 0001:0005fe40       FT_Get_Advance             0000000140060e40 f   freetype271d:ftbase.obj
 0001:0005ffb0       FT_Get_Advances            0000000140060fb0 f   freetype271d:ftbase.obj
 0001:00060330       FT_Sin                     0000000140061330 f   freetype271d:ftbase.obj
 0001:00060380       FT_Cos                     0000000140061380 f   freetype271d:ftbase.obj
 0001:000603d0       FT_Tan                     00000001400613d0 f   freetype271d:ftbase.obj
 0001:00060430       FT_Atan2                   0000000140061430 f   freetype271d:ftbase.obj
 0001:000604b0       FT_Angle_Diff              00000001400614b0 f   freetype271d:ftbase.obj
 0001:00060520       FT_Vector_Unit             0000000140061520 f   freetype271d:ftbase.obj
 0001:000605b0       FT_Vector_Rotate           00000001400615b0 f   freetype271d:ftbase.obj
 0001:00060700       FT_Vector_Length           0000000140061700 f   freetype271d:ftbase.obj
 0001:00060820       FT_Vector_Polarize         0000000140061820 f   freetype271d:ftbase.obj
 0001:00060910       FT_Vector_From_Polar       0000000140061910 f   freetype271d:ftbase.obj
 0001:00060980       FT_MulDiv_No_Round         0000000140061980 f   freetype271d:ftbase.obj
 0001:00060af0       FT_Matrix_Multiply_Scaled  0000000140061af0 f   freetype271d:ftbase.obj
 0001:00060c80       FT_Vector_Transform_Scaled 0000000140061c80 f   freetype271d:ftbase.obj
 0001:00060d80       FT_Vector_NormLen          0000000140061d80 f   freetype271d:ftbase.obj
 0001:00061130       ft_corner_orientation      0000000140062130 f   freetype271d:ftbase.obj
 0001:00061330       ft_corner_is_flat          0000000140062330 f   freetype271d:ftbase.obj
 0001:00061540       FT_MSB                     0000000140062540 f   freetype271d:ftbase.obj
 0001:00061610       FT_Hypot                   0000000140062610 f   freetype271d:ftbase.obj
 0001:00061af0       ft_hash_str_init           0000000140062af0 f   freetype271d:ftbase.obj
 0001:00061b30       ft_hash_num_init           0000000140062b30 f   freetype271d:ftbase.obj
 0001:00061b70       ft_hash_str_free           0000000140062b70 f   freetype271d:ftbase.obj
 0001:00061c40       ft_hash_str_insert         0000000140062c40 f   freetype271d:ftbase.obj
 0001:00061cc0       ft_hash_num_insert         0000000140062cc0 f   freetype271d:ftbase.obj
 0001:00061d30       ft_hash_str_lookup         0000000140062d30 f   freetype271d:ftbase.obj
 0001:00061d90       ft_hash_num_lookup         0000000140062d90 f   freetype271d:ftbase.obj
 0001:000624c0       FT_List_Find               00000001400634c0 f   freetype271d:ftbase.obj
 0001:00062540       FT_List_Add                0000000140063540 f   freetype271d:ftbase.obj
 0001:000625e0       FT_List_Insert             00000001400635e0 f   freetype271d:ftbase.obj
 0001:00062680       FT_List_Remove             0000000140063680 f   freetype271d:ftbase.obj
 0001:00062730       FT_List_Up                 0000000140063730 f   freetype271d:ftbase.obj
 0001:00062810       FT_List_Iterate            0000000140063810 f   freetype271d:ftbase.obj
 0001:000628d0       FT_List_Finalize           00000001400638d0 f   freetype271d:ftbase.obj
 0001:000629b0       FT_Outline_Decompose       00000001400639b0 f   freetype271d:ftbase.obj
 0001:00063bd0       FT_Outline_New             0000000140064bd0 f   freetype271d:ftbase.obj
 0001:00063c50       FT_Outline_New_Internal    0000000140064c50 f   freetype271d:ftbase.obj
 0001:00063e80       FT_Outline_Done            0000000140064e80 f   freetype271d:ftbase.obj
 0001:00063ef0       FT_Outline_Done_Internal   0000000140064ef0 f   freetype271d:ftbase.obj
 0001:00064010       FT_Outline_Check           0000000140065010 f   freetype271d:ftbase.obj
 0001:00064120       FT_Outline_Get_CBox        0000000140065120 f   freetype271d:ftbase.obj
 0001:000642a0       FT_Outline_Translate       00000001400652a0 f   freetype271d:ftbase.obj
 0001:00064350       FT_Outline_Copy            0000000140065350 f   freetype271d:ftbase.obj
 0001:000644e0       FT_Outline_Transform       00000001400654e0 f   freetype271d:ftbase.obj
 0001:00064580       FT_Outline_Embolden        0000000140065580 f   freetype271d:ftbase.obj
 0001:000645d0       FT_Outline_EmboldenXY      00000001400655d0 f   freetype271d:ftbase.obj
 0001:00064c20       FT_Outline_Reverse         0000000140065c20 f   freetype271d:ftbase.obj
 0001:00064df0       FT_Outline_Get_Bitmap      0000000140065df0 f   freetype271d:ftbase.obj
 0001:00064f00       FT_Outline_Render          0000000140065f00 f   freetype271d:ftbase.obj
 0001:00065050       FT_Outline_Get_Orientation 0000000140066050 f   freetype271d:ftbase.obj
 0001:00065380       ft_validator_init          0000000140066380 f   freetype271d:ftbase.obj
 0001:000653e0       ft_validator_run           00000001400663e0 f   freetype271d:ftbase.obj
 0001:00065400       ft_validator_error         0000000140066400 f   freetype271d:ftbase.obj
 0001:00065460       FT_Raccess_Guess           0000000140066460 f   freetype271d:ftbase.obj
 0001:00065590       FT_Raccess_Get_HeaderInfo  0000000140066590 f   freetype271d:ftbase.obj
 0001:00065bd0       FT_Raccess_Get_DataOffsets 0000000140066bd0 f   freetype271d:ftbase.obj
 0001:00066220       FT_Stream_New              0000000140067220 f   freetype271d:ftbase.obj
 0001:00066420       FT_Stream_Free             0000000140067420 f   freetype271d:ftbase.obj
 0001:000664a0       FT_Stream_OpenMemory       00000001400674a0 f   freetype271d:ftbase.obj
 0001:00066510       FT_Stream_Close            0000000140067510 f   freetype271d:ftbase.obj
 0001:00066560       FT_Stream_Seek             0000000140067560 f   freetype271d:ftbase.obj
 0001:00066650       FT_Stream_Skip             0000000140067650 f   freetype271d:ftbase.obj
 0001:000666c0       FT_Stream_Pos              00000001400676c0 f   freetype271d:ftbase.obj
 0001:000666e0       FT_Stream_Read             00000001400676e0 f   freetype271d:ftbase.obj
 0001:00066730       FT_Stream_ReadAt           0000000140067730 f   freetype271d:ftbase.obj
 0001:00066880       FT_Stream_TryRead          0000000140067880 f   freetype271d:ftbase.obj
 0001:00066970       FT_Stream_EnterFrame       0000000140067970 f   freetype271d:ftbase.obj
 0001:00066c00       FT_Stream_ExitFrame        0000000140067c00 f   freetype271d:ftbase.obj
 0001:00066cb0       FT_Stream_ExtractFrame     0000000140067cb0 f   freetype271d:ftbase.obj
 0001:00066d30       FT_Stream_ReleaseFrame     0000000140067d30 f   freetype271d:ftbase.obj
 0001:00066dc0       FT_Stream_GetChar          0000000140067dc0 f   freetype271d:ftbase.obj
 0001:00066e60       FT_Stream_GetUShort        0000000140067e60 f   freetype271d:ftbase.obj
 0001:00066f40       FT_Stream_GetUOffset       0000000140067f40 f   freetype271d:ftbase.obj
 0001:00067030       FT_Stream_GetULong         0000000140068030 f   freetype271d:ftbase.obj
 0001:00067140       FT_Stream_GetUShortLE      0000000140068140 f   freetype271d:ftbase.obj
 0001:00067220       FT_Stream_GetULongLE       0000000140068220 f   freetype271d:ftbase.obj
 0001:00067330       FT_Stream_ReadChar         0000000140068330 f   freetype271d:ftbase.obj
 0001:00067470       FT_Stream_ReadUShort       0000000140068470 f   freetype271d:ftbase.obj
 0001:00067610       FT_Stream_ReadUOffset      0000000140068610 f   freetype271d:ftbase.obj
 0001:000677c0       FT_Stream_ReadULong        00000001400687c0 f   freetype271d:ftbase.obj
 0001:00067990       FT_Stream_ReadUShortLE     0000000140068990 f   freetype271d:ftbase.obj
 0001:00067b30       FT_Stream_ReadULongLE      0000000140068b30 f   freetype271d:ftbase.obj
 0001:00067d00       FT_Stream_ReadFields       0000000140068d00 f   freetype271d:ftbase.obj
 0001:00068280       FT_Get_Sfnt_Table          0000000140069280 f   freetype271d:ftbase.obj
 0001:00068350       FT_Load_Sfnt_Table         0000000140069350 f   freetype271d:ftbase.obj
 0001:00068460       FT_Sfnt_Table_Info         0000000140069460 f   freetype271d:ftbase.obj
 0001:000685a0       FT_Get_CMap_Language_ID    00000001400695a0 f   freetype271d:ftbase.obj
 0001:00068690       FT_Get_CMap_Format         0000000140069690 f   freetype271d:ftbase.obj
 0001:00068ce0       FT_MD5_Init                0000000140069ce0 f   freetype271d:ftbase.obj
 0001:00068d40       FT_MD5_Update              0000000140069d40 f   freetype271d:ftbase.obj
 0001:00068ed0       FT_MD5_Final               0000000140069ed0 f   freetype271d:ftbase.obj
 0001:0006fe20       FT_Get_Sfnt_Name_Count     0000000140070e20 f   freetype271d:ftbase.obj
 0001:0006fe80       FT_Get_Sfnt_Name           0000000140070e80 f   freetype271d:ftbase.obj
 0001:00070be0       af_shaper_get_coverage     0000000140071be0 f   freetype271d:autofit.obj
 0001:00070c30       af_shaper_buf_create       0000000140071c30 f   freetype271d:autofit.obj
 0001:00070ca0       af_shaper_buf_destroy      0000000140071ca0 f   freetype271d:autofit.obj
 0001:00070d00       af_shaper_get_cluster      0000000140071d00 f   freetype271d:autofit.obj
 0001:00070f60       af_shaper_get_elem         0000000140071f60 f   freetype271d:autofit.obj
 0001:00086130       TT_New_Context             0000000140087130 f   freetype271d:truetype.obj
 0001:00086a50       TT_RunIns                  0000000140087a50 f   freetype271d:truetype.obj
 0001:000eb2e0       ps_hints_apply             00000001400ec2e0 f   freetype271d:pshinter.obj
 0001:0011b450       _vsnprintf_l               000000014011c450 f i freetype271d:bdf.obj
 0001:0011b4e0       _vsprintf_l                000000014011c4e0 f i freetype271d:bdf.obj
 0001:0011b540       sprintf                    000000014011c540 f i freetype271d:bdf.obj
 0001:0011b5c0       FT_New_Memory              000000014011c5c0 f   freetype271d:ftsystem.obj
 0001:0011b640       FT_Done_Memory             000000014011c640 f   freetype271d:ftsystem.obj
 0001:0011b680       FT_Stream_Open             000000014011c680 f   freetype271d:ftsystem.obj
 0001:0011ba80       FT_Message                 000000014011ca80 f   freetype271d:ftdebug.obj
 0001:0011bb10       FT_Panic                   000000014011cb10 f   freetype271d:ftdebug.obj
 0001:0011bba0       FT_Throw                   000000014011cba0 f   freetype271d:ftdebug.obj
 0001:0011bbe0       ft_debug_init              000000014011cbe0 f   freetype271d:ftdebug.obj
 0001:0011be50       vprintf                    000000014011ce50 f i freetype271d:ftdebug.obj
 0001:0011bea0       vsprintf                   000000014011cea0 f i freetype271d:ftdebug.obj
 0001:0011bf00       FT_Bitmap_Init             000000014011cf00 f   freetype271d:ftbitmap.obj
 0001:0011bf30       FT_Bitmap_New              000000014011cf30 f   freetype271d:ftbitmap.obj
 0001:0011bf60       FT_Bitmap_Copy             000000014011cf60 f   freetype271d:ftbitmap.obj
 0001:0011c330       FT_Bitmap_Embolden         000000014011d330 f   freetype271d:ftbitmap.obj
 0001:0011c930       FT_Bitmap_Convert          000000014011d930 f   freetype271d:ftbitmap.obj
 0001:0011d530       FT_GlyphSlot_Own_Bitmap    000000014011e530 f   freetype271d:ftbitmap.obj
 0001:0011d640       FT_Bitmap_Done             000000014011e640 f   freetype271d:ftbitmap.obj
 0001:0011dd50       FT_Stream_OpenGzip         000000014011ed50 f   freetype271d:ftgzip.obj
 0001:0011e010       FT_Gzip_Uncompress         000000014011f010 f   freetype271d:ftgzip.obj
 0001:00124ee0       FT_Stream_OpenLZW          0000000140125ee0 f   freetype271d:ftlzw.obj
 0001:00125060       ft_lzwstate_init           0000000140126060 f   freetype271d:ftlzw.obj
 0001:00125120       ft_lzwstate_done           0000000140126120 f   freetype271d:ftlzw.obj
 0001:001251f0       ft_lzwstate_reset          00000001401261f0 f   freetype271d:ftlzw.obj
 0001:00125260       ft_lzwstate_io             0000000140126260 f   freetype271d:ftlzw.obj
 0001:0012670c       ??0_Init_locks@std@@QEAA@XZ 000000014012770c f   libcpmt:xlock.obj
 0001:00126758       ??0_Lockit@std@@QEAA@H@Z   0000000140127758 f   libcpmt:xlock.obj
 0001:00126794       ??1_Init_locks@std@@QEAA@XZ 0000000140127794 f   libcpmt:xlock.obj
 0001:001267d8       ??1_Lockit@std@@QEAA@XZ    00000001401277d8 f   libcpmt:xlock.obj
 0001:0012680c       _Lock_at_thread_exit_mutex 000000014012780c f   libcpmt:xlock.obj
 0001:00126818       _Unlock_at_thread_exit_mutex 0000000140127818 f   libcpmt:xlock.obj
 0001:00126824       ?uncaught_exception@std@@YA_NXZ 0000000140127824 f   libcpmt:uncaught.obj
 0001:0012682c       ??0bad_alloc@std@@QEAA@AEBV01@@Z 000000014012782c f i libcpmt:xthrow.obj
 0001:0012686c       ??0bad_alloc@std@@QEAA@XZ  000000014012786c f i libcpmt:xthrow.obj
 0001:0012688c       ??0invalid_argument@std@@QEAA@AEBV01@@Z 000000014012788c f i libcpmt:xthrow.obj
 0001:001268cc       ??0invalid_argument@std@@QEAA@PEBD@Z 00000001401278cc f i libcpmt:xthrow.obj
 0001:00126918       ??0length_error@std@@QEAA@AEBV01@@Z 0000000140127918 f i libcpmt:xthrow.obj
 0001:00126958       ??0length_error@std@@QEAA@PEBD@Z 0000000140127958 f i libcpmt:xthrow.obj
 0001:001269a4       ??0logic_error@std@@QEAA@AEBV01@@Z 00000001401279a4 f i libcpmt:xthrow.obj
 0001:001269e4       ??0out_of_range@std@@QEAA@AEBV01@@Z 00000001401279e4 f i libcpmt:xthrow.obj
 0001:00126a24       ??0out_of_range@std@@QEAA@PEBD@Z 0000000140127a24 f i libcpmt:xthrow.obj
 0001:00126a70       ?_Xlength_error@std@@YAXPEBD@Z 0000000140127a70 f   libcpmt:xthrow.obj
 0001:00126a94       ?_Xout_of_range@std@@YAXPEBD@Z 0000000140127a94 f   libcpmt:xthrow.obj
 0001:00126ab8       _Getctype                  0000000140127ab8 f   libcpmt:_tolower.obj
 0001:00126b78       _Tolower                   0000000140127b78 f   libcpmt:_tolower.obj
 0001:00126ca0       _Toupper                   0000000140127ca0 f   libcpmt:_toupper.obj
 0001:00126dd8       ??4?$_Yarn@D@std@@QEAAAEAV01@PEBD@Z 0000000140127dd8 f i libcpmt:locale0.obj
 0001:00126e50       ??_G_Fac_node@std@@QEAAPEAXI@Z 0000000140127e50 f i libcpmt:locale0.obj
 0001:00126edc       ??_E_Locimp@locale@std@@MEAAPEAXI@Z 0000000140127edc f i libcpmt:locale0.obj
 0001:00126edc       ??_G_Locimp@locale@std@@MEAAPEAXI@Z 0000000140127edc f i libcpmt:locale0.obj
 0001:00126f48       ?_Facet_Register@std@@YAXPEAV_Facet_base@1@@Z 0000000140127f48 f   libcpmt:locale0.obj
 0001:00126f80       ?_Getgloballocale@locale@std@@CAPEAV_Locimp@12@XZ 0000000140127f80 f   libcpmt:locale0.obj
 0001:00126f88       ?_Init@locale@std@@CAPEAV_Locimp@12@_N@Z 0000000140127f88 f   libcpmt:locale0.obj
 0001:00127044       ?_Locimp_dtor@_Locimp@locale@std@@CAXPEAV123@@Z 0000000140128044 f   libcpmt:locale0.obj
 0001:001270ec       ?_Locinfo_ctor@_Locinfo@std@@SAXPEAV12@PEBD@Z 00000001401280ec f   libcpmt:locale0.obj
 0001:00127158       ?_Locinfo_dtor@_Locinfo@std@@SAXPEAV12@@Z 0000000140128158 f   libcpmt:locale0.obj
 0001:0012717c       ?_New_Locimp@_Locimp@locale@std@@CAPEAV123@_N@Z 000000014012817c f   libcpmt:locale0.obj
 0001:001271ec       ?_Setgloballocale@locale@std@@CAXPEAX@Z 00000001401281ec f   libcpmt:locale0.obj
 0001:00127220       _Deletegloballocale        0000000140128220 f   libcpmt:locale0.obj
 0001:001272a8       ?_Syserror_map@std@@YAPEBDH@Z 00000001401282a8 f   libcpmt:syserror.obj
 0001:001272d0       ?_Addstd@ios_base@std@@SAXPEAV12@@Z 00000001401282d0 f   libcpmt:ios.obj
 0001:00127340       ?_Ios_base_dtor@ios_base@std@@CAXPEAV12@@Z 0000000140128340 f   libcpmt:ios.obj
 0001:00127384       ?_Tidy@ios_base@std@@AEAAXXZ 0000000140128384 f i libcpmt:ios.obj
 0001:00127414       ??$_Xfiopen@D@std@@YAPEAU_iobuf@@PEBDHH@Z 0000000140128414 f i libcpmt:fiopen.obj
 0001:0012751c       ?_Fiopen@std@@YAPEAU_iobuf@@PEBDHH@Z 000000014012851c f   libcpmt:fiopen.obj
 0001:00127524       _Thrd_current              0000000140128524 f   libcpmt:cthread.obj
 0001:001275a4       _Thrd_equal                00000001401285a4 f   libcpmt:cthread.obj
 0001:001275b0       _Thrd_sleep                00000001401285b0 f   libcpmt:cthread.obj
 0001:00127624       _Thrd_start                0000000140128624 f   libcpmt:cthread.obj
 0001:00127660       _Xtime_diff_to_millis2     0000000140128660 f   libcpmt:xtime.obj
 0001:0012772c       _Xtime_get_ticks           000000014012872c f   libcpmt:xtime.obj
 0001:0012775c       xtime_get                  000000014012875c f   libcpmt:xtime.obj
 0001:001277b4       ??1GlobalCore@details@Concurrency@@QEAA@XZ 00000001401287b4 f i libcpmt:mutex.obj
 0001:001277c4       ?create_stl_critical_section@details@Concurrency@@YAXPEAVstl_critical_section_interface@12@@Z 00000001401287c4 f i libcpmt:mutex.obj
 0001:0012786c       ?destroy@stl_critical_section_concrt@details@Concurrency@@UEAAXXZ 000000014012886c f i libcpmt:mutex.obj
 0001:00127878       ?destroy@stl_critical_section_vista@details@Concurrency@@UEAAXXZ 0000000140128878 f i libcpmt:mutex.obj
 0001:00127884       ?lock@stl_critical_section_concrt@details@Concurrency@@UEAAXXZ 0000000140128884 f i libcpmt:mutex.obj
 0001:00127890       ?lock@stl_critical_section_vista@details@Concurrency@@UEAAXXZ 0000000140128890 f i libcpmt:mutex.obj
 0001:0012789c       ?lock@stl_critical_section_win7@details@Concurrency@@UEAAXXZ 000000014012889c f i libcpmt:mutex.obj
 0001:00127a3c       ?try_lock@stl_critical_section_concrt@details@Concurrency@@UEAA_NXZ 0000000140128a3c f i libcpmt:mutex.obj
 0001:00127a48       ?try_lock_for@stl_critical_section_win7@details@Concurrency@@UEAA_NI@Z 0000000140128a48 f i libcpmt:mutex.obj
 0001:00127a48       ?try_lock@stl_critical_section_win7@details@Concurrency@@UEAA_NXZ 0000000140128a48 f i libcpmt:mutex.obj
 0001:00127a60       ?try_lock_for@stl_critical_section_concrt@details@Concurrency@@UEAA_NI@Z 0000000140128a60 f i libcpmt:mutex.obj
 0001:00127a6c       ?try_lock@stl_critical_section_vista@details@Concurrency@@UEAA_NXZ 0000000140128a6c f i libcpmt:mutex.obj
 0001:00127a6c       ?try_lock_for@stl_critical_section_vista@details@Concurrency@@UEAA_NI@Z 0000000140128a6c f i libcpmt:mutex.obj
 0001:00127a84       ?unlock@stl_critical_section_concrt@details@Concurrency@@UEAAXXZ 0000000140128a84 f i libcpmt:mutex.obj
 0001:00127a90       ?unlock@stl_critical_section_vista@details@Concurrency@@UEAAXXZ 0000000140128a90 f i libcpmt:mutex.obj
 0001:00127a9c       ?unlock@stl_critical_section_win7@details@Concurrency@@UEAAXXZ 0000000140128a9c f i libcpmt:mutex.obj
 0001:00127aa8       _Mtx_clear_owner           0000000140128aa8 f   libcpmt:mutex.obj
 0001:00127ab0       _Mtx_destroy               0000000140128ab0 f   libcpmt:mutex.obj
 0001:00127ad0       _Mtx_destroy_in_situ       0000000140128ad0 f   libcpmt:mutex.obj
 0001:00127b00       _Mtx_getconcrtcs           0000000140128b00 f   libcpmt:mutex.obj
 0001:00127b08       _Mtx_init                  0000000140128b08 f   libcpmt:mutex.obj
 0001:00127b5c       _Mtx_init_in_situ          0000000140128b5c f   libcpmt:mutex.obj
 0001:00127b8c       _Mtx_lock                  0000000140128b8c f   libcpmt:mutex.obj
 0001:00127b94       _Mtx_reset_owner           0000000140128b94 f   libcpmt:mutex.obj
 0001:00127bb0       _Mtx_unlock                0000000140128bb0 f   libcpmt:mutex.obj
 0001:00127bec       ?create_stl_condition_variable@details@Concurrency@@YAXPEAVstl_condition_variable_interface@12@@Z 0000000140128bec f i libcpmt:cond.obj
 0001:00127c80       ?destroy@stl_condition_variable_concrt@details@Concurrency@@UEAAXXZ 0000000140128c80 f i libcpmt:cond.obj
 0001:00127d74       ?notify_all@stl_condition_variable_concrt@details@Concurrency@@UEAAXXZ 0000000140128d74 f i libcpmt:cond.obj
 0001:00127d80       ?notify_all@stl_condition_variable_win7@details@Concurrency@@UEAAXXZ 0000000140128d80 f i libcpmt:cond.obj
 0001:00127d80       ?notify_all@stl_condition_variable_vista@details@Concurrency@@UEAAXXZ 0000000140128d80 f i libcpmt:cond.obj
 0001:00127d8c       ?notify_one@stl_condition_variable_concrt@details@Concurrency@@UEAAXXZ 0000000140128d8c f i libcpmt:cond.obj
 0001:00127d98       ?notify_one@stl_condition_variable_win7@details@Concurrency@@UEAAXXZ 0000000140128d98 f i libcpmt:cond.obj
 0001:00127d98       ?notify_one@stl_condition_variable_vista@details@Concurrency@@UEAAXXZ 0000000140128d98 f i libcpmt:cond.obj
 0001:00127da4       ?wait@stl_condition_variable_concrt@details@Concurrency@@UEAAXPEAVstl_critical_section_interface@23@@Z 0000000140128da4 f i libcpmt:cond.obj
 0001:00127db4       ?wait@stl_condition_variable_vista@details@Concurrency@@UEAAXPEAVstl_critical_section_interface@23@@Z 0000000140128db4 f i libcpmt:cond.obj
 0001:00127dd8       ?wait@stl_condition_variable_win7@details@Concurrency@@UEAAXPEAVstl_critical_section_interface@23@@Z 0000000140128dd8 f i libcpmt:cond.obj
 0001:00127e00       ?wait_for@stl_condition_variable_concrt@details@Concurrency@@UEAA_NPEAVstl_critical_section_interface@23@I@Z 0000000140128e00 f i libcpmt:cond.obj
 0001:00127e10       ?wait_for@stl_condition_variable_vista@details@Concurrency@@UEAA_NPEAVstl_critical_section_interface@23@I@Z 0000000140128e10 f i libcpmt:cond.obj
 0001:00127e2c       ?wait_for@stl_condition_variable_win7@details@Concurrency@@UEAA_NPEAVstl_critical_section_interface@23@I@Z 0000000140128e2c f i libcpmt:cond.obj
 0001:00127e4c       _Cnd_broadcast             0000000140128e4c f   libcpmt:cond.obj
 0001:00127e7c       _Cnd_destroy               0000000140128e7c f   libcpmt:cond.obj
 0001:00127e9c       _Cnd_destroy_in_situ       0000000140128e9c f   libcpmt:cond.obj
 0001:00127ecc       _Cnd_init                  0000000140128ecc f   libcpmt:cond.obj
 0001:00127f10       _Cnd_init_in_situ          0000000140128f10 f   libcpmt:cond.obj
 0001:00127f18       _Cnd_signal                0000000140128f18 f   libcpmt:cond.obj
 0001:00127f48       _Cnd_wait                  0000000140128f48 f   libcpmt:cond.obj
 0001:00127f50       _Cnd_do_broadcast_at_thread_exit 0000000140128f50 f   libcpmt:xnotify.obj
 0001:00128020       ??0system_error@std@@QEAA@HAEBVerror_category@1@PEBD@Z 0000000140129020 f i libcpmt:thread0.obj
 0001:001280ec       ?_Throw_C_error@std@@YAXH@Z 00000001401290ec f   libcpmt:thread0.obj
 0001:00128128       ?_Throw_Cpp_error@std@@YAXH@Z 0000000140129128 f   libcpmt:thread0.obj
 0001:00128170       ?generic_category@std@@YAAEBVerror_category@1@XZ 0000000140129170 f i libcpmt:thread0.obj
 0001:001281b8       ??0?$basic_ostream@DU?$char_traits@D@std@@@std@@QEAA@PEAV?$basic_streambuf@DU?$char_traits@D@std@@@1@_N@Z 00000001401291b8 f i libcpmt:cout.obj
 0001:00128280       ??0_Init_cout@std@@QEAA@XZ 0000000140129280 f i libcpmt:cout.obj
 0001:001282ec       ??_E?$basic_ostream@DU?$char_traits@D@std@@@std@@$4PPPPPPPM@A@EAAPEAXI@Z 00000001401292ec f i libcpmt:cout.obj
 0001:001282f8       ??_E?$basic_ostream@DU?$char_traits@D@std@@@std@@UEAAPEAXI@Z 00000001401292f8 f i libcpmt:cout.obj
 0001:001282f8       ??_G?$basic_ostream@DU?$char_traits@D@std@@@std@@UEAAPEAXI@Z 00000001401292f8 f i libcpmt:cout.obj
 0001:00128368       _Mtxinit                   0000000140129368 f   libcpmt:xmtx.obj
 0001:00128378       __crtLCMapStringA          0000000140129378 f   libcpmt:StlLCMapStringA.obj
 0001:00128664       ?_Atexit@@YAXP6AXXZ@Z      0000000140129664 f   libcpmt:iosptrs.obj
 0001:00128b74       __crtAcquireSRWLockExclusive 0000000140129b74 f   libcpmt:winapisupp.obj
 0001:00128bac       __crtCloseThreadpoolTimer  0000000140129bac f   libcpmt:winapisupp.obj
 0001:00128be4       __crtCloseThreadpoolWait   0000000140129be4 f   libcpmt:winapisupp.obj
 0001:00128c1c       __crtCreateEventExW        0000000140129c1c f   libcpmt:winapisupp.obj
 0001:00128c98       __crtCreateSemaphoreExW    0000000140129c98 f   libcpmt:winapisupp.obj
 0001:00128d38       __crtCreateThreadpoolTimer 0000000140129d38 f   libcpmt:winapisupp.obj
 0001:00128d94       __crtCreateThreadpoolWait  0000000140129d94 f   libcpmt:winapisupp.obj
 0001:00128df0       __crtFlushProcessWriteBuffers 0000000140129df0 f   libcpmt:winapisupp.obj
 0001:00128e18       __crtFreeLibraryWhenCallbackReturns 0000000140129e18 f   libcpmt:winapisupp.obj
 0001:00128e60       __crtGetCurrentProcessorNumber 0000000140129e60 f   libcpmt:winapisupp.obj
 0001:00128e94       __crtGetSystemTimePreciseAsFileTime 0000000140129e94 f   libcpmt:winapisupp.obj
 0001:00128ed4       __crtGetTickCount64        0000000140129ed4 f   libcpmt:winapisupp.obj
 0001:00128f0c       __crtInitializeConditionVariable 0000000140129f0c f   libcpmt:winapisupp.obj
 0001:00128f44       __crtInitializeCriticalSectionEx 0000000140129f44 f   libcpmt:winapisupp.obj
 0001:00128fa4       __crtInitializeSRWLock     0000000140129fa4 f   libcpmt:winapisupp.obj
 0001:00128fdc       __crtReleaseSRWLockExclusive 0000000140129fdc f   libcpmt:winapisupp.obj
 0001:00129014       __crtSetThreadpoolTimer    000000014012a014 f   libcpmt:winapisupp.obj
 0001:0012907c       __crtSetThreadpoolWait     000000014012a07c f   libcpmt:winapisupp.obj
 0001:001290d4       __crtSleepConditionVariableCS 000000014012a0d4 f   libcpmt:winapisupp.obj
 0001:0012912c       __crtSleepConditionVariableSRW 000000014012a12c f   libcpmt:winapisupp.obj
 0001:00129194       __crtTryAcquireSRWLockExclusive 000000014012a194 f   libcpmt:winapisupp.obj
 0001:001291cc       __crtWaitForThreadpoolTimerCallbacks 000000014012a1cc f   libcpmt:winapisupp.obj
 0001:00129210       __crtWakeAllConditionVariable 000000014012a210 f   libcpmt:winapisupp.obj
 0001:00129248       __crtWakeConditionVariable 000000014012a248 f   libcpmt:winapisupp.obj
 0001:00129280       GetTableIndexFromLocaleName 000000014012a280 f   libcpmt:winapinls.obj
 0001:0012930c       __crtDownlevelLocaleNameToLCID 000000014012a30c f   libcpmt:winapinls.obj
 0001:00129340       __crtLCMapStringEx         000000014012a340 f   libcpmt:winapinls.obj
 0001:001293fc       __wcsnicmp_ascii           000000014012a3fc f   libcpmt:winapinls.obj
 0001:00129454       ??2@YAPEAX_K@Z             000000014012a454 f   MSVCRT:new_scalar.obj
 0001:00129490       ??3@YAXPEAX@Z              000000014012a490 f   MSVCRT:delete_scalar.obj
 0001:00129498       ??3@YAXPEAX_K@Z            000000014012a498 f   MSVCRT:delete_scalar_size.obj
 0001:00129498       ??_V@YAXPEAX@Z             000000014012a498 f   MSVCRT:delete_array.obj
 0001:001294a0       __scrt_acquire_startup_lock 000000014012a4a0 f   MSVCRT:utility.obj
 0001:001294dc       __scrt_initialize_crt      000000014012a4dc f   MSVCRT:utility.obj
 0001:00129528       __scrt_initialize_onexit_tables 000000014012a528 f   MSVCRT:utility.obj
 0001:001295f4       __scrt_is_nonwritable_in_current_image 000000014012a5f4 f   MSVCRT:utility.obj
 0001:00129690       __scrt_release_startup_lock 000000014012a690 f   MSVCRT:utility.obj
 0001:001296b4       __scrt_uninitialize_crt    000000014012a6b4 f   MSVCRT:utility.obj
 0001:001296e0       _onexit                    000000014012a6e0 f   MSVCRT:utility.obj
 0001:00129730       atexit                     000000014012a730 f   MSVCRT:utility.obj
 0001:00129890       _Init_thread_abort         000000014012a890 f   MSVCRT:thread_safe_statics.obj
 0001:001298c0       _Init_thread_footer        000000014012a8c0 f   MSVCRT:thread_safe_statics.obj
 0001:00129920       _Init_thread_header        000000014012a920 f   MSVCRT:thread_safe_statics.obj
 0001:00129988       _Init_thread_notify        000000014012a988 f   MSVCRT:thread_safe_statics.obj
 0001:001299e4       _Init_thread_wait          000000014012a9e4 f   MSVCRT:thread_safe_statics.obj
 0001:00129a7c       __GSHandlerCheck           000000014012aa7c f   MSVCRT:_gshandler_.obj
 0001:00129a9c       __GSHandlerCheckCommon     000000014012aa9c f   MSVCRT:_gshandler_.obj
 0001:00129af8       __GSHandlerCheck_EH        000000014012aaf8 f   MSVCRT:gshandlereh.obj
 0001:00129b90       __chkstk                   000000014012ab90 f   MSVCRT:_chkstk_.obj
 0001:00129b90       _alloca_probe              000000014012ab90 f   MSVCRT:_chkstk_.obj
 0001:00129c00       __security_check_cookie    000000014012ac00 f   MSVCRT:_amdsecgs_.obj
 0001:00129c24       ??_Gtype_info@@UEAAPEAXI@Z 000000014012ac24 f i MSVCRT:std_type_info_static.obj
 0001:00129c24       ??_Etype_info@@UEAAPEAXI@Z 000000014012ac24 f i MSVCRT:std_type_info_static.obj
 0001:00129eb0       mainCRTStartup             000000014012aeb0 f   MSVCRT:exe_main.obj
 0001:00129ec4       __raise_securityfailure    000000014012aec4 f   MSVCRT:gs_report.obj
 0001:00129ef8       __report_gsfailure         000000014012aef8 f   MSVCRT:gs_report.obj
 0001:00129fcc       __report_rangecheckfailure 000000014012afcc f   MSVCRT:gs_report.obj
 0001:00129fe0       __report_securityfailure   000000014012afe0 f   MSVCRT:gs_report.obj
 0001:0012a160       _RTC_CheckStackVars        000000014012b160 f   MSVCRT:_stack_.obj
 0001:0012a1d4       _guard_check_icall         000000014012b1d4 f i MSVCRT:checkcfg.obj
 0001:0012a1dc       ??_M@YAXPEAX_K1P6AX0@Z@Z   000000014012b1dc f   MSVCRT:ehvecdtr.obj
 0001:0012a248       ?__ArrayUnwind@@YAXPEAX_K1P6AX0@Z@Z 000000014012b248 f   MSVCRT:ehvecdtr.obj
 0001:0012a2ac       ??_V@YAXPEAX_K@Z           000000014012b2ac f   MSVCRT:delete_array_size.obj
 0001:0012a2b4       ??0bad_array_new_length@std@@QEAA@AEBV01@@Z 000000014012b2b4 f i MSVCRT:throw_bad_alloc.obj
 0001:0012a2f4       ??0bad_array_new_length@std@@QEAA@XZ 000000014012b2f4 f i MSVCRT:throw_bad_alloc.obj
 0001:0012a314       ?__scrt_throw_std_bad_alloc@@YAXXZ 000000014012b314 f   MSVCRT:throw_bad_alloc.obj
 0001:0012a314       ?_Xbad_alloc@std@@YAXXZ    000000014012b314 f   libcpmt:xthrow.obj
 0001:0012a334       ?__scrt_throw_std_bad_array_new_length@@YAXXZ 000000014012b334 f   MSVCRT:throw_bad_alloc.obj
 0001:0012a354       __isa_available_init       000000014012b354 f   MSVCRT:_cpu_disp_.obj
 0001:0012a51c       __scrt_is_ucrt_dll_in_use  000000014012b51c f   MSVCRT:ucrt_detection.obj
 0001:0012a528       __scrt_fastfail            000000014012b528 f   MSVCRT:utility_desktop.obj
 0001:0012a670       __scrt_is_managed_app      000000014012b670 f   MSVCRT:utility_desktop.obj
 0001:0012a6c4       __scrt_set_unhandled_exception_filter 000000014012b6c4 f   MSVCRT:utility_desktop.obj
 0001:0012a6d4       __scrt_unhandled_exception_filter 000000014012b6d4 f   MSVCRT:utility_desktop.obj
 0001:0012a70c       __security_init_cookie     000000014012b70c f   MSVCRT:gs_support.obj
 0001:0012a7b8       _get_startup_file_mode     000000014012b7b8 f   MSVCRT:file_mode.obj
 0001:0012a7c0       ?_Get_deleter@_Ref_count_base@std@@UEBAPEAXAEBVtype_info@@@Z 000000014012b7c0 f   libcpmt:excptptr.obj
 0001:0012a7c0       _get_startup_thread_locale_mode 000000014012b7c0 f   MSVCRT:thread_locale.obj
 0001:0012a7c0       _matherr                   000000014012b7c0 f   MSVCRT:matherr.obj
 0001:0012a7c0       ?ExitCriticalRegion@ContextBase@details@Concurrency@@QEAAHXZ 000000014012b7c0 f   libconcrt:ContextBase.obj
 0001:0012a7c0       _get_startup_commit_mode   000000014012b7c0 f   MSVCRT:commit_mode.obj
 0001:0012a7c0       _get_startup_new_mode      000000014012b7c0 f   MSVCRT:new_mode.obj
 0001:0012a7c0       ?EnterHyperCriticalRegion@ContextBase@details@Concurrency@@QEAAHXZ 000000014012b7c0 f   libconcrt:ContextBase.obj
 0001:0012a7c0       __scrt_initialize_winrt    000000014012b7c0 f   MSVCRT:utility_desktop.obj
 0001:0012a7c0       ?GetContextKind@ExternalContextBase@details@Concurrency@@EEBA?AW4ContextKind@ContextBase@23@XZ 000000014012b7c0 f   libconcrt:ExternalContextBase.obj
 0001:0012a7c0       ?PreRunnableSearch@VirtualProcessor@details@Concurrency@@UEAAPEAVInternalContextBase@23@XZ 000000014012b7c0 f   libconcrt:VirtualProcessor.obj
 0001:0012a7c0       ?EnterCriticalRegion@ContextBase@details@Concurrency@@QEAAHXZ 000000014012b7c0 f   libconcrt:ContextBase.obj
 0001:0012a7c0       ?ExitHyperCriticalRegion@ContextBase@details@Concurrency@@QEAAHXZ 000000014012b7c0 f   libconcrt:ContextBase.obj
 0001:0012a7c0       ?GetDefaultDestination@VirtualProcessor@details@Concurrency@@UEAAPEAUIExecutionContext@3@XZ 000000014012b7c0 f   libconcrt:VirtualProcessor.obj
 0001:0012a7c4       ?__scrt_initialize_type_info@@YAXXZ 000000014012b7c4 f   MSVCRT:tncleanup.obj
 0001:0012a7d4       __scrt_initialize_default_local_stdio_options 000000014012b7d4 f   MSVCRT:default_local_stdio_options.obj
 0001:0012a7f0       __scrt_is_user_matherr_present 000000014012b7f0 f   MSVCRT:matherr_detection.obj
 0001:0012a7fc       __scrt_get_dyn_tls_init_callback 000000014012b7fc f   MSVCRT:dyn_tls_init.obj
 0001:0012a804       __scrt_get_dyn_tls_dtor_callback 000000014012b804 f   MSVCRT:dyn_tls_dtor.obj
 0001:0012a80c       _RTC_Initialize            000000014012b80c f   MSVCRT:_initsect_.obj
 0001:0012a858       _RTC_Terminate             000000014012b858 f   MSVCRT:_initsect_.obj
 0001:0012a930       ?_RTC_StackFailure@@YAXPEAXPEBD@Z 000000014012b930 f   MSVCRT:_error_.obj
 0001:0012ac7c       ?_RTC_GetErrorFunc@@YAP6AHHPEBDH00ZZPEBX@Z 000000014012bc7c f   MSVCRT:_userapi_.obj
 0001:0012ac84       ?_RTC_GetErrorFuncW@@YAP6AHHPEB_WH00ZZPEBX@Z 000000014012bc84 f   MSVCRT:_userapi_.obj
 0001:0012af14       ?_RTC_GetSrcLine@@YAHPEAEPEA_WKPEAH1K@Z 000000014012bf14 f   MSVCRT:_pdblkup_.obj
 0001:0012b340       ??0LockQueueNode@details@Concurrency@@QEAA@I@Z 000000014012c340 f i libconcrt:rtlocks.obj
 0001:0012b448       ??0_ReentrantBlockingLock@details@Concurrency@@QEAA@XZ 000000014012c448 f   libconcrt:rtlocks.obj
 0001:0012b448       ??0_NonReentrantBlockingLock@details@Concurrency@@QEAA@XZ 000000014012c448 f   libconcrt:rtlocks.obj
 0001:0012b468       ??0_ReaderWriterLock@details@Concurrency@@QEAA@XZ 000000014012c468 f   libconcrt:rtlocks.obj
 0001:0012b47c       ??0critical_section@Concurrency@@QEAA@XZ 000000014012c47c f   libconcrt:rtlocks.obj
 0001:0012b4a4       ??0improper_lock@Concurrency@@QEAA@AEBV01@@Z 000000014012c4a4 f i libconcrt:rtlocks.obj
 0001:0012b4e4       ??0scoped_lock@critical_section@Concurrency@@QEAA@AEAV12@@Z 000000014012c4e4 f   libconcrt:rtlocks.obj
 0001:0012b538       ??1_ReentrantBlockingLock@details@Concurrency@@QEAA@XZ 000000014012c538 f   libconcrt:rtlocks.obj
 0001:0012b538       _Mtxdst                    000000014012c538 f   libcpmt:xmtx.obj
 0001:0012b538       ??1_NonReentrantBlockingLock@details@Concurrency@@QEAA@XZ 000000014012c538 f   libconcrt:rtlocks.obj
 0001:0012b540       ??1scoped_lock@critical_section@Concurrency@@QEAA@XZ 000000014012c540 f   libconcrt:rtlocks.obj
 0001:0012b55c       ?Block@LockQueueNode@details@Concurrency@@QEAAXI@Z 000000014012c55c f i libconcrt:rtlocks.obj
 0001:0012b60c       ?DispatchNodeTimeoutTimer@LockQueueNode@details@Concurrency@@SAXPEAU_TP_CALLBACK_INSTANCE@@PEAXPEAU_TP_TIMER@@@Z 000000014012c60c f i libconcrt:rtlocks.obj
 0001:0012b694       ?DispatchNodeTimeoutTimerXP@LockQueueNode@details@Concurrency@@SAXPEAXE@Z 000000014012c694 f i libconcrt:rtlocks.obj
 0001:0012b70c       ?UpdateQueuePosition@LockQueueNode@details@Concurrency@@QEAAXPEAV123@@Z 000000014012c70c f i libconcrt:rtlocks.obj
 0001:0012b790       ?_Acquire@_NonReentrantBlockingLock@details@Concurrency@@QEAAXXZ 000000014012c790 f   libconcrt:rtlocks.obj
 0001:0012b790       _Mtxlock                   000000014012c790 f   libcpmt:xmtx.obj
 0001:0012b790       ?_Acquire@_ReentrantBlockingLock@details@Concurrency@@QEAAXXZ 000000014012c790 f   libconcrt:rtlocks.obj
 0001:0012b798       ?_AcquireRead@_ReaderWriterLock@details@Concurrency@@QEAAXXZ 000000014012c798 f   libconcrt:rtlocks.obj
 0001:0012b7d8       ?_AcquireWrite@_ReaderWriterLock@details@Concurrency@@QEAAXXZ 000000014012c7d8 f   libconcrt:rtlocks.obj
 0001:0012b814       ?_Acquire_lock@critical_section@Concurrency@@QEAA_NPEAX_N@Z 000000014012c814 f   libconcrt:rtlocks.obj
 0001:0012b930       ?_FlushWriteOwners@_ReaderWriterLock@details@Concurrency@@QEAAXXZ 000000014012c930 f   libconcrt:rtlocks.obj
 0001:0012b950       ?_Flush_current_owner@critical_section@Concurrency@@QEAAXXZ 000000014012c950 f   libconcrt:rtlocks.obj
 0001:0012b978       ?_Initialize@_SpinCount@details@Concurrency@@SAXXZ 000000014012c978 f   libconcrt:rtlocks.obj
 0001:0012b99c       ?_Release@_ReentrantBlockingLock@details@Concurrency@@QEAAXXZ 000000014012c99c f   libconcrt:rtlocks.obj
 0001:0012b99c       ?_Release@_NonReentrantBlockingLock@details@Concurrency@@QEAAXXZ 000000014012c99c f   libconcrt:rtlocks.obj
 0001:0012b99c       _Mtxunlock                 000000014012c99c f   libcpmt:xmtx.obj
 0001:0012b9a4       ?_ReleaseRead@_ReaderWriterLock@details@Concurrency@@QEAAXXZ 000000014012c9a4 f   libconcrt:rtlocks.obj
 0001:0012b9a8       ?_ReleaseWrite@_ReaderWriterLock@details@Concurrency@@QEAAXXZ 000000014012c9a8 f   libconcrt:rtlocks.obj
 0001:0012b9b4       ?_SpinOnce@?$_SpinWait@$00@details@Concurrency@@QEAA_NXZ 000000014012c9b4 f i libconcrt:rtlocks.obj
 0001:0012ba74       ?_SpinOnce@?$_SpinWait@$0A@@details@Concurrency@@QEAA_NXZ 000000014012ca74 f i libconcrt:rtlocks.obj
 0001:0012bb14       ?_Switch_to_active@critical_section@Concurrency@@AEAAXPEAX@Z 000000014012cb14 f   libconcrt:rtlocks.obj
 0001:0012bb9c       ?_TryAcquireWrite@_ReaderWriterLock@details@Concurrency@@QEAA_NXZ 000000014012cb9c f   libconcrt:rtlocks.obj
 0001:0012bbb4       ?_WaitEquals@_ReaderWriterLock@details@Concurrency@@CAXAEDJJJ@Z 000000014012cbb4 f   libconcrt:rtlocks.obj
 0001:0012bc28       ?lock@critical_section@Concurrency@@QEAAXXZ 000000014012cc28 f   libconcrt:rtlocks.obj
 0001:0012bc64       ?try_lock@critical_section@Concurrency@@QEAA_NXZ 000000014012cc64 f   libconcrt:rtlocks.obj
 0001:0012bcc0       ?try_lock_for@critical_section@Concurrency@@QEAA_NI@Z 000000014012ccc0 f   libconcrt:rtlocks.obj
 0001:0012bd80       ?unlock@critical_section@Concurrency@@QEAAXXZ 000000014012cd80 f   libconcrt:rtlocks.obj
 0001:0012bea8       ??0MultiWaitBlock@details@Concurrency@@QEAA@_K_N1@Z 000000014012cea8 f i libconcrt:event.obj
 0001:0012bf44       ??0MultiWaitBlockHolder@details@Concurrency@@QEAA@_N_K00@Z 000000014012cf44 f   libconcrt:event.obj
 0001:0012c04c       ??0_Condition_variable@details@Concurrency@@QEAA@XZ 000000014012d04c f   libconcrt:event.obj
 0001:0012c070       ??0event@Concurrency@@QEAA@XZ 000000014012d070 f   libconcrt:event.obj
 0001:0012c098       ??1?$_MallocaArrayHolder@PEAVContext@Concurrency@@@details@Concurrency@@UEAA@XZ 000000014012d098 f i libconcrt:event.obj
 0001:0012c0c8       ??1MultiWaitBlockHolder@details@Concurrency@@QEAA@XZ 000000014012d0c8 f   libconcrt:event.obj
 0001:0012c0fc       ??1_Condition_variable@details@Concurrency@@QEAA@XZ 000000014012d0fc f   libconcrt:event.obj
 0001:0012c13c       ??1event@Concurrency@@QEAA@XZ 000000014012d13c f   libconcrt:event.obj
 0001:0012c208       ??_E?$_MallocaArrayHolder@PEAVContext@Concurrency@@@details@Concurrency@@UEAAPEAXI@Z 000000014012d208 f i libconcrt:event.obj
 0001:0012c208       ??_G?$_MallocaArrayHolder@PEAVContext@Concurrency@@@details@Concurrency@@UEAAPEAXI@Z 000000014012d208 f i libconcrt:event.obj
 0001:0012c25c       ?Destroy@TimedSingleWaitBlock@details@Concurrency@@UEAAXXZ 000000014012d25c f   libconcrt:event.obj
 0001:0012c280       ?Destroy@WaitAllBlock@details@Concurrency@@UEAAXXZ 000000014012d280 f   libconcrt:event.obj
 0001:0012c288       ?DispatchEventTimer@MultiWaitBlock@details@Concurrency@@SAXPEAU_TP_CALLBACK_INSTANCE@@PEAXPEAU_TP_TIMER@@@Z 000000014012d288 f   libconcrt:event.obj
 0001:0012c318       ?DispatchEventTimer@TimedSingleWaitBlock@details@Concurrency@@SAXPEAU_TP_CALLBACK_INSTANCE@@PEAXPEAU_TP_TIMER@@@Z 000000014012d318 f   libconcrt:event.obj
 0001:0012c374       ?DispatchEventTimerXP@MultiWaitBlock@details@Concurrency@@SAXPEAXE@Z 000000014012d374 f   libconcrt:event.obj
 0001:0012c3e8       ?DispatchEventTimerXP@TimedSingleWaitBlock@details@Concurrency@@SAXPEAXE@Z 000000014012d3e8 f   libconcrt:event.obj
 0001:0012c41c       ?GetSharedTimerQueue@details@Concurrency@@YAPEAXXZ 000000014012d41c f   libconcrt:event.obj
 0001:0012c4d0       ?NotifyCompletedNode@MultiWaitBlock@details@Concurrency@@QEAAXXZ 000000014012d4d0 f   libconcrt:event.obj
 0001:0012c4f8       ?SweepResetNode@WaitAnyBlock@details@Concurrency@@UEAA_NXZ 000000014012d4f8 f   libconcrt:event.obj
 0001:0012c4f8       ?Destroy@SingleWaitBlock@details@Concurrency@@UEAAXXZ 000000014012d4f8 f   libconcrt:event.obj
 0001:0012c4f8       ?Reset@WaitAnyBlock@details@Concurrency@@UEAA_NXZ 000000014012d4f8 f   libconcrt:event.obj
 0001:0012c4f8       ?Reset@SingleWaitBlock@details@Concurrency@@UEAA_NXZ 000000014012d4f8 f   libconcrt:event.obj
 0001:0012c4f8       ?SweepResetNode@SingleWaitBlock@details@Concurrency@@UEAA_NXZ 000000014012d4f8 f   libconcrt:event.obj
 0001:0012c4fc       ?Reset@WaitAllBlock@details@Concurrency@@UEAA_NXZ 000000014012d4fc f   libconcrt:event.obj
 0001:0012c53c       ?Satisfy@SingleWaitBlock@details@Concurrency@@UEAA_NPEAPEAVContext@3@PEAVEventWaitNode@23@@Z 000000014012d53c f   libconcrt:event.obj
 0001:0012c5a8       ?Satisfy@TimedSingleWaitBlock@details@Concurrency@@UEAA_NPEAPEAVContext@3@PEAVEventWaitNode@23@@Z 000000014012d5a8 f   libconcrt:event.obj
 0001:0012c664       ?Satisfy@WaitAllBlock@details@Concurrency@@UEAA_NPEAPEAVContext@3@PEAVEventWaitNode@23@@Z 000000014012d664 f   libconcrt:event.obj
 0001:0012c6e0       ?Satisfy@WaitAnyBlock@details@Concurrency@@UEAA_NPEAPEAVContext@3@PEAVEventWaitNode@23@@Z 000000014012d6e0 f   libconcrt:event.obj
 0001:0012c758       ?Set@StructuredEvent@details@Concurrency@@QEAAXXZ 000000014012d758 f   libconcrt:event.obj
 0001:0012c7c4       ?SingleSatisfy@MultiWaitBlock@details@Concurrency@@MEAAXPEAPEAVContext@3@PEAVEventWaitNode@23@@Z 000000014012d7c4 f   libconcrt:event.obj
 0001:0012c8b0       ?Sweep@details@Concurrency@@YAPEAVEventWaitNode@12@PEAV312@_N@Z 000000014012d8b0 f   libconcrt:event.obj
 0001:0012c92c       ?SweepResetNode@WaitAllBlock@details@Concurrency@@UEAA_NXZ 000000014012d92c f   libconcrt:event.obj
 0001:0012c97c       __acrt_uninitialize        000000014012d97c f   MSVCRT:ucrt_stubs.obj
 0001:0012c97c       ?AllowGeneralFetchOfReservedContexts@SchedulerBase@details@Concurrency@@MEAA_NXZ 000000014012d97c f   libconcrt:SchedulerBase.obj
 0001:0012c97c       __scrt_stub_for_acrt_initialize 000000014012d97c f   MSVCRT:ucrt_stubs.obj
 0001:0012c97c       __vcrt_uninitialize        000000014012d97c f   MSVCRT:ucrt_stubs.obj
 0001:0012c97c       __vcrt_initialize          000000014012d97c f   MSVCRT:ucrt_stubs.obj
 0001:0012c97c       ?SweepWaitNode@SingleWaitBlock@details@Concurrency@@UEAA_NXZ 000000014012d97c f   libconcrt:event.obj
 0001:0012c97c       __acrt_initialize          000000014012d97c f   MSVCRT:ucrt_stubs.obj
 0001:0012c97c       _should_initialize_environment 000000014012d97c f   MSVCRT:env_mode.obj
 0001:0012c97c       __scrt_stub_for_acrt_uninitialize 000000014012d97c f   MSVCRT:ucrt_stubs.obj
 0001:0012c980       ?SweepWaitNode@TimedSingleWaitBlock@details@Concurrency@@UEAA_NXZ 000000014012d980 f   libconcrt:event.obj
 0001:0012c9bc       ?SweepWaitNode@WaitAllBlock@details@Concurrency@@UEAA_NXZ 000000014012d9bc f   libconcrt:event.obj
 0001:0012ca14       ?SweepWaitNode@WaitAnyBlock@details@Concurrency@@UEAA_NXZ 000000014012da14 f   libconcrt:event.obj
 0001:0012ca64       ?createTimer@TimedSingleWaitBlock@details@Concurrency@@QEAA_NI@Z 000000014012da64 f i libconcrt:event.obj
 0001:0012caf0       ?notify_all@_Condition_variable@details@Concurrency@@QEAAXXZ 000000014012daf0 f   libconcrt:event.obj
 0001:0012cbb4       ?notify_one@_Condition_variable@details@Concurrency@@QEAAXXZ 000000014012dbb4 f   libconcrt:event.obj
 0001:0012ccb4       ?set@event@Concurrency@@QEAAXXZ 000000014012dcb4 f   libconcrt:event.obj
 0001:0012ced0       ?wait@_Condition_variable@details@Concurrency@@QEAAXAEAVcritical_section@3@@Z 000000014012ded0 f   libconcrt:event.obj
 0001:0012cf9c       ?wait@event@Concurrency@@QEAA_KI@Z 000000014012df9c f   libconcrt:event.obj
 0001:0012d0c8       ?wait_for@_Condition_variable@details@Concurrency@@QEAA_NAEAVcritical_section@3@I@Z 000000014012e0c8 f   libconcrt:event.obj
 0001:0012d214       ?wait_for_multiple@event@Concurrency@@SA_KPEAPEAV12@_K_NI@Z 000000014012e214 f   libconcrt:event.obj
 0001:0012d5b4       ??0scheduler_resource_allocation_error@Concurrency@@QEAA@AEBV01@@Z 000000014012e5b4 f i libconcrt:Platform.obj
 0001:0012d604       ??1DefaultWaiterPool@platform@details@Concurrency@@QEAA@XZ 000000014012e604 f i libconcrt:Platform.obj
 0001:0012d66c       ?InitializeSystemFunctionPointers@platform@details@Concurrency@@YAXXZ 000000014012e66c f   libconcrt:Platform.obj
 0001:0012d778       ?__ChangeTimerQueueTimer@platform@details@Concurrency@@YAHPEAX0KK@Z 000000014012e778 f   libconcrt:Platform.obj
 0001:0012d780       ?__CloseThreadHandle@platform@details@Concurrency@@YAXPEAX@Z 000000014012e780 f   libconcrt:Platform.obj
 0001:0012d788       ?__CreateAutoResetEvent@platform@details@Concurrency@@YAPEAX_N@Z 000000014012e788 f   libconcrt:Platform.obj
 0001:0012d7e0       ?__CreateThread@platform@details@Concurrency@@YAPEAXPEAU_SECURITY_ATTRIBUTES@@_KP6AKPEAX@Z2KPEAK@Z 000000014012e7e0 f   libconcrt:Platform.obj
 0001:0012d7e8       ?__CreateTimerQueueTimer@platform@details@Concurrency@@YAHPEAPEAXPEAXP6AX1E@Z1KKK@Z 000000014012e7e8 f   libconcrt:Platform.obj
 0001:0012d7f0       ?__DeleteTimerQueueTimer@platform@details@Concurrency@@YAXPEAX00@Z 000000014012e7f0 f   libconcrt:Platform.obj
 0001:0012d850       ?__GetCurrentProcessorNumberEx@platform@details@Concurrency@@YAXPEAU_PROCESSOR_NUMBER@@@Z 000000014012e850 f   libconcrt:Platform.obj
 0001:0012d888       ?__GetLogicalProcessorInformation@platform@details@Concurrency@@YAPEAU_SYSTEM_LOGICAL_PROCESSOR_INFORMATION@@PEAK@Z 000000014012e888 f   libconcrt:Platform.obj
 0001:0012d954       ?__GetLogicalProcessorInformationEx@platform@details@Concurrency@@YAPEAU_SYSTEM_LOGICAL_PROCESSOR_INFORMATION_EX@@W4_LOGICAL_PROCESSOR_RELATIONSHIP@@PEAK@Z 000000014012e954 f   libconcrt:Platform.obj
 0001:0012daa0       ?__GetNumaHighestNodeNumber@platform@details@Concurrency@@YAKXZ 000000014012eaa0 f   libconcrt:Platform.obj
 0001:0012daec       ?__GetThreadGroupAffinity@platform@details@Concurrency@@YAHPEAXPEAU_GROUP_AFFINITY@@@Z 000000014012eaec f   libconcrt:Platform.obj
 0001:0012db68       ?__GetThreadPriority@platform@details@Concurrency@@YAHPEAX@Z 000000014012eb68 f   libconcrt:Platform.obj
 0001:0012db70       ?__GetTickCount64@platform@details@Concurrency@@YA_KXZ 000000014012eb70 f   libconcrt:Platform.obj
 0001:0012db78       ?__InitializeCriticalSectionEx@platform@details@Concurrency@@YAHPEAU_RTL_CRITICAL_SECTION@@K@Z 000000014012eb78 f   libconcrt:Platform.obj
 0001:0012db80       ?__RegisterWaitForSingleObject@platform@details@Concurrency@@YAPEAXPEAXP6AX0E@Z0@Z 000000014012eb80 f   libconcrt:Platform.obj
 0001:0012dbe4       ?__SetThreadGroupAffinity@platform@details@Concurrency@@YAHPEAXPEBU_GROUP_AFFINITY@@@Z 000000014012ebe4 f   libconcrt:Platform.obj
 0001:0012dc48       ?__SetThreadPriority@platform@details@Concurrency@@YAXPEAXH@Z 000000014012ec48 f   libconcrt:Platform.obj
 0001:0012dc8c       ?__SignalObjectAndWait@platform@details@Concurrency@@YAKPEAX0KH@Z 000000014012ec8c f   libconcrt:Platform.obj
 0001:0012dc94       ?__Sleep@platform@details@Concurrency@@YAXK@Z 000000014012ec94 f   libconcrt:Platform.obj
 0001:0012dc9c       ?__SwitchToThread@platform@details@Concurrency@@YAXXZ 000000014012ec9c f   libconcrt:Platform.obj
 0001:0012dca4       ?__TlsAlloc@platform@details@Concurrency@@YAKXZ 000000014012eca4 f   libconcrt:Platform.obj
 0001:0012dce8       ?__TlsFree@platform@details@Concurrency@@YAXK@Z 000000014012ece8 f   libconcrt:Platform.obj
 0001:0012dcf0       ?__TlsGetValue@platform@details@Concurrency@@YAPEAXK@Z 000000014012ecf0 f   libconcrt:Platform.obj
 0001:0012dcf8       ?__TlsSetValue@platform@details@Concurrency@@YAXKPEAX@Z 000000014012ecf8 f   libconcrt:Platform.obj
 0001:0012dd3c       ?__UnregisterWait@platform@details@Concurrency@@YAXPEAX@Z 000000014012ed3c f   libconcrt:Platform.obj
 0001:0012dd44       ?__WaitForThread@platform@details@Concurrency@@YAKPEAXK@Z 000000014012ed44 f   libconcrt:Platform.obj
 0001:0012dd50       _concrt_static_cleanup     000000014012ed50 f   libconcrt:utils.obj
 0001:0012dd68       ?DeleteAsyncTimerAndUnloadLibrary@details@Concurrency@@YAXPEAU_TP_TIMER@@@Z 000000014012ed68 f   libconcrt:utils.obj
 0001:0012ddb0       ?EncodePointer@Security@details@Concurrency@@SAPEAXPEAX@Z 000000014012edb0 f   libconcrt:utils.obj
 0001:0012ddb0       ?DecodePointer@Security@details@Concurrency@@SAPEAXPEAX@Z 000000014012edb0 f   libconcrt:utils.obj
 0001:0012ddbc       ?FreeLibraryAndDestroyThread@details@Concurrency@@YAXK@Z 000000014012edbc f   libconcrt:utils.obj
 0001:0012ddf4       ?InitializeCookie@Security@details@Concurrency@@SA_KXZ 000000014012edf4 f   libconcrt:utils.obj
 0001:0012de58       ?LoadLibraryAndCreateThread@details@Concurrency@@YAPEAXPEAU_SECURITY_ATTRIBUTES@@_KP6AKPEAX@Z2KPEAK@Z 000000014012ee58 f   libconcrt:utils.obj
 0001:0012dea8       ?ReferenceLoadLibrary@details@Concurrency@@YAXXZ 000000014012eea8 f   libconcrt:utils.obj
 0001:0012df50       ?RegisterAsyncTimerAndLoadLibrary@details@Concurrency@@YAPEAU_TP_TIMER@@KP6AXPEAU_TP_CALLBACK_INSTANCE@@PEAXPEAU3@@Z1_N@Z 000000014012ef50 f   libconcrt:utils.obj
 0001:0012dfc4       ?RegisterAsyncWaitAndLoadLibrary@details@Concurrency@@YAPEAU_TP_WAIT@@PEAXP6AXPEAU_TP_CALLBACK_INSTANCE@@0PEAU3@K@Z0@Z 000000014012efc4 f   libconcrt:utils.obj
 0001:0012e018       ?UnRegisterAsyncTimerAndUnloadLibrary@details@Concurrency@@YAXPEAU_TP_CALLBACK_INSTANCE@@PEAU_TP_TIMER@@@Z 000000014012f018 f   libconcrt:utils.obj
 0001:0012e064       ?UnRegisterAsyncWaitAndUnloadLibrary@details@Concurrency@@YAXPEAU_TP_CALLBACK_INSTANCE@@PEAU_TP_WAIT@@@Z 000000014012f064 f   libconcrt:utils.obj
 0001:0012e0b0       ?_Acquire@_CriticalNonReentrantLock@details@Concurrency@@QEAAXXZ 000000014012f0b0 f   libconcrt:utils.obj
 0001:0012e0f8       ?_Acquire@_HyperNonReentrantLock@details@Concurrency@@QEAAXXZ 000000014012f0f8 f   libconcrt:utils.obj
 0001:0012e140       ?_Release@_CriticalNonReentrantLock@details@Concurrency@@QEAAXXZ 000000014012f140 f   libconcrt:utils.obj
 0001:0012e140       ?_Release@_HyperNonReentrantLock@details@Concurrency@@QEAAXXZ 000000014012f140 f   libconcrt:utils.obj
 0001:0012e14c       ?_Sleep0@details@Concurrency@@YAXXZ 000000014012f14c f   libconcrt:utils.obj
 0001:0012e154       ?_TryAcquire@_CriticalNonReentrantLock@details@Concurrency@@QEAA_NXZ 000000014012f154 f   libconcrt:utils.obj
 0001:0012e18c       ?_UnderlyingYield@details@Concurrency@@YAXXZ 000000014012f18c f   libconcrt:utils.obj
 0001:0012e1cc       ??0context_self_unblock@Concurrency@@QEAA@XZ 000000014012f1cc f   libconcrt:Exceptions.obj
 0001:0012e1e4       ??0context_unblock_unbalanced@Concurrency@@QEAA@XZ 000000014012f1e4 f   libconcrt:Exceptions.obj
 0001:0012e1fc       ??0improper_lock@Concurrency@@QEAA@PEBD@Z 000000014012f1fc f   libconcrt:Exceptions.obj
 0001:0012e248       ??0improper_scheduler_attach@Concurrency@@QEAA@XZ 000000014012f248 f   libconcrt:Exceptions.obj
 0001:0012e260       ??0improper_scheduler_reference@Concurrency@@QEAA@XZ 000000014012f260 f   libconcrt:Exceptions.obj
 0001:0012e278       ??0invalid_oversubscribe_operation@Concurrency@@QEAA@XZ 000000014012f278 f   libconcrt:Exceptions.obj
 0001:0012e290       ??0invalid_scheduler_policy_key@Concurrency@@QEAA@PEBD@Z 000000014012f290 f   libconcrt:Exceptions.obj
 0001:0012e2dc       ??0invalid_scheduler_policy_thread_specification@Concurrency@@QEAA@XZ 000000014012f2dc f   libconcrt:Exceptions.obj
 0001:0012e2f4       ??0invalid_scheduler_policy_value@Concurrency@@QEAA@PEBD@Z 000000014012f2f4 f   libconcrt:Exceptions.obj
 0001:0012e340       ??0missing_wait@Concurrency@@QEAA@XZ 000000014012f340 f   libconcrt:Exceptions.obj
 0001:0012e358       ??0nested_scheduler_missing_detach@Concurrency@@QEAA@XZ 000000014012f358 f   libconcrt:Exceptions.obj
 0001:0012e370       ??0scheduler_resource_allocation_error@Concurrency@@QEAA@J@Z 000000014012f370 f   libconcrt:Exceptions.obj
 0001:0012e38c       ??0scheduler_worker_creation_error@Concurrency@@QEAA@J@Z 000000014012f38c f   libconcrt:Exceptions.obj
 0001:0012e3a8       ??0unsupported_os@Concurrency@@QEAA@XZ 000000014012f3a8 f   libconcrt:Exceptions.obj
 0001:0012e3c0       ??1improper_lock@Concurrency@@UEAA@XZ 000000014012f3c0 f i libconcrt:rtlocks.obj
 0001:0012e3c0       ??1bad_exception@std@@UEAA@XZ 000000014012f3c0 f i libcpmt:excptptr.obj
 0001:0012e3c0       ??1bad_alloc@std@@UEAA@XZ  000000014012f3c0 f i libcpmt:xthrow.obj
 0001:0012e3c0       ??1invalid_oversubscribe_operation@Concurrency@@UEAA@XZ 000000014012f3c0 f i libconcrt:Exceptions.obj
 0001:0012e3c0       ??1scheduler_resource_allocation_error@Concurrency@@UEAA@XZ 000000014012f3c0 f i libconcrt:Platform.obj
 0001:0012e3c0       ??1_Interruption_exception@details@Concurrency@@UEAA@XZ 000000014012f3c0 f i libconcrt:TaskCollection.obj
 0001:0012e3c0       ??1context_self_unblock@Concurrency@@UEAA@XZ 000000014012f3c0 f i libconcrt:Exceptions.obj
 0001:0012e3c0       ??1improper_scheduler_reference@Concurrency@@UEAA@XZ 000000014012f3c0 f i libconcrt:Exceptions.obj
 0001:0012e3c0       ??1context_unblock_unbalanced@Concurrency@@UEAA@XZ 000000014012f3c0 f i libconcrt:Exceptions.obj
 0001:0012e3c0       ??1unsupported_os@Concurrency@@UEAA@XZ 000000014012f3c0 f i libconcrt:Exceptions.obj
 0001:0012e3c0       ??1invalid_operation@Concurrency@@UEAA@XZ 000000014012f3c0 f i libconcrt:ResourceManager.obj
 0001:0012e3c0       ??1missing_wait@Concurrency@@UEAA@XZ 000000014012f3c0 f i libconcrt:Exceptions.obj
 0001:0012e3c0       ??1invalid_scheduler_policy_key@Concurrency@@UEAA@XZ 000000014012f3c0 f i libconcrt:Exceptions.obj
 0001:0012e3c0       ??1invalid_argument@std@@UEAA@XZ 000000014012f3c0 f i libcpmt:xthrow.obj
 0001:0012e3c0       ??1invalid_scheduler_policy_thread_specification@Concurrency@@UEAA@XZ 000000014012f3c0 f i libconcrt:Exceptions.obj
 0001:0012e3c0       ??1bad_array_new_length@std@@UEAA@XZ 000000014012f3c0 f i MSVCRT:throw_bad_alloc.obj
 0001:0012e3c0       ??1out_of_range@std@@UEAA@XZ 000000014012f3c0 f i libcpmt:xthrow.obj
 0001:0012e3c0       ??1scheduler_worker_creation_error@Concurrency@@UEAA@XZ 000000014012f3c0 f i libconcrt:Exceptions.obj
 0001:0012e3c0       ??1invalid_scheduler_policy_value@Concurrency@@UEAA@XZ 000000014012f3c0 f i libconcrt:Exceptions.obj
 0001:0012e3c0       ??1length_error@std@@UEAA@XZ 000000014012f3c0 f i libcpmt:xthrow.obj
 0001:0012e3c0       ??1improper_scheduler_attach@Concurrency@@UEAA@XZ 000000014012f3c0 f i libconcrt:Exceptions.obj
 0001:0012e3c0       ??1nested_scheduler_missing_detach@Concurrency@@UEAA@XZ 000000014012f3c0 f i libconcrt:Exceptions.obj
 0001:0012e3d4       ??_Gscheduler_worker_creation_error@Concurrency@@UEAAPEAXI@Z 000000014012f3d4 f i libconcrt:Exceptions.obj
 0001:0012e3d4       ??_Escheduler_resource_allocation_error@Concurrency@@UEAAPEAXI@Z 000000014012f3d4 f i libconcrt:Platform.obj
 0001:0012e3d4       ??_Gscheduler_resource_allocation_error@Concurrency@@UEAAPEAXI@Z 000000014012f3d4 f i libconcrt:Platform.obj
 0001:0012e3d4       ??_Escheduler_worker_creation_error@Concurrency@@UEAAPEAXI@Z 000000014012f3d4 f i libconcrt:Exceptions.obj
 0001:0012e418       ?Block@Context@Concurrency@@SAXXZ 000000014012f418 f   libconcrt:Context.obj
 0001:0012e46c       ?CurrentContext@Context@Concurrency@@SAPEAV12@XZ 000000014012f46c f   libconcrt:Context.obj
 0001:0012e498       ??0HardwareAffinity@details@Concurrency@@QEAA@PEAX@Z 000000014012f498 f   libconcrt:ResourceManager.obj
 0001:0012e4c4       ??0ResourceManager@details@Concurrency@@AEAA@XZ 000000014012f4c4 f   libconcrt:ResourceManager.obj
 0001:0012e5e4       ??0invalid_operation@Concurrency@@QEAA@AEBV01@@Z 000000014012f5e4 f i libconcrt:ResourceManager.obj
 0001:0012e624       ??0invalid_operation@Concurrency@@QEAA@XZ 000000014012f624 f i libconcrt:ResourceManager.obj
 0001:0012e63c       ??0unsupported_os@Concurrency@@QEAA@AEBV01@@Z 000000014012f63c f i libconcrt:ResourceManager.obj
 0001:0012e67c       ??1GlobalNode@details@Concurrency@@QEAA@XZ 000000014012f67c f i libconcrt:ResourceManager.obj
 0001:0012e68c       ??1ResourceManager@details@Concurrency@@AEAA@XZ 000000014012f68c f   libconcrt:ResourceManager.obj
 0001:0012e7c4       ??1_Scoped_lock@_NonReentrantBlockingLock@details@Concurrency@@QEAA@XZ 000000014012f7c4 f i libconcrt:ResourceManager.obj
 0001:0012e7e0       ??1_Scoped_lock@_NonReentrantLock@details@Concurrency@@QEAA@XZ 000000014012f7e0 f i libconcrt:ResourceManager.obj
 0001:0012e7ec       ??_Econtext_self_unblock@Concurrency@@UEAAPEAXI@Z 000000014012f7ec f i libconcrt:Exceptions.obj
 0001:0012e7ec       ??_Ginvalid_scheduler_policy_value@Concurrency@@UEAAPEAXI@Z 000000014012f7ec f i libconcrt:Exceptions.obj
 0001:0012e7ec       ??_Ebad_exception@std@@UEAAPEAXI@Z 000000014012f7ec f i libcpmt:excptptr.obj
 0001:0012e7ec       ??_Gmissing_wait@Concurrency@@UEAAPEAXI@Z 000000014012f7ec f i libconcrt:Exceptions.obj
 0001:0012e7ec       ??_Eimproper_scheduler_attach@Concurrency@@UEAAPEAXI@Z 000000014012f7ec f i libconcrt:Exceptions.obj
 0001:0012e7ec       ??_Einvalid_scheduler_policy_key@Concurrency@@UEAAPEAXI@Z 000000014012f7ec f i libconcrt:Exceptions.obj
 0001:0012e7ec       ??_Eunsupported_os@Concurrency@@UEAAPEAXI@Z 000000014012f7ec f i libconcrt:Exceptions.obj
 0001:0012e7ec       ??_Ginvalid_scheduler_policy_key@Concurrency@@UEAAPEAXI@Z 000000014012f7ec f i libconcrt:Exceptions.obj
 0001:0012e7ec       ??_Ebad_alloc@std@@UEAAPEAXI@Z 000000014012f7ec f i libcpmt:xthrow.obj
 0001:0012e7ec       ??_Gimproper_scheduler_attach@Concurrency@@UEAAPEAXI@Z 000000014012f7ec f i libconcrt:Exceptions.obj
 0001:0012e7ec       ??_Gnested_scheduler_missing_detach@Concurrency@@UEAAPEAXI@Z 000000014012f7ec f i libconcrt:Exceptions.obj
 0001:0012e7ec       ??_Ebad_array_new_length@std@@UEAAPEAXI@Z 000000014012f7ec f i MSVCRT:throw_bad_alloc.obj
 0001:0012e7ec       ??_G_Interruption_exception@details@Concurrency@@UEAAPEAXI@Z 000000014012f7ec f i libconcrt:TaskCollection.obj
 0001:0012e7ec       ??_Glogic_error@std@@UEAAPEAXI@Z 000000014012f7ec f i libcpmt:xthrow.obj
 0001:0012e7ec       ??_Ginvalid_scheduler_policy_thread_specification@Concurrency@@UEAAPEAXI@Z 000000014012f7ec f i libconcrt:Exceptions.obj
 0001:0012e7ec       ??_Elength_error@std@@UEAAPEAXI@Z 000000014012f7ec f i libcpmt:xthrow.obj
 0001:0012e7ec       ??_Gcontext_unblock_unbalanced@Concurrency@@UEAAPEAXI@Z 000000014012f7ec f i libconcrt:Exceptions.obj
 0001:0012e7ec       ??_Ginvalid_oversubscribe_operation@Concurrency@@UEAAPEAXI@Z 000000014012f7ec f i libconcrt:Exceptions.obj
 0001:0012e7ec       ??_Gcontext_self_unblock@Concurrency@@UEAAPEAXI@Z 000000014012f7ec f i libconcrt:Exceptions.obj
 0001:0012e7ec       ??_Elogic_error@std@@UEAAPEAXI@Z 000000014012f7ec f i libcpmt:xthrow.obj
 0001:0012e7ec       ??_Gimproper_lock@Concurrency@@UEAAPEAXI@Z 000000014012f7ec f i libconcrt:rtlocks.obj
 0001:0012e7ec       ??_Gout_of_range@std@@UEAAPEAXI@Z 000000014012f7ec f i libcpmt:xthrow.obj
 0001:0012e7ec       ??_Ginvalid_argument@std@@UEAAPEAXI@Z 000000014012f7ec f i libcpmt:xthrow.obj
 0001:0012e7ec       ??_Einvalid_oversubscribe_operation@Concurrency@@UEAAPEAXI@Z 000000014012f7ec f i libconcrt:Exceptions.obj
 0001:0012e7ec       ??_Emissing_wait@Concurrency@@UEAAPEAXI@Z 000000014012f7ec f i libconcrt:Exceptions.obj
 0001:0012e7ec       ??_Einvalid_scheduler_policy_value@Concurrency@@UEAAPEAXI@Z 000000014012f7ec f i libconcrt:Exceptions.obj
 0001:0012e7ec       ??_Ginvalid_operation@Concurrency@@UEAAPEAXI@Z 000000014012f7ec f i libconcrt:ResourceManager.obj
 0001:0012e7ec       ??_Eout_of_range@std@@UEAAPEAXI@Z 000000014012f7ec f i libcpmt:xthrow.obj
 0001:0012e7ec       ??_Gbad_array_new_length@std@@UEAAPEAXI@Z 000000014012f7ec f i MSVCRT:throw_bad_alloc.obj
 0001:0012e7ec       ??_Glength_error@std@@UEAAPEAXI@Z 000000014012f7ec f i libcpmt:xthrow.obj
 0001:0012e7ec       ??_Econtext_unblock_unbalanced@Concurrency@@UEAAPEAXI@Z 000000014012f7ec f i libconcrt:Exceptions.obj
 0001:0012e7ec       ??_Gbad_alloc@std@@UEAAPEAXI@Z 000000014012f7ec f i libcpmt:xthrow.obj
 0001:0012e7ec       ??_E_Interruption_exception@details@Concurrency@@UEAAPEAXI@Z 000000014012f7ec f i libconcrt:TaskCollection.obj
 0001:0012e7ec       ??_Gunsupported_os@Concurrency@@UEAAPEAXI@Z 000000014012f7ec f i libconcrt:Exceptions.obj
 0001:0012e7ec       ??_Eimproper_lock@Concurrency@@UEAAPEAXI@Z 000000014012f7ec f i libconcrt:rtlocks.obj
 0001:0012e7ec       ??_Gbad_exception@std@@UEAAPEAXI@Z 000000014012f7ec f i libcpmt:excptptr.obj
 0001:0012e7ec       ??_Gimproper_scheduler_reference@Concurrency@@UEAAPEAXI@Z 000000014012f7ec f i libconcrt:Exceptions.obj
 0001:0012e7ec       ??_Enested_scheduler_missing_detach@Concurrency@@UEAAPEAXI@Z 000000014012f7ec f i libconcrt:Exceptions.obj
 0001:0012e7ec       ??_Einvalid_scheduler_policy_thread_specification@Concurrency@@UEAAPEAXI@Z 000000014012f7ec f i libconcrt:Exceptions.obj
 0001:0012e7ec       ??_Eimproper_scheduler_reference@Concurrency@@UEAAPEAXI@Z 000000014012f7ec f i libconcrt:Exceptions.obj
 0001:0012e7ec       ??_Einvalid_argument@std@@UEAAPEAXI@Z 000000014012f7ec f i libcpmt:xthrow.obj
 0001:0012e7ec       ??_Einvalid_operation@Concurrency@@UEAAPEAXI@Z 000000014012f7ec f i libconcrt:ResourceManager.obj
 0001:0012e830       ?AdjustDynamicAllocation@ResourceManager@details@Concurrency@@AEAAIIII@Z 000000014012f830 f   libconcrt:ResourceManager.obj
 0001:0012e904       ?ApplyAffinityRestrictions@ResourceManager@details@Concurrency@@CAXPEAU_GROUP_AFFINITY@@@Z 000000014012f904 f   libconcrt:ResourceManager.obj
 0001:0012e9c8       ?ApplyAffinityRestrictions@ResourceManager@details@Concurrency@@CAXPEA_K@Z 000000014012f9c8 f   libconcrt:ResourceManager.obj
 0001:0012ea00       ?ApplyTo@HardwareAffinity@details@Concurrency@@QEAAXPEAX@Z 000000014012fa00 f   libconcrt:ResourceManager.obj
 0001:0012ea10       ?CaptureProcessAffinity@ResourceManager@details@Concurrency@@CAXXZ 000000014012fa10 f   libconcrt:ResourceManager.obj
 0001:0012eb98       ?CleanupTopologyInformation@ResourceManager@details@Concurrency@@CAXXZ 000000014012fb98 f   libconcrt:ResourceManager.obj
 0001:0012ebbc       ?CommitStolenCores@ResourceManager@details@Concurrency@@AEAAXPEAVSchedulerProxy@23@@Z 000000014012fbbc f   libconcrt:ResourceManager.obj
 0001:0012ece0       ?CreateAllocatedNodeData@ResourceManager@details@Concurrency@@QEAAPEAUSchedulerNode@23@XZ 000000014012fce0 f   libconcrt:ResourceManager.obj
 0001:0012ee40       ?CreateDynamicRMWorker@ResourceManager@details@Concurrency@@AEAAXXZ 000000014012fe40 f   libconcrt:ResourceManager.obj
 0001:0012eeb8       ?CreateResourceManager@Concurrency@@YAPEAUIResourceManager@1@XZ 000000014012feb8 f   libconcrt:ResourceManager.obj
 0001:0012eec0       ?CreateSchedulerProxy@ResourceManager@details@Concurrency@@AEAAPEAVSchedulerProxy@23@PEAUIScheduler@3@@Z 000000014012fec0 f   libconcrt:ResourceManager.obj
 0001:0012ef44       ?CreateSingleton@ResourceManager@details@Concurrency@@SAPEAV123@XZ 000000014012ff44 f   libconcrt:ResourceManager.obj
 0001:0012f030       ?CurrentSubscriptionLevel@ResourceManager@details@Concurrency@@QEAAIII@Z 0000000140130030 f   libconcrt:ResourceManager.obj
 0001:0012f0dc       ?DestroyAllocatedNodeData@ResourceManager@details@Concurrency@@QEAAXPEAUSchedulerNode@23@@Z 00000001401300dc f   libconcrt:ResourceManager.obj
 0001:0012f128       ?DetermineTopology@ResourceManager@details@Concurrency@@AEAAXXZ 0000000140130128 f   libconcrt:ResourceManager.obj
 0001:0012f508       ?DiscardExistingSchedulerStatistics@ResourceManager@details@Concurrency@@AEAAXXZ 0000000140130508 f   libconcrt:ResourceManager.obj
 0001:0012f58c       ?DistributeCoresToSurvivingScheduler@ResourceManager@details@Concurrency@@AEAA_NXZ 000000014013058c f   libconcrt:ResourceManager.obj
 0001:0012f788       ?DistributeExclusiveCores@ResourceManager@details@Concurrency@@AEAAXIIIII@Z 0000000140130788 f   libconcrt:ResourceManager.obj
 0001:0012f910       ?DistributeIdleCores@ResourceManager@details@Concurrency@@AEAAXII@Z 0000000140130910 f   libconcrt:ResourceManager.obj
 0001:0012fad8       ?DoCoreMigration@ResourceManager@details@Concurrency@@AEAAXXZ 0000000140130ad8 f   libconcrt:ResourceManager.obj
 0001:0012fd70       ?DynamicAssignCores@ResourceManager@details@Concurrency@@AEAAXPEAVSchedulerProxy@23@II_N@Z 0000000140130d70 f   libconcrt:ResourceManager.obj
 0001:0012fe14       ?DynamicMigrateCores@ResourceManager@details@Concurrency@@AEAAXPEAUDynamicAllocationData@23@PEAVSchedulerProxy@23@II@Z 0000000140130e14 f   libconcrt:ResourceManager.obj
 0001:0012ffec       ?DynamicRMThreadProc@ResourceManager@details@Concurrency@@CAKPEAX@Z 0000000140130fec f   libconcrt:ResourceManager.obj
 0001:00130004       ?DynamicResourceManager@ResourceManager@details@Concurrency@@AEAAXXZ 0000000140131004 f   libconcrt:ResourceManager.obj
 0001:00130120       ?FindBestFitExclusiveAllocation@ResourceManager@details@Concurrency@@AEAAIAEAI0PEAUDynamicAllocationData@23@II@Z 0000000140131120 f   libconcrt:ResourceManager.obj
 0001:001304d0       ?FindBestFitIdleAllocation@ResourceManager@details@Concurrency@@AEAAIIPEAUDynamicAllocationData@23@I@Z 00000001401314d0 f   libconcrt:ResourceManager.obj
 0001:001305ec       ?FindCoreForPartiallyFilledNode@ResourceManager@details@Concurrency@@AEAA_NAEAI0PEAUDynamicAllocationData@23@I@Z 00000001401315ec f   libconcrt:ResourceManager.obj
 0001:00130744       ?FlushStoreBuffers@ResourceManager@details@Concurrency@@QEAAXXZ 0000000140131744 f   libconcrt:ResourceManager.obj
 0001:00130780       ?GetCoreCount@ResourceManager@details@Concurrency@@SAIXZ 0000000140131780 f   libconcrt:ResourceManager.obj
 0001:00130804       ?GetCurrentNodeAndCore@ResourceManager@details@Concurrency@@QEAAIPEAI@Z 0000000140131804 f   libconcrt:ResourceManager.obj
 0001:00130944       ?GetExecutionResourceCount@TopologyObject@GlobalNode@details@Concurrency@@UEBAIXZ 0000000140131944 f i libconcrt:ResourceManager.obj
 0001:0013094c       ?GetFirstExecutionResource@TopologyObject@GlobalNode@details@Concurrency@@UEBAPEAUITopologyExecutionResource@4@XZ 000000014013194c f i libconcrt:ResourceManager.obj
 0001:0013095c       ?GetFirstNode@ResourceManager@details@Concurrency@@UEBAPEAUITopologyNode@3@XZ 000000014013195c f i libconcrt:ResourceManager.obj
 0001:00130968       ?GetId@TopologyObject@GlobalCore@details@Concurrency@@UEBAIXZ 0000000140131968 f i libconcrt:ResourceManager.obj
 0001:00130970       ?GetId@TopologyObject@GlobalNode@details@Concurrency@@UEBAIXZ 0000000140131970 f i libconcrt:ResourceManager.obj
 0001:00130978       ?GetNext@TopologyObject@GlobalCore@details@Concurrency@@UEBAPEAUITopologyExecutionResource@4@XZ 0000000140131978 f   libconcrt:ResourceManager.obj
 0001:001309cc       ?GetNext@TopologyObject@GlobalNode@details@Concurrency@@UEBAPEAUITopologyNode@4@XZ 00000001401319cc f   libconcrt:ResourceManager.obj
 0001:00130a04       ?GetNodeCount@ResourceManager@details@Concurrency@@SAIXZ 0000000140131a04 f   libconcrt:ResourceManager.obj
 0001:00130a88       ?GetNumaNode@TopologyObject@GlobalNode@details@Concurrency@@UEBAKXZ 0000000140131a88 f i libconcrt:ResourceManager.obj
 0001:00130a90       ?GetOSVersion@Concurrency@@YA?AW4OSVersion@IResourceManager@1@XZ 0000000140131a90 f   libconcrt:ResourceManager.obj
 0001:00130a98       ?GetProcessorCount@Concurrency@@YAIXZ 0000000140131a98 f   libconcrt:ResourceManager.obj
 0001:00130aa0       ?GetProcessorNodeCount@Concurrency@@YAIXZ 0000000140131aa0 f   libconcrt:ResourceManager.obj
 0001:00130aa8       ?GetSchedulerId@Concurrency@@YAIXZ 0000000140131aa8 f   libconcrt:ResourceManager.obj
 0001:00130ab8       ?GetTopologyInformation@ResourceManager@details@Concurrency@@CAXW4_LOGICAL_PROCESSOR_RELATIONSHIP@@@Z 0000000140131ab8 f   libconcrt:ResourceManager.obj
 0001:00130aec       ?HandleBorrowedCores@ResourceManager@details@Concurrency@@AEAAXPEAVSchedulerProxy@23@PEAUAllocationData@23@@Z 0000000140131aec f   libconcrt:ResourceManager.obj
 0001:00130c38       ?HandleSharedCores@ResourceManager@details@Concurrency@@AEAAXPEAVSchedulerProxy@23@PEAUDynamicAllocationData@23@@Z 0000000140131c38 f   libconcrt:ResourceManager.obj
 0001:00130d9c       ?IncreaseFullyLoadedSchedulerAllocations@ResourceManager@details@Concurrency@@AEAAXXZ 0000000140131d9c f   libconcrt:ResourceManager.obj
 0001:00130e00       ?Initialize@GlobalNode@details@Concurrency@@QEAAXPEAVResourceManager@23@GG_KII@Z 0000000140131e00 f i libconcrt:ResourceManager.obj
 0001:00130fe8       ?InitializeRMBuffers@ResourceManager@details@Concurrency@@AEAAXXZ 0000000140131fe8 f   libconcrt:ResourceManager.obj
 0001:001310e8       ?InitializeSystemInformation@ResourceManager@details@Concurrency@@CAX_N@Z 00000001401320e8 f   libconcrt:ResourceManager.obj
 0001:001313a4       ?PerformAllocation@ResourceManager@details@Concurrency@@QEAAPEAVExecutionResource@23@PEAVSchedulerProxy@23@_N1@Z 00000001401323a4 f   libconcrt:ResourceManager.obj
 0001:001315c0       ?PopulateCommonAllocationData@ResourceManager@details@Concurrency@@AEAAXIPEAVSchedulerProxy@23@PEAUAllocationData@23@@Z 00000001401325c0 f   libconcrt:ResourceManager.obj
 0001:00131694       ?PopulateDynamicAllocationData@ResourceManager@details@Concurrency@@AEAAXXZ 0000000140132694 f   libconcrt:ResourceManager.obj
 0001:00131804       ?PreProcessDynamicAllocationData@ResourceManager@details@Concurrency@@AEAAXXZ 0000000140132804 f   libconcrt:ResourceManager.obj
 0001:0013191c       ?PreProcessStaticAllocationData@ResourceManager@details@Concurrency@@AEAAXXZ 000000014013291c f   libconcrt:ResourceManager.obj
 0001:00131960       ?PrepareReceiversForCoreTransfer@ResourceManager@details@Concurrency@@AEAAII@Z 0000000140132960 f   libconcrt:ResourceManager.obj
 0001:00131be0       ?RedistributeCoresAmongAll@ResourceManager@details@Concurrency@@AEAAIPEAVSchedulerProxy@23@III@Z 0000000140132be0 f   libconcrt:ResourceManager.obj
 0001:00131fcc       ?Reference@ResourceManager@details@Concurrency@@UEAAIXZ 0000000140132fcc f   libconcrt:ResourceManager.obj
 0001:00131fdc       ?RegisterScheduler@ResourceManager@details@Concurrency@@UEAAPEAUISchedulerProxy@3@PEAUIScheduler@3@I@Z 0000000140132fdc f   libconcrt:ResourceManager.obj
 0001:00132040       ?Release@ResourceManager@details@Concurrency@@UEAAIXZ 0000000140133040 f   libconcrt:ResourceManager.obj
 0001:00132134       ?ReleaseCoresOnExistingSchedulers@ResourceManager@details@Concurrency@@AEAAIPEAVSchedulerProxy@23@II@Z 0000000140133134 f   libconcrt:ResourceManager.obj
 0001:001321d8       ?ReleaseSchedulerResources@ResourceManager@details@Concurrency@@AEAA_NPEAVSchedulerProxy@23@0I@Z 00000001401331d8 f   libconcrt:ResourceManager.obj
 0001:00132304       ?RemoveExecutionResource@ResourceManager@details@Concurrency@@QEAAXPEAVExecutionResource@23@@Z 0000000140133304 f   libconcrt:ResourceManager.obj
 0001:001323ac       ?RequestInitialVirtualProcessors@ResourceManager@details@Concurrency@@QEAAPEAUIExecutionResource@3@PEAVSchedulerProxy@23@_N@Z 00000001401333ac f   libconcrt:ResourceManager.obj
 0001:0013254c       ?ReserveAtHigherUseCounts@ResourceManager@details@Concurrency@@AEAAIPEAVSchedulerProxy@23@I@Z 000000014013354c f   libconcrt:ResourceManager.obj
 0001:001325b0       ?ReserveCores@ResourceManager@details@Concurrency@@AEAAIPEAVSchedulerProxy@23@II@Z 00000001401335b0 f   libconcrt:ResourceManager.obj
 0001:001327b0       ?ResetGlobalAllocationData@ResourceManager@details@Concurrency@@AEAAXXZ 00000001401337b0 f   libconcrt:ResourceManager.obj
 0001:00132804       ?RetrieveSystemVersionInformation@ResourceManager@details@Concurrency@@CAXXZ 0000000140133804 f   libconcrt:ResourceManager.obj
 0001:0013291c       ?RoundUpScaledAllocations@ResourceManager@details@Concurrency@@CAXPEAPEAUAllocationData@23@II@Z 000000014013391c f   libconcrt:ResourceManager.obj
 0001:00132ad4       ?SendResourceNotifications@ResourceManager@details@Concurrency@@QEAAXPEAVSchedulerProxy@23@@Z 0000000140133ad4 f   libconcrt:ResourceManager.obj
 0001:00132c9c       ?SetupStaticAllocationData@ResourceManager@details@Concurrency@@AEAAXPEAVSchedulerProxy@23@_N@Z 0000000140133c9c f   libconcrt:ResourceManager.obj
 0001:00132db8       ?Shutdown@ResourceManager@details@Concurrency@@QEAAXPEAVSchedulerProxy@23@@Z 0000000140133db8 f   libconcrt:ResourceManager.obj
 0001:00132ee0       ?SubscribeCurrentThread@ResourceManager@details@Concurrency@@QEAAPEAVExecutionResource@23@PEAVSchedulerProxy@23@@Z 0000000140133ee0 f   libconcrt:ResourceManager.obj
 0001:00132f58       ?ToggleRMIdleState@ResourceManager@details@Concurrency@@AEAAXPEAUSchedulerNode@23@PEAUSchedulerCore@23@PEAUGlobalNode@23@PEAUGlobalCore@23@PEAUAllocationData@23@@Z 0000000140133f58 f   libconcrt:ResourceManager.obj
 0001:00132fc0       ?Version@ResourceManager@details@Concurrency@@SA?AW4OSVersion@IResourceManager@3@XZ 0000000140133fc0 f   libconcrt:ResourceManager.obj
 0001:00133040       ??0NumaInformation@SchedulerBase@details@Concurrency@@QEAA@XZ 0000000140134040 f i libconcrt:SchedulerBase.obj
 0001:00133054       ??0SchedulerBase@details@Concurrency@@QEAA@AEBVSchedulerPolicy@2@@Z 0000000140134054 f   libconcrt:SchedulerBase.obj
 0001:0013345c       ??0improper_scheduler_attach@Concurrency@@QEAA@AEBV01@@Z 000000014013445c f i libconcrt:SchedulerBase.obj
 0001:0013349c       ??0improper_scheduler_reference@Concurrency@@QEAA@AEBV01@@Z 000000014013449c f i libconcrt:SchedulerBase.obj
 0001:001334dc       ??1?$Hash@II@details@Concurrency@@QEAA@XZ 00000001401344dc f i libconcrt:SchedulerBase.obj
 0001:001334f8       ??1?$ListArray@VExternalStatistics@details@Concurrency@@@details@Concurrency@@QEAA@XZ 00000001401344f8 f i libconcrt:SchedulerBase.obj
 0001:001335ec       ??1?$ListArray@VScheduleGroupBase@details@Concurrency@@@details@Concurrency@@QEAA@XZ 00000001401345ec f i libconcrt:SchedulerBase.obj
 0001:00133730       ??1NumaInformation@SchedulerBase@details@Concurrency@@QEAA@XZ 0000000140134730 f i libconcrt:SchedulerBase.obj
 0001:00133750       ??1QuickBitSet@details@Concurrency@@QEAA@XZ 0000000140134750 f i libconcrt:SchedulerBase.obj
 0001:0013375c       ??1ReferenceCountedQuickBitSet@details@Concurrency@@QEAA@XZ 000000014013475c f i libconcrt:SchedulerBase.obj
 0001:0013377c       ??1ScheduleGroup@Concurrency@@MEAA@XZ 000000014013477c f i libconcrt:SchedulerBase.obj
 0001:00133788       ??1Scheduler@Concurrency@@MEAA@XZ 0000000140134788 f i libconcrt:SchedulerBase.obj
 0001:00133794       ??1SchedulerBase@details@Concurrency@@UEAA@XZ 0000000140134794 f   libconcrt:SchedulerBase.obj
 0001:00133884       ??1_Scoped_lock@_HyperNonReentrantLock@details@Concurrency@@QEAA@XZ 0000000140134884 f i libconcrt:SchedulerBase.obj
 0001:001338a0       ??_GScheduleGroupBase@details@Concurrency@@UEAAPEAXI@Z 00000001401348a0 f i libconcrt:ScheduleGroupBase.obj
 0001:001338a0       ??_EScheduleGroupBase@details@Concurrency@@UEAAPEAXI@Z 00000001401348a0 f i libconcrt:ScheduleGroupBase.obj
 0001:001338a0       ??_ECacheLocalScheduleGroup@details@Concurrency@@UEAAPEAXI@Z 00000001401348a0 f i libconcrt:SchedulerBase.obj
 0001:001338a0       ??_GCacheLocalScheduleGroup@details@Concurrency@@UEAAPEAXI@Z 00000001401348a0 f i libconcrt:SchedulerBase.obj
 0001:001338cc       ??_GCacheLocalScheduleGroupSegment@details@Concurrency@@UEAAPEAXI@Z 00000001401348cc f i libconcrt:SchedulerBase.obj
 0001:001338cc       ??_ECacheLocalScheduleGroupSegment@details@Concurrency@@UEAAPEAXI@Z 00000001401348cc f i libconcrt:SchedulerBase.obj
 0001:001338cc       ??_GFairScheduleGroupSegment@details@Concurrency@@UEAAPEAXI@Z 00000001401348cc f i libconcrt:SchedulerBase.obj
 0001:001338cc       ??_EFairScheduleGroupSegment@details@Concurrency@@UEAAPEAXI@Z 00000001401348cc f i libconcrt:SchedulerBase.obj
 0001:00133900       ??_GFairScheduleGroup@details@Concurrency@@UEAAPEAXI@Z 0000000140134900 f i libconcrt:SchedulerBase.obj
 0001:00133900       ??_EFairScheduleGroup@details@Concurrency@@UEAAPEAXI@Z 0000000140134900 f i libconcrt:SchedulerBase.obj
 0001:0013392c       ??_GRealizedChore@details@Concurrency@@UEAAPEAXI@Z 000000014013492c f i libconcrt:SchedulerBase.obj
 0001:0013392c       ??_ERealizedChore@details@Concurrency@@UEAAPEAXI@Z 000000014013492c f i libconcrt:SchedulerBase.obj
 0001:00133958       ??_GScheduleGroup@Concurrency@@MEAAPEAXI@Z 0000000140134958 f i libconcrt:SchedulerBase.obj
 0001:00133958       ??_EScheduleGroup@Concurrency@@MEAAPEAXI@Z 0000000140134958 f i libconcrt:SchedulerBase.obj
 0001:00133984       ??_GScheduler@Concurrency@@MEAAPEAXI@Z 0000000140134984 f i libconcrt:SchedulerBase.obj
 0001:00133984       ??_EScheduler@Concurrency@@MEAAPEAXI@Z 0000000140134984 f i libconcrt:SchedulerBase.obj
 0001:001339b0       ??_GSchedulerBase@details@Concurrency@@UEAAPEAXI@Z 00000001401349b0 f i libconcrt:SchedulerBase.obj
 0001:001339b0       ??_ESchedulerBase@details@Concurrency@@UEAAPEAXI@Z 00000001401349b0 f i libconcrt:SchedulerBase.obj
 0001:001339e4       ??_G_Chore@details@Concurrency@@MEAAPEAXI@Z 00000001401349e4 f i libconcrt:SchedulerBase.obj
 0001:001339e4       ??_E_Chore@details@Concurrency@@MEAAPEAXI@Z 00000001401349e4 f i libconcrt:SchedulerBase.obj
 0001:00133a10       ?Add@?$ListArray@VScheduleGroupBase@details@Concurrency@@@details@Concurrency@@QEAAHPEAVScheduleGroupBase@23@@Z 0000000140134a10 f i libconcrt:SchedulerBase.obj
 0001:00133b8c       ?AddContext@SchedulerBase@details@Concurrency@@QEAAXPEAVInternalContextBase@23@@Z 0000000140134b8c f   libconcrt:SchedulerBase.obj
 0001:00133be4       ?AddTail@?$SafeRWList@VWaitNode@SchedulerBase@details@Concurrency@@VNoCount@CollectionTypes@34@V_ReaderWriterLock@34@@details@Concurrency@@QEAAXPEAVWaitNode@SchedulerBase@23@@Z 0000000140134be4 f i libconcrt:SchedulerBase.obj
 0001:00133c58       ?AddVirtualProcessors@SchedulerBase@details@Concurrency@@IEAAXPEAPEAUIVirtualProcessorRoot@3@I@Z 0000000140134c58 f   libconcrt:SchedulerBase.obj
 0001:00133d4c       ?AllocateSegment@CacheLocalScheduleGroup@details@Concurrency@@MEAAPEAVScheduleGroupSegmentBase@23@PEAVSchedulingRing@23@PEAVlocation@3@@Z 0000000140134d4c f i libconcrt:SchedulerBase.obj
 0001:00133dd8       ?AllocateSegment@FairScheduleGroup@details@Concurrency@@MEAAPEAVScheduleGroupSegmentBase@23@PEAVSchedulingRing@23@PEAVlocation@3@@Z 0000000140134dd8 f i libconcrt:SchedulerBase.obj
 0001:00133e68       ?Attach@SchedulerBase@details@Concurrency@@UEAAXXZ 0000000140134e68 f   libconcrt:SchedulerBase.obj
 0001:00133ed0       ?AttachExternalContext@SchedulerBase@details@Concurrency@@AEAAPEAVExternalContextBase@23@_N@Z 0000000140134ed0 f   libconcrt:SchedulerBase.obj
 0001:00133f68       ?AttemptSchedulerSweep@SchedulerBase@details@Concurrency@@IEAAXXZ 0000000140134f68 f   libconcrt:SchedulerBase.obj
 0001:00133f8c       ?CancelAllContexts@SchedulerBase@details@Concurrency@@MEAAXXZ 0000000140134f8c f   libconcrt:SchedulerBase.obj
 0001:00133fec       ?ChangeThrottlingTimer@SchedulerBase@details@Concurrency@@AEAAXK@Z 0000000140134fec f   libconcrt:SchedulerBase.obj
 0001:00134050       ?CheckForDeletion@?$ListArray@VScheduleGroupBase@details@Concurrency@@@details@Concurrency@@AEAAXXZ 0000000140135050 f i libconcrt:SchedulerBase.obj
 0001:001340d8       ?CheckForDeletionBridge@?$ListArray@VExternalStatistics@details@Concurrency@@@details@Concurrency@@CAXPEAV123@@Z 00000001401350d8 f i libconcrt:SchedulerBase.obj
 0001:00134134       ?CheckForDeletionBridge@?$ListArray@VScheduleGroupBase@details@Concurrency@@@details@Concurrency@@CAXPEAV123@@Z 0000000140135134 f i libconcrt:SchedulerBase.obj
 0001:0013413c       ?CheckOneShotStaticDestruction@SchedulerBase@details@Concurrency@@SAXXZ 000000014013513c f   libconcrt:SchedulerBase.obj
 0001:0013417c       ?CheckStaticConstruction@SchedulerBase@details@Concurrency@@CAXXZ 000000014013517c f   libconcrt:SchedulerBase.obj
 0001:0013422c       ?Cleanup@SchedulerBase@details@Concurrency@@AEAAXXZ 000000014013522c f   libconcrt:SchedulerBase.obj
 0001:0013434c       ?CommitSafePoints@SchedulerBase@details@Concurrency@@QEAAXXZ 000000014013534c f   libconcrt:SchedulerBase.obj
 0001:001343b4       ?CommitToVersion@SchedulerBase@details@Concurrency@@AEAAXK@Z 00000001401353b4 f   libconcrt:SchedulerBase.obj
 0001:0013448c       ?ComputeSafePointCommitVersion@SchedulerBase@details@Concurrency@@AEAAKXZ 000000014013548c f   libconcrt:SchedulerBase.obj
 0001:001345b8       ?CopyFrom@QuickBitSet@details@Concurrency@@IEAAXAEBV123@@Z 00000001401355b8 f i libconcrt:SchedulerBase.obj
 0001:0013463c       ?CreateContextFromDefaultScheduler@SchedulerBase@details@Concurrency@@SAPEAVContextBase@23@XZ 000000014013563c f   libconcrt:SchedulerBase.obj
 0001:00134688       ?CreateScheduleGroup@SchedulerBase@details@Concurrency@@UEAAPEAVScheduleGroup@3@AEAVlocation@3@@Z 0000000140135688 f i libconcrt:SchedulerBase.obj
 0001:00134690       ?CreateScheduleGroup@SchedulerBase@details@Concurrency@@UEAAPEAVScheduleGroup@3@XZ 0000000140135690 f i libconcrt:SchedulerBase.obj
 0001:001346b8       ?CreateWithoutInitializing@SchedulerBase@details@Concurrency@@SAPEAV123@AEBVSchedulerPolicy@3@@Z 00000001401356b8 f   libconcrt:SchedulerBase.obj
 0001:001346e8       ?DecrementInternalContextCount@SchedulerBase@details@Concurrency@@QEAAXXZ 00000001401356e8 f   libconcrt:SchedulerBase.obj
 0001:00134708       ?DeferredGetInternalContext@SchedulerBase@details@Concurrency@@QEAAXXZ 0000000140135708 f   libconcrt:SchedulerBase.obj
 0001:00134734       ?Dequeue@?$SafeSQueue@VInternalContextBase@details@Concurrency@@V_HyperNonReentrantLock@23@@details@Concurrency@@QEAAPEAVInternalContextBase@23@XZ 0000000140135734 f i libconcrt:SchedulerBase.obj
 0001:00134798       ?DestroySchedulerEventHandlers@SchedulerBase@details@Concurrency@@MEAAXXZ 0000000140135798 f   libconcrt:SchedulerBase.obj
 0001:00134808       ?DetachExternalContext@SchedulerBase@details@Concurrency@@AEAAXPEAVExternalContextBase@23@_N@Z 0000000140135808 f   libconcrt:SchedulerBase.obj
 0001:0013486c       ?FastCurrentContext@SchedulerBase@details@Concurrency@@SAPEAVContextBase@23@XZ 000000014013586c f   libconcrt:SchedulerBase.obj
 0001:00134878       ?FastCurrentScheduler@SchedulerBase@details@Concurrency@@SAPEAV123@XZ 0000000140135878 f   libconcrt:SchedulerBase.obj
 0001:0013489c       ?Fill@QuickBitSet@details@Concurrency@@QEAAXXZ 000000014013589c f i libconcrt:SchedulerBase.obj
 0001:00134924       ?Finalize@SchedulerBase@details@Concurrency@@AEAAXXZ 0000000140135924 f   libconcrt:SchedulerBase.obj
 0001:00134ae8       ?Find@?$Hash@II@details@Concurrency@@QEAAPEAUListNode@123@AEBIPEAI@Z 0000000140135ae8 f i libconcrt:SchedulerBase.obj
 0001:00134b64       ?FindCurrentNode@SchedulerBase@details@Concurrency@@QEAAPEAVSchedulingNode@23@XZ 0000000140135b64 f   libconcrt:SchedulerBase.obj
 0001:00134bc8       ?FindNodeByLocation@SchedulerBase@details@Concurrency@@QEAAPEAVSchedulingNode@23@PEAVlocation@3@@Z 0000000140135bc8 f   libconcrt:SchedulerBase.obj
 0001:00134c30       ?FindScheduleGroupSegment@SchedulingRing@details@Concurrency@@AEAAPEAVScheduleGroupSegmentBase@23@HHPEAHPEAV?$ListArray@VScheduleGroupSegmentBase@details@Concurrency@@@23@@Z 0000000140135c30 f i libconcrt:SchedulerBase.obj
 0001:00134cc8       ?FindVirtualProcessor@SchedulingNode@details@Concurrency@@QEAAPEAVVirtualProcessor@23@HHPEAH@Z 0000000140135cc8 f i libconcrt:SchedulerBase.obj
 0001:00134d74       ?FoundAvailableVirtualProcessor@SchedulerBase@details@Concurrency@@QEAA_NAEAVClaimTicket@VirtualProcessor@23@Vlocation@3@K@Z 0000000140135d74 f   libconcrt:SchedulerBase.obj
 0001:00134f08       ?FoundBlockedContexts@SchedulerBase@details@Concurrency@@AEAA_NXZ 0000000140135f08 f   libconcrt:SchedulerBase.obj
 0001:00134f3c       ?FoundUnstartedChores@SchedulerBase@details@Concurrency@@AEAA_NXZ 0000000140135f3c f   libconcrt:SchedulerBase.obj
 0001:0013510c       ?GetAnonymousScheduleGroupSegment@SchedulerBase@details@Concurrency@@QEAAPEAVScheduleGroupSegmentBase@23@XZ 000000014013610c f   libconcrt:SchedulerBase.obj
 0001:00135120       ?GetBitSet@SchedulerBase@details@Concurrency@@QEAA?AVQuickBitSet@23@PEBVlocation@3@@Z 0000000140136120 f   libconcrt:SchedulerBase.obj
 0001:00135228       ?GetDefaultScheduler@SchedulerBase@details@Concurrency@@CAPEAV123@XZ 0000000140136228 f   libconcrt:SchedulerBase.obj
 0001:00135314       ?GetExternalContext@SchedulerBase@details@Concurrency@@AEAAPEAVExternalContextBase@23@_N@Z 0000000140136314 f   libconcrt:SchedulerBase.obj
 0001:00135394       ?GetInternalContext@SchedulerBase@details@Concurrency@@QEAAPEAVInternalContextBase@23@_N@Z 0000000140136394 f   libconcrt:SchedulerBase.obj
 0001:001354e4       ?GetNewContextId@SchedulerBase@details@Concurrency@@QEAAIXZ 00000001401364e4 f   libconcrt:SchedulerBase.obj
 0001:001354f4       ?GetNewScheduleGroupId@SchedulerBase@details@Concurrency@@QEAAIXZ 00000001401364f4 f   libconcrt:SchedulerBase.obj
 0001:00135504       ?GetNewWorkQueueId@SchedulerBase@details@Concurrency@@SAIXZ 0000000140136504 f   libconcrt:SchedulerBase.obj
 0001:00135514       ?GetNextPriorityObject@SchedulerBase@details@Concurrency@@QEAAPEAUBoostedObject@23@XZ 0000000140136514 f   libconcrt:SchedulerBase.obj
 0001:00135598       ?GetNextScheduleGroupSegment@SchedulingRing@details@Concurrency@@AEAAPEAVScheduleGroupSegmentBase@23@PEAHHPEAV?$ListArray@VScheduleGroupSegmentBase@details@Concurrency@@@23@@Z 0000000140136598 f i libconcrt:SchedulerBase.obj
 0001:00135610       ?GetNextSchedulingRing@SchedulerBase@details@Concurrency@@QEAAPEAVSchedulingRing@23@PEBV423@PEAV423@@Z 0000000140136610 f   libconcrt:SchedulerBase.obj
 0001:00135650       ?GetNextSchedulingRing@SchedulerBase@details@Concurrency@@QEAAPEAVSchedulingRing@23@XZ 0000000140136650 f   libconcrt:SchedulerBase.obj
 0001:0013568c       ?GetNumberOfVirtualProcessors@SchedulerBase@details@Concurrency@@UEBAIXZ 000000014013668c f i libconcrt:SchedulerBase.obj
 0001:0013568c       ?GetAvailableNodeCount@ResourceManager@details@Concurrency@@UEBAIXZ 000000014013668c f i libconcrt:ResourceManager.obj
 0001:00135690       ?GetPolicy@SchedulerBase@details@Concurrency@@UEBA?AVSchedulerPolicy@3@XZ 0000000140136690 f   libconcrt:SchedulerBase.obj
 0001:001356b4       ?GetRealizedChore@SchedulerBase@details@Concurrency@@QEAAPEAVRealizedChore@23@P6AXPEAX@Z0@Z 00000001401366b4 f   libconcrt:SchedulerBase.obj
 0001:00135718       ?GetRunnableContext@CacheLocalScheduleGroupSegment@details@Concurrency@@EEAAPEAVInternalContextBase@23@XZ 0000000140136718 f i libconcrt:SchedulerBase.obj
 0001:00135718       ?GetRunnableContext@FairScheduleGroupSegment@details@Concurrency@@EEAAPEAVInternalContextBase@23@XZ 0000000140136718 f i libconcrt:SchedulerBase.obj
 0001:00135730       ?GetSubAllocator@SchedulerBase@details@Concurrency@@SAPEAVSubAllocator@23@_N@Z 0000000140136730 f   libconcrt:SchedulerBase.obj
 0001:001357d4       ?GetValidSchedulingRingIndex@SchedulerBase@details@Concurrency@@AEAAHH@Z 00000001401367d4 f   libconcrt:SchedulerBase.obj
 0001:0013580c       ?Grow@QuickBitSet@details@Concurrency@@QEAAXI@Z 000000014013680c f i libconcrt:SchedulerBase.obj
 0001:001358b4       ?Grow@ReferenceCountedQuickBitSet@details@Concurrency@@QEAAXI@Z 00000001401368b4 f i libconcrt:SchedulerBase.obj
 0001:00135958       ?HasCompletedShutdown@SchedulerBase@details@Concurrency@@QEAA_NXZ 0000000140136958 f   libconcrt:SchedulerBase.obj
 0001:0013596c       ?Id@SchedulerBase@details@Concurrency@@UEBAIXZ 000000014013696c f i libconcrt:SchedulerBase.obj
 0001:00135974       ?Initialize@SchedulerBase@details@Concurrency@@AEAAXXZ 0000000140136974 f   libconcrt:SchedulerBase.obj
 0001:00135f38       ?InitializeSchedulerEventHandlers@SchedulerBase@details@Concurrency@@MEAAXXZ 0000000140136f38 f   libconcrt:SchedulerBase.obj
 0001:00135f40       ?Insert@?$Hash@II@details@Concurrency@@QEAAPEAUListNode@123@AEBI0@Z 0000000140136f40 f i libconcrt:SchedulerBase.obj
 0001:0013601c       ?InternalCreateScheduleGroup@SchedulerBase@details@Concurrency@@AEAAPEAVScheduleGroup@3@PEAVlocation@3@@Z 000000014013701c f   libconcrt:SchedulerBase.obj
 0001:0013612c       ?InternalRelease@ScheduleGroupBase@details@Concurrency@@IEAAJXZ 000000014013712c f i libconcrt:SchedulerBase.obj
 0001:00136198       ?InvokeAtNextSafePoint@SafePointInvocation@details@Concurrency@@QEAAXP6AXPEAX@Z0PEAVSchedulerBase@23@@Z 0000000140137198 f   libconcrt:SchedulerBase.obj
 0001:001361e4       ?InvokeOnSafePoint@SchedulerBase@details@Concurrency@@AEAAXPEAVSafePointInvocation@23@@Z 00000001401371e4 f   libconcrt:SchedulerBase.obj
 0001:0013625c       ?IsAvailableLocation@SchedulerBase@details@Concurrency@@UEBA_NAEBVlocation@3@@Z 000000014013725c f   libconcrt:SchedulerBase.obj
 0001:001362c0       ?MailChore@FairScheduleGroup@details@Concurrency@@UEAA?AVSlot@?$Mailbox@V_UnrealizedChore@details@Concurrency@@@23@PEAV_UnrealizedChore@23@PEAVlocation@3@PEAPEAVScheduleGroupSegmentBase@23@@Z 00000001401372c0 f i libconcrt:SchedulerBase.obj
 0001:001362cc       ?MarkSafePoint@SchedulerBase@details@Concurrency@@QEAA_NPEAVSafePointMarker@23@@Z 00000001401372cc f   libconcrt:SchedulerBase.obj
 0001:001362e4       ?NotifyThrottledContext@SchedulerBase@details@Concurrency@@AEAA_NPEAVInternalContextBase@23@@Z 00000001401372e4 f   libconcrt:SchedulerBase.obj
 0001:0013638c       ?PerformServiceScan@SchedulerBase@details@Concurrency@@AEAAX_K@Z 000000014013738c f   libconcrt:SchedulerBase.obj
 0001:00136664       ?PhaseOneShutdown@SchedulerBase@details@Concurrency@@AEAAXXZ 0000000140137664 f   libconcrt:SchedulerBase.obj
 0001:00136740       ?PhaseTwoShutdown@SchedulerBase@details@Concurrency@@AEAAXXZ 0000000140137740 f   libconcrt:SchedulerBase.obj
 0001:00136828       ?PushRunnableToInactive@SchedulerBase@details@Concurrency@@UEAA_NPEAVInternalContextBase@23@Vlocation@3@@Z 0000000140137828 f   libconcrt:SchedulerBase.obj
 0001:001368ec       ?Reference@ScheduleGroupBase@details@Concurrency@@UEAAIXZ 00000001401378ec f i libconcrt:SchedulerBase.obj
 0001:00136904       ?Reference@SchedulerBase@details@Concurrency@@UEAAIXZ 0000000140137904 f   libconcrt:SchedulerBase.obj
 0001:00136990       ?ReferenceForAttach@SchedulerBase@details@Concurrency@@IEAAXXZ 0000000140137990 f   libconcrt:SchedulerBase.obj
 0001:001369c8       ?RegisterShutdownEvent@SchedulerBase@details@Concurrency@@UEAAXPEAX@Z 00000001401379c8 f   libconcrt:SchedulerBase.obj
 0001:00136ab4       ?Release@ScheduleGroupBase@details@Concurrency@@UEAAIXZ 0000000140137ab4 f i libconcrt:SchedulerBase.obj
 0001:00136abc       ?Release@SchedulerBase@details@Concurrency@@UEAAIXZ 0000000140137abc f   libconcrt:SchedulerBase.obj
 0001:00136ae0       ?ReleaseExternalContext@SchedulerBase@details@Concurrency@@AEAAXPEAVExternalContextBase@23@@Z 0000000140137ae0 f   libconcrt:SchedulerBase.obj
 0001:00136b58       ?ReleaseForDetach@SchedulerBase@details@Concurrency@@IEAAXXZ 0000000140137b58 f   libconcrt:SchedulerBase.obj
 0001:00136b90       ?ReleaseInternalContext@SchedulerBase@details@Concurrency@@QEAAXPEAVInternalContextBase@23@_N@Z 0000000140137b90 f   libconcrt:SchedulerBase.obj
 0001:00136bfc       ?ReleaseRealizedChore@SchedulerBase@details@Concurrency@@QEAAXPEAVRealizedChore@23@@Z 0000000140137bfc f   libconcrt:SchedulerBase.obj
 0001:00136c6c       ?ReleaseReservedContexts@SchedulerBase@details@Concurrency@@QEAAXXZ 0000000140137c6c f   libconcrt:SchedulerBase.obj
 0001:00136d08       ?Remove@?$ListArray@VExternalStatistics@details@Concurrency@@@details@Concurrency@@QEAA_NPEAVExternalStatistics@23@H_N@Z 0000000140137d08 f i libconcrt:SchedulerBase.obj
 0001:00136e5c       ?Remove@?$ListArray@VScheduleGroupBase@details@Concurrency@@@details@Concurrency@@QEAA_NPEAVScheduleGroupBase@23@H_N@Z 0000000140137e5c f i libconcrt:SchedulerBase.obj
 0001:00136fb0       ?RemoveHead@?$SafeRWList@VWaitNode@SchedulerBase@details@Concurrency@@VNoCount@CollectionTypes@34@V_ReaderWriterLock@34@@details@Concurrency@@QEAAPEAVWaitNode@SchedulerBase@23@XZ 0000000140137fb0 f i libconcrt:SchedulerBase.obj
 0001:0013701c       ?RemovePrioritizedObject@SchedulerBase@details@Concurrency@@QEAAXPEAUBoostedObject@23@@Z 000000014013801c f   libconcrt:SchedulerBase.obj
 0001:0013709c       ?RemoveScheduleGroup@SchedulerBase@details@Concurrency@@QEAAXPEAVScheduleGroupBase@23@@Z 000000014013809c f   libconcrt:SchedulerBase.obj
 0001:001370b0       ?RemoveSegments@FairScheduleGroup@details@Concurrency@@MEAAXXZ 00000001401380b0 f i libconcrt:SchedulerBase.obj
 0001:001370cc       ?RemoveVirtualProcessors@SchedulerBase@details@Concurrency@@IEAAXPEAPEAUIVirtualProcessorRoot@3@I@Z 00000001401380cc f   libconcrt:SchedulerBase.obj
 0001:001371f4       ?Resurrect@SchedulerBase@details@Concurrency@@AEAAXXZ 00000001401381f4 f   libconcrt:SchedulerBase.obj
 0001:0013727c       ?ReturnSubAllocator@SchedulerBase@details@Concurrency@@SAXPEAVSubAllocator@23@@Z 000000014013827c f   libconcrt:SchedulerBase.obj
 0001:001372f4       ?SafeFastCurrentContext@SchedulerBase@details@Concurrency@@SAPEAVContextBase@23@XZ 00000001401382f4 f   libconcrt:SchedulerBase.obj
 0001:00137310       ?SafeReference@SchedulerBase@details@Concurrency@@AEAA_NXZ 0000000140138310 f   libconcrt:SchedulerBase.obj
 0001:00137334       ?ScheduleTask@SchedulerBase@details@Concurrency@@UEAAXP6AXPEAX@Z0@Z 0000000140138334 f   libconcrt:SchedulerBase.obj
 0001:001373b8       ?ScheduleTask@SchedulerBase@details@Concurrency@@UEAAXP6AXPEAX@Z0AEAVlocation@3@@Z 00000001401383b8 f   libconcrt:SchedulerBase.obj
 0001:0013743c       ?SetNextSchedulingRing@SchedulerBase@details@Concurrency@@QEAAXPEAVSchedulingRing@23@@Z 000000014013843c f   libconcrt:SchedulerBase.obj
 0001:00137470       ?StartupNewVirtualProcessor@SchedulerBase@details@Concurrency@@UEAAXPEAVScheduleGroupSegmentBase@23@Vlocation@3@@Z 0000000140138470 f i libconcrt:SchedulerBase.obj
 0001:001374cc       ?StartupVirtualProcessor@SchedulerBase@details@Concurrency@@QEAA_NPEAVScheduleGroupSegmentBase@23@Vlocation@3@K@Z 00000001401384cc f   libconcrt:SchedulerBase.obj
 0001:00137588       ?StaticDestruction@SchedulerBase@details@Concurrency@@CAXXZ 0000000140138588 f   libconcrt:SchedulerBase.obj
 0001:0013763c       ?Statistics@SchedulerBase@details@Concurrency@@IEAAXPEAI00@Z 000000014013863c f   libconcrt:SchedulerBase.obj
 0001:00137898       ?SweepSchedulerForFinalize@SchedulerBase@details@Concurrency@@AEAAXXZ 0000000140138898 f   libconcrt:SchedulerBase.obj
 0001:0013797c       ?ThrottlerDispatch@SchedulerBase@details@Concurrency@@AEAAXXZ 000000014013897c f   libconcrt:SchedulerBase.obj
 0001:00137ad8       ?ThrottlerDispatchBridge@SchedulerBase@details@Concurrency@@CAXPEAU_TP_CALLBACK_INSTANCE@@PEAXPEAU_TP_TIMER@@@Z 0000000140138ad8 f i libconcrt:SchedulerBase.obj
 0001:00137ae0       ?ThrottlerDispatchBridgeXP@SchedulerBase@details@Concurrency@@CAXPEAXE@Z 0000000140138ae0 f i libconcrt:SchedulerBase.obj
 0001:00137ae8       ?ThrottlerTrampoline@SchedulerBase@details@Concurrency@@CAXPEAXE@Z 0000000140138ae8 f   libconcrt:SchedulerBase.obj
 0001:00137b30       ?ThrottlingTime@SchedulerBase@details@Concurrency@@QEAAKK@Z 0000000140138b30 f   libconcrt:SchedulerBase.obj
 0001:00137c00       ?ThrowSchedulerEvent@SchedulerBase@details@Concurrency@@CAXW4ConcRT_EventType@3@EI@Z 0000000140138c00 f   libconcrt:SchedulerBase.obj
 0001:00137c88       ?TriggerCommitSafePoints@SchedulerBase@details@Concurrency@@QEAAXPEAVSafePointMarker@23@@Z 0000000140138c88 f   libconcrt:SchedulerBase.obj
 0001:00137ce8       ?TypeOfWorkPending@SchedulerBase@details@Concurrency@@MEAA?AW4PendingWorkType@123@XZ 0000000140138ce8 f   libconcrt:SchedulerBase.obj
 0001:00137d30       ?UpdateCommitVersion@SchedulerBase@details@Concurrency@@AEAAKK@Z 0000000140138d30 f   libconcrt:SchedulerBase.obj
 0001:00137d7c       ?UpdatePendingVersion@SchedulerBase@details@Concurrency@@AEAAKXZ 0000000140138d7c f   libconcrt:SchedulerBase.obj
 0001:00137dc0       ?VirtualProcessorActive@SchedulerBase@details@Concurrency@@QEAA_N_N@Z 0000000140138dc0 f   libconcrt:SchedulerBase.obj
 0001:00137ec8       ?VirtualProcessorIdle@SchedulerBase@details@Concurrency@@QEAAX_N@Z 0000000140138ec8 f   libconcrt:SchedulerBase.obj
 0001:00137f3c       ?Wipe@?$Hash@II@details@Concurrency@@QEAAXXZ 0000000140138f3c f i libconcrt:SchedulerBase.obj
 0001:00137fbc       ??0ContextBase@details@Concurrency@@QEAA@PEAVSchedulerBase@12@_N@Z 0000000140138fbc f   libconcrt:ContextBase.obj
 0001:00138124       ??1?$Hash@PEAV_TaskCollection@details@Concurrency@@PEAV123@@details@Concurrency@@QEAA@XZ 0000000140139124 f i libconcrt:ContextBase.obj
 0001:00138140       ??1?$StructuredWorkStealingQueue@V_UnrealizedChore@details@Concurrency@@V_CriticalNonReentrantLock@23@@details@Concurrency@@QEAA@XZ 0000000140139140 f i libconcrt:ContextBase.obj
 0001:00138160       ??1?$WorkStealingQueue@V_UnrealizedChore@details@Concurrency@@V_CriticalNonReentrantLock@23@@details@Concurrency@@QEAA@XZ 0000000140139160 f i libconcrt:ContextBase.obj
 0001:00138180       ??1CancellationBeaconStack@ContextBase@details@Concurrency@@QEAA@XZ 0000000140139180 f i libconcrt:ContextBase.obj
 0001:001381e0       ??1Context@Concurrency@@MEAA@XZ 00000001401391e0 f i libconcrt:ContextBase.obj
 0001:001381ec       ??1ContextBase@details@Concurrency@@UEAA@XZ 00000001401391ec f i libconcrt:ContextBase.obj
 0001:00138278       ??1_Scoped_lock@_CriticalNonReentrantLock@details@Concurrency@@QEAA@XZ 0000000140139278 f i libconcrt:ContextBase.obj
 0001:00138294       ??1_Scoped_lock_read@?$SafeRWList@UListEntry@details@Concurrency@@VNoCount@CollectionTypes@23@V_ReaderWriterLock@23@@details@Concurrency@@QEAA@XZ 0000000140139294 f i libconcrt:ContextBase.obj
 0001:001382b4       ??_GContext@Concurrency@@MEAAPEAXI@Z 00000001401392b4 f i libconcrt:ContextBase.obj
 0001:001382b4       ??_EContext@Concurrency@@MEAAPEAXI@Z 00000001401392b4 f i libconcrt:ContextBase.obj
 0001:001382e0       ??_GContextBase@details@Concurrency@@UEAAPEAXI@Z 00000001401392e0 f i libconcrt:ContextBase.obj
 0001:001382e0       ??_EContextBase@details@Concurrency@@UEAAPEAXI@Z 00000001401392e0 f i libconcrt:ContextBase.obj
 0001:00138314       ?Add@?$ListArray@VWorkQueue@details@Concurrency@@@details@Concurrency@@QEAAHPEAVWorkQueue@23@@Z 0000000140139314 f i libconcrt:ContextBase.obj
 0001:00138494       ?AddStealer@ContextBase@details@Concurrency@@QEAAXPEAV123@_N@Z 0000000140139494 f   libconcrt:ContextBase.obj
 0001:001384e4       ?AddTail@?$SafeRWList@UListEntry@details@Concurrency@@VNoCount@CollectionTypes@23@V_ReaderWriterLock@23@@details@Concurrency@@QEAAXPEAUListEntry@23@@Z 00000001401394e4 f i libconcrt:ContextBase.obj
 0001:0013855c       ?CancelCollection@ContextBase@details@Concurrency@@QEAAXH@Z 000000014013955c f   libconcrt:ContextBase.obj
 0001:001385cc       ?CancelCollectionComplete@ContextBase@details@Concurrency@@QEAA_NH@Z 00000001401395cc f   libconcrt:ContextBase.obj
 0001:00138608       ?CancelStealers@ContextBase@details@Concurrency@@QEAAXPEAV_TaskCollectionBase@23@@Z 0000000140139608 f   libconcrt:ContextBase.obj
 0001:00138708       ?CheckForDeletion@?$ListArray@VWorkQueue@details@Concurrency@@@details@Concurrency@@AEAAXXZ 0000000140139708 f i libconcrt:ContextBase.obj
 0001:00138798       ?CheckForDeletionBridge@?$ListArray@VWorkQueue@details@Concurrency@@@details@Concurrency@@CAXPEAV123@@Z 0000000140139798 f i libconcrt:ContextBase.obj
 0001:001387a0       ?Claim@Slot@?$Mailbox@V_UnrealizedChore@details@Concurrency@@@details@Concurrency@@QEAA_NPEAPEAV_UnrealizedChore@34@@Z 00000001401397a0 f i libconcrt:ContextBase.obj
 0001:00138810       ?Cleanup@ContextBase@details@Concurrency@@QEAAXXZ 0000000140139810 f   libconcrt:ContextBase.obj
 0001:0013887c       ?ClearAliasTable@ContextBase@details@Concurrency@@QEAAXXZ 000000014013987c f   libconcrt:ContextBase.obj
 0001:00138944       ?ClearContextTls@ContextBase@details@Concurrency@@AEAAXXZ 0000000140139944 f   libconcrt:ContextBase.obj
 0001:00138954       ?CreateWorkQueue@ContextBase@details@Concurrency@@QEAAXXZ 0000000140139954 f   libconcrt:ContextBase.obj
 0001:001389f8       ?DetachStealers@ContextBase@details@Concurrency@@QEAAXXZ 00000001401399f8 f   libconcrt:ContextBase.obj
 0001:00138bdc       ?EnterCriticalRegionHelper@ContextBase@details@Concurrency@@UEAAHXZ 0000000140139bdc f i libconcrt:ContextBase.obj
 0001:00138be8       ?EnterHyperCriticalRegionHelper@ContextBase@details@Concurrency@@UEAAHXZ 0000000140139be8 f i libconcrt:ContextBase.obj
 0001:00138bf4       ?ExitCriticalRegionHelper@ContextBase@details@Concurrency@@UEAAHXZ 0000000140139bf4 f i libconcrt:ContextBase.obj
 0001:00138c00       ?ExitHyperCriticalRegionHelper@ContextBase@details@Concurrency@@UEAAHXZ 0000000140139c00 f i libconcrt:ContextBase.obj
 0001:00138c0c       ?FindAndDelete@?$Hash@PEAV_TaskCollection@details@Concurrency@@PEAV123@@details@Concurrency@@QEAA_NAEBQEAV_TaskCollection@23@PEAPEAV423@@Z 0000000140139c0c f i libconcrt:ContextBase.obj
 0001:00138cb8       ?FlagCancellationBeacons@ContextBase@details@Concurrency@@QEAAXH@Z 0000000140139cb8 f   libconcrt:ContextBase.obj
 0001:00138d34       ?GetCriticalRegionType@ContextBase@details@Concurrency@@UEBA?AW4CriticalRegionType@3@XZ 0000000140139d34 f i libconcrt:ContextBase.obj
 0001:00138d48       ?GetId@ContextBase@details@Concurrency@@UEBAIXZ 0000000140139d48 f   libconcrt:ContextBase.obj
 0001:00138d4c       ?GetIndirectAlias@ContextBase@details@Concurrency@@QEBAPEAV_TaskCollection@23@XZ 0000000140139d4c f   libconcrt:ContextBase.obj
 0001:00138d54       ?GetScheduleGroup@ContextBase@details@Concurrency@@QEBAPEAVScheduleGroupBase@23@XZ 0000000140139d54 f   libconcrt:ContextBase.obj
 0001:00138d68       ?GetScheduleGroupId@ContextBase@details@Concurrency@@UEBAIXZ 0000000140139d68 f   libconcrt:ContextBase.obj
 0001:00138da8       ?GetScheduleGroupSegment@ContextBase@details@Concurrency@@QEBAPEAVScheduleGroupSegmentBase@23@XZ 0000000140139da8 f   libconcrt:ContextBase.obj
 0001:00138db0       ?GetScheduler@ContextBase@details@Concurrency@@QEBAPEAVSchedulerBase@23@XZ 0000000140139db0 f   libconcrt:ContextBase.obj
 0001:00138db8       ?IsCanceledAtDepth@ContextBase@details@Concurrency@@AEAA_NPEAV_TaskCollectionBase@23@H@Z 0000000140139db8 f   libconcrt:ContextBase.obj
 0001:00138eec       ?Pop@?$WorkStealingQueue@V_UnrealizedChore@details@Concurrency@@V_CriticalNonReentrantLock@23@@details@Concurrency@@QEAAPEAV_UnrealizedChore@23@XZ 0000000140139eec f i libconcrt:ContextBase.obj
 0001:00138fb8       ?PopContextFromTls@ContextBase@details@Concurrency@@AEAAPEAV123@XZ 0000000140139fb8 f   libconcrt:ContextBase.obj
 0001:00138fec       ?PushContextToTls@ContextBase@details@Concurrency@@AEAAXPEAV123@@Z 0000000140139fec f   libconcrt:ContextBase.obj
 0001:00139000       ?RecomputeMaximumCancellationDepth@ContextBase@details@Concurrency@@AEAAXXZ 000000014013a000 f   libconcrt:ContextBase.obj
 0001:001390a4       ?ReferenceForCancellation@ContextBase@details@Concurrency@@QEAAXXZ 000000014013a0a4 f   libconcrt:ContextBase.obj
 0001:001390ac       ?ReleaseWorkQueue@ContextBase@details@Concurrency@@IEAAXXZ 000000014013a0ac f   libconcrt:ContextBase.obj
 0001:0013916c       ?Remove@?$ListArray@VWorkQueue@details@Concurrency@@@details@Concurrency@@QEAA_NPEAVWorkQueue@23@H_N@Z 000000014013a16c f i libconcrt:ContextBase.obj
 0001:001392b0       ?Remove@?$SafeRWList@UListEntry@details@Concurrency@@VNoCount@CollectionTypes@23@V_ReaderWriterLock@23@@details@Concurrency@@QEAAXPEAUListEntry@23@@Z 000000014013a2b0 f i libconcrt:ContextBase.obj
 0001:00139320       ?RemoveStealer@ContextBase@details@Concurrency@@QEAAXPEAV123@@Z 000000014013a320 f   libconcrt:ContextBase.obj
 0001:00139334       ?SetAsCurrentTls@ContextBase@details@Concurrency@@IEAAXXZ 000000014013a334 f   libconcrt:ContextBase.obj
 0001:00139344       ?StaticDelete@Segment@?$Mailbox@VInternalContextBase@details@Concurrency@@@details@Concurrency@@SAXPEAU1234@@Z 000000014013a344 f i libconcrt:VirtualProcessor.obj
 0001:00139344       ?StaticDelete@Segment@?$Mailbox@V_UnrealizedChore@details@Concurrency@@@details@Concurrency@@SAXPEAU1234@@Z 000000014013a344 f i libconcrt:ContextBase.obj
 0001:00139378       ?StaticEnterHyperCriticalRegion@ContextBase@details@Concurrency@@SAXXZ 000000014013a378 f   libconcrt:ContextBase.obj
 0001:00139378       ?StaticEnterCriticalRegion@ContextBase@details@Concurrency@@SAXXZ 000000014013a378 f   libconcrt:ContextBase.obj
 0001:00139378       ?StaticExitCriticalRegion@ContextBase@details@Concurrency@@SAXXZ 000000014013a378 f   libconcrt:ContextBase.obj
 0001:00139378       ?StaticExitHyperCriticalRegion@ContextBase@details@Concurrency@@SAXXZ 000000014013a378 f   libconcrt:ContextBase.obj
 0001:00139380       ?SweepAliasTable@ContextBase@details@Concurrency@@QEAAXXZ 000000014013a380 f   libconcrt:ContextBase.obj
 0001:00139490       ?SweepUnstructured@ContextBase@details@Concurrency@@QEAAXP6A_NPEAV_UnrealizedChore@23@PEAX@Z12@Z 000000014013a490 f   libconcrt:ContextBase.obj
 0001:0013949c       ?SyncPop@?$WorkStealingQueue@V_UnrealizedChore@details@Concurrency@@V_CriticalNonReentrantLock@23@@details@Concurrency@@AEAAPEAV_UnrealizedChore@23@XZ 000000014013a49c f i libconcrt:ContextBase.obj
 0001:001395a8       ?ThrowContextEvent@ContextBase@details@Concurrency@@KAXW4ConcRT_EventType@3@EKK@Z 000000014013a5a8 f   libconcrt:ContextBase.obj
 0001:00139644       ?TryPop@?$WorkStealingQueue@V_UnrealizedChore@details@Concurrency@@V_CriticalNonReentrantLock@23@@details@Concurrency@@QEAAPEAV_UnrealizedChore@23@H@Z 000000014013a644 f i libconcrt:ContextBase.obj
 0001:00139708       ?TryPopUnstructured@ContextBase@details@Concurrency@@QEAAPEAV_UnrealizedChore@23@H@Z 000000014013a708 f   libconcrt:ContextBase.obj
 0001:00139718       ?Wipe@?$Hash@PEAV_TaskCollection@details@Concurrency@@PEAV123@@details@Concurrency@@QEAAXXZ 000000014013a718 f i libconcrt:ContextBase.obj
 0001:00139798       ??0CancellationTokenRegistration_TaskProc@details@Concurrency@@QEAA@P6AXPEAX@Z0H@Z 000000014013a798 f i libconcrt:TaskCollection.obj
 0001:00139820       ??0_Interruption_exception@details@Concurrency@@QEAA@AEBV012@@Z 000000014013a820 f i libconcrt:TaskCollection.obj
 0001:00139860       ??0_Interruption_exception@details@Concurrency@@QEAA@XZ 000000014013a860 f i libconcrt:TaskCollection.obj
 0001:00139878       ??0_TaskCollection@details@Concurrency@@AEAA@PEAV012@_N@Z 000000014013a878 f   libconcrt:TaskCollection.obj
 0001:001399ec       ??0missing_wait@Concurrency@@QEAA@AEBV01@@Z 000000014013a9ec f i libconcrt:TaskCollection.obj
 0001:00139a2c       ??1?$_MallocaArrayHolder@PEAVevent@Concurrency@@@details@Concurrency@@UEAA@XZ 000000014013aa2c f i libconcrt:TaskCollection.obj
 0001:00139a5c       ??1?$lock_guard@Vmutex@std@@@std@@QEAA@XZ 000000014013aa5c f i libconcrt:TaskCollection.obj
 0001:00139a84       ??1?$unique_lock@Vmutex@std@@@std@@QEAA@XZ 000000014013aa84 f i libconcrt:TaskCollection.obj
 0001:00139ab4       ??1_TaskCollection@details@Concurrency@@QEAA@XZ 000000014013aab4 f   libconcrt:TaskCollection.obj
 0001:00139be0       ??1exception_ptr@std@@QEAA@XZ 000000014013abe0 f i libconcrt:TaskCollection.obj
 0001:00139be8       ??_E?$_MallocaArrayHolder@PEAVevent@Concurrency@@@details@Concurrency@@UEAAPEAXI@Z 000000014013abe8 f i libconcrt:TaskCollection.obj
 0001:00139be8       ??_G?$_MallocaArrayHolder@PEAVevent@Concurrency@@@details@Concurrency@@UEAAPEAXI@Z 000000014013abe8 f i libconcrt:TaskCollection.obj
 0001:00139c3c       ??_GCancellationTokenRegistration_TaskProc@details@Concurrency@@UEAAPEAXI@Z 000000014013ac3c f i libconcrt:TaskCollection.obj
 0001:00139c3c       ??_ECancellationTokenRegistration_TaskProc@details@Concurrency@@UEAAPEAXI@Z 000000014013ac3c f i libconcrt:TaskCollection.obj
 0001:00139c94       ??_E_CancellationTokenRegistration@details@Concurrency@@MEAAPEAXI@Z 000000014013ac94 f i libconcrt:TaskCollection.obj
 0001:00139c94       ??_G_CancellationTokenRegistration@details@Concurrency@@MEAAPEAXI@Z 000000014013ac94 f i libconcrt:TaskCollection.obj
 0001:00139cec       ??_E_RefCounter@details@Concurrency@@UEAAPEAXI@Z 000000014013acec f i libconcrt:TaskCollection.obj
 0001:00139cec       ??_G_RefCounter@details@Concurrency@@UEAAPEAXI@Z 000000014013acec f i libconcrt:TaskCollection.obj
 0001:00139d18       ?Find@?$Hash@PEAV_TaskCollection@details@Concurrency@@PEAV123@@details@Concurrency@@QEAAPEAUListNode@123@AEBQEAV_TaskCollection@23@PEAPEAV523@@Z 000000014013ad18 f i libconcrt:TaskCollection.obj
 0001:00139d94       ?GetArbitraryAlias@ContextBase@details@Concurrency@@QEAAPEAV_TaskCollection@23@PEAV423@@Z 000000014013ad94 f i libconcrt:TaskCollection.obj
 0001:00139e1c       ?Insert@?$Hash@PEAV_TaskCollection@details@Concurrency@@PEAV123@@details@Concurrency@@QEAAPEAUListNode@123@AEBQEAV_TaskCollection@23@0@Z 000000014013ae1c f i libconcrt:TaskCollection.obj
 0001:00139ef8       ?_Abort@_TaskCollection@details@Concurrency@@AEAAX_N@Z 000000014013aef8 f   libconcrt:TaskCollection.obj
 0001:0013a09c       ?_AbortiveSweep@_TaskCollection@details@Concurrency@@AEAAXPEAX@Z 000000014013b09c f   libconcrt:TaskCollection.obj
 0001:0013a0f8       ?_Alias@_TaskCollection@details@Concurrency@@AEAAPEAV123@XZ 000000014013b0f8 f   libconcrt:TaskCollection.obj
 0001:0013a1f0       ?_Cancel@_StructuredTaskCollection@details@Concurrency@@QEAAXXZ 000000014013b1f0 f   libconcrt:TaskCollection.obj
 0001:0013a27c       ?_Cancel@_TaskCollection@details@Concurrency@@AEAAX_NPEAV123@@Z 000000014013b27c f   libconcrt:TaskCollection.obj
 0001:0013a364       ?_CancelDirectAliases@_TaskCollection@details@Concurrency@@AEAAX_NPEAV123@@Z 000000014013b364 f   libconcrt:TaskCollection.obj
 0001:0013a39c       ?_CancelFromArbitraryThread@_TaskCollection@details@Concurrency@@AEAAX_N@Z 000000014013b39c f   libconcrt:TaskCollection.obj
 0001:0013a45c       ?_CancelStolenContexts@_TaskCollection@details@Concurrency@@AEAAX_N0@Z 000000014013b45c f   libconcrt:TaskCollection.obj
 0001:0013a510       ?_CollectionMatchPredicate@_TaskCollection@details@Concurrency@@CA_NPEAV_UnrealizedChore@23@PEAX@Z 000000014013b510 f   libconcrt:TaskCollection.obj
 0001:0013a51c       ?_CountUp@_StructuredTaskCollection@details@Concurrency@@AEAAXXZ 000000014013b51c f   libconcrt:TaskCollection.obj
 0001:0013a54c       ?_DeregisterCallback@_CancellationTokenState@details@Concurrency@@QEAAXPEAV_CancellationTokenRegistration@23@@Z 000000014013b54c f i libconcrt:TaskCollection.obj
 0001:0013a6cc       ?_Destroy@_RefCounter@details@Concurrency@@MEAAXXZ 000000014013b6cc f i libconcrt:TaskCollection.obj
 0001:0013a704       ?_Exec@CancellationTokenRegistration_TaskProc@details@Concurrency@@MEAAXXZ 000000014013b704 f i libconcrt:TaskCollection.obj
 0001:0013a738       ?_FullAliasWait@_TaskCollection@details@Concurrency@@AEAAXPEAV123@@Z 000000014013b738 f   libconcrt:TaskCollection.obj
 0001:0013a8e4       ?_GetStealTrackingList@_TaskCollection@details@Concurrency@@AEBAPEAXXZ 000000014013b8e4 f   libconcrt:TaskCollection.obj
 0001:0013a8ec       ?_Initialize@_StructuredTaskCollection@details@Concurrency@@AEAAXXZ 000000014013b8ec f   libconcrt:TaskCollection.obj
 0001:0013a94c       ?_Initialize@_TaskCollection@details@Concurrency@@AEAAXXZ 000000014013b94c f   libconcrt:TaskCollection.obj
 0001:0013a98c       ?_Invoke@_CancellationTokenRegistration@details@Concurrency@@AEAAXXZ 000000014013b98c f i libconcrt:TaskCollection.obj
 0001:0013aa7c       ?_IsMarkedForAbnormalExit@_TaskCollection@details@Concurrency@@QEBA_NXZ 000000014013ba7c f   libconcrt:TaskCollection.obj
 0001:0013aa8c       ?_IsStaleAlias@_TaskCollection@details@Concurrency@@AEBA_NXZ 000000014013ba8c f   libconcrt:TaskCollection.obj
 0001:0013aa98       ?_NotifyCompletedChoreAndFree@_TaskCollection@details@Concurrency@@AEAAXPEAV_UnrealizedChore@23@@Z 000000014013ba98 f   libconcrt:TaskCollection.obj
 0001:0013ab00       ?_OriginalCollection@_TaskCollection@details@Concurrency@@QEBAPEAV123@XZ 000000014013bb00 f   libconcrt:TaskCollection.obj
 0001:0013ab08       ?_RegisterCallback@_CancellationTokenState@details@Concurrency@@QEAAPEAV_CancellationTokenRegistration@23@P6AXPEAX@Z0H@Z 000000014013bb08 f i libconcrt:TaskCollection.obj
 0001:0013ab80       ?_RegisterCallback@_CancellationTokenState@details@Concurrency@@QEAAXPEAV_CancellationTokenRegistration@23@@Z 000000014013bb80 f i libconcrt:TaskCollection.obj
 0001:0013ac4c       ?_ReleaseAlias@_TaskCollection@details@Concurrency@@AEAAXXZ 000000014013bc4c f   libconcrt:TaskCollection.obj
 0001:0013ac88       ?_Reset@_TaskCollection@details@Concurrency@@AEAAXPEAV123@@Z 000000014013bc88 f   libconcrt:TaskCollection.obj
 0001:0013adb4       ?_SetCancelState@_TaskCollection@details@Concurrency@@AEAA_NJ@Z 000000014013bdb4 f   libconcrt:TaskCollection.obj
 0001:0013ade0       ?_SweepAbortedChore@_TaskCollection@details@Concurrency@@CA_NPEAV_UnrealizedChore@23@PEAX@Z 000000014013bde0 f   libconcrt:TaskCollection.obj
 0001:0013ae00       ?_TaskCleanup@_TaskCollection@details@Concurrency@@AEAA_N_N@Z 000000014013be00 f   libconcrt:TaskCollection.obj
 0001:0013ae9c       ?compare_exchange_strong@_Atomic_long@std@@QEAA_NAEAJJW4memory_order@2@@Z 000000014013be9c f i libconcrt:TaskCollection.obj
 0001:0013af34       ??0SchedulerPolicy@Concurrency@@QEAA@AEBV01@@Z 000000014013bf34 f   libconcrt:SchedulerPolicyBase.obj
 0001:0013af7c       ??0SchedulerPolicy@Concurrency@@QEAA@_KZZ 000000014013bf7c f   libconcrt:SchedulerPolicyBase.obj
 0001:0013afb0       ??0invalid_scheduler_policy_key@Concurrency@@QEAA@AEBV01@@Z 000000014013bfb0 f i libconcrt:SchedulerPolicyBase.obj
 0001:0013aff0       ??0invalid_scheduler_policy_thread_specification@Concurrency@@QEAA@AEBV01@@Z 000000014013bff0 f i libconcrt:SchedulerPolicyBase.obj
 0001:0013b030       ??0invalid_scheduler_policy_value@Concurrency@@QEAA@AEBV01@@Z 000000014013c030 f i libconcrt:SchedulerPolicyBase.obj
 0001:0013b070       ??1SchedulerPolicy@Concurrency@@QEAA@XZ 000000014013c070 f   libconcrt:SchedulerPolicyBase.obj
 0001:0013b080       ??4SchedulerPolicy@Concurrency@@QEAAAEAV01@AEBV01@@Z 000000014013c080 f   libconcrt:SchedulerPolicyBase.obj
 0001:0013b0a4       ?GetPolicyValue@SchedulerPolicy@Concurrency@@QEBAIW4PolicyElementKey@2@@Z 000000014013c0a4 f   libconcrt:SchedulerPolicyBase.obj
 0001:0013b0e4       ?_Initialize@SchedulerPolicy@Concurrency@@AEAAX_KPEAPEAD@Z 000000014013c0e4 f   libconcrt:SchedulerPolicyBase.obj
 0001:0013b220       ?_ResolvePolicyValues@SchedulerPolicy@Concurrency@@AEAAXXZ 000000014013c220 f   libconcrt:SchedulerPolicyBase.obj
 0001:0013b284       ?_StringFromPolicyKey@SchedulerPolicy@Concurrency@@CAPEADI@Z 000000014013c284 f   libconcrt:SchedulerPolicyBase.obj
 0001:0013b29c       ?_ValidPolicyValue@SchedulerPolicy@Concurrency@@CA_NW4PolicyElementKey@2@I@Z 000000014013c29c f   libconcrt:SchedulerPolicyBase.obj
 0001:0013b350       ?_ValidateConcRTPolicy@SchedulerPolicy@Concurrency@@QEBAXXZ 000000014013c350 f   libconcrt:SchedulerPolicyBase.obj
 0001:0013b3bc       ??0ExecutionResource@details@Concurrency@@QEAA@PEAVSchedulerProxy@12@PEAUSchedulerNode@12@I@Z 000000014013c3bc f   libconcrt:ExecutionResource.obj
 0001:0013b420       ??0ExecutionResource@details@Concurrency@@QEAA@PEAVSchedulerProxy@12@PEAV012@@Z 000000014013c420 f   libconcrt:ExecutionResource.obj
 0001:0013b470       ?CurrentSubscriptionLevel@ExecutionResource@details@Concurrency@@UEBAIXZ 000000014013c470 f   libconcrt:ExecutionResource.obj
 0001:0013b484       ?DecrementUseCounts@ExecutionResource@details@Concurrency@@QEAAXXZ 000000014013c484 f   libconcrt:ExecutionResource.obj
 0001:0013b514       ?GetExecutionResourceId@ExecutionResource@details@Concurrency@@UEBAIXZ 000000014013c514 f i libconcrt:ExecutionResource.obj
 0001:0013b518       ?GetNodeId@ExecutionResource@details@Concurrency@@UEBAIXZ 000000014013c518 f i libconcrt:ExecutionResource.obj
 0001:0013b51c       ?IncrementUseCounts@ExecutionResource@details@Concurrency@@QEAAXXZ 000000014013c51c f   libconcrt:ExecutionResource.obj
 0001:0013b618       ?Remove@ExecutionResource@details@Concurrency@@UEAAXPEAUIScheduler@3@@Z 000000014013c618 f   libconcrt:ExecutionResource.obj
 0001:0013b6b8       ?ResetCurrent@ExecutionResource@details@Concurrency@@QEAAXXZ 000000014013c6b8 f   libconcrt:ExecutionResource.obj
 0001:0013b6e4       ?SetAsCurrent@ExecutionResource@details@Concurrency@@QEAAXXZ 000000014013c6e4 f   libconcrt:ExecutionResource.obj
 0001:0013b720       ??$sign@N@details@Concurrency@@YANN@Z 000000014013c720 f i libconcrt:HillClimbing.obj
 0001:0013b748       ??0HillClimbing@details@Concurrency@@QEAA@IIPEAVSchedulerProxy@12@@Z 000000014013c748 f   libconcrt:HillClimbing.obj
 0001:0013b7bc       ?CalculateThroughputSlope@HillClimbing@details@Concurrency@@AEAANHH@Z 000000014013c7bc f   libconcrt:HillClimbing.obj
 0001:0013b918       ?CoefficientOfVariationMean@MeasuredHistory@HillClimbing@details@Concurrency@@QEAANXZ 000000014013c918 f   libconcrt:HillClimbing.obj
 0001:0013b97c       ?EstablishControlSetting@HillClimbing@details@Concurrency@@AEAAXI@Z 000000014013c97c f   libconcrt:HillClimbing.obj
 0001:0013b9dc       ?FlushHistories@HillClimbing@details@Concurrency@@AEAAXXZ 000000014013c9dc f   libconcrt:HillClimbing.obj
 0001:0013ba24       ?IsStableHistory@HillClimbing@details@Concurrency@@AEAA_NPEAVMeasuredHistory@123@@Z 000000014013ca24 f   libconcrt:HillClimbing.obj
 0001:0013ba5c       ?RecommendControlSetting@HillClimbing@details@Concurrency@@AEAAII@Z 000000014013ca5c f   libconcrt:HillClimbing.obj
 0001:0013bbac       ?Update@HillClimbing@details@Concurrency@@QEAAIIIII@Z 000000014013cbac f   libconcrt:HillClimbing.obj
 0001:0013be10       ?Variance@MeasuredHistory@HillClimbing@details@Concurrency@@QEAANXZ 000000014013ce10 f   libconcrt:HillClimbing.obj
 0001:0013be64       ??0SchedulerProxy@details@Concurrency@@QEAA@PEAUIScheduler@2@PEAVResourceManager@12@AEBVSchedulerPolicy@2@@Z 000000014013ce64 f   libconcrt:SchedulerProxy.obj
 0001:0013c104       ??1SchedulerProxy@details@Concurrency@@IEAA@XZ 000000014013d104 f   libconcrt:SchedulerProxy.obj
 0001:0013c150       ??1_Scoped_lock@_ReentrantBlockingLock@details@Concurrency@@QEAA@XZ 000000014013d150 f i libconcrt:SchedulerProxy.obj
 0001:0013c16c       ?AddCore@SchedulerProxy@details@Concurrency@@QEAAXPEAUSchedulerNode@23@I_N@Z 000000014013d16c f   libconcrt:SchedulerProxy.obj
 0001:0013c27c       ?AddExecutionResource@SchedulerProxy@details@Concurrency@@QEAAXPEAVExecutionResource@23@@Z 000000014013d27c f   libconcrt:SchedulerProxy.obj
 0001:0013c31c       ?AddThreadSubscription@SchedulerProxy@details@Concurrency@@QEAAXPEAVExecutionResource@23@@Z 000000014013d31c f   libconcrt:SchedulerProxy.obj
 0001:0013c374       ?AddVirtualProcessorRoots@SchedulerProxy@details@Concurrency@@QEAAXPEAPEAUIVirtualProcessorRoot@3@I@Z 000000014013d374 f   libconcrt:SchedulerProxy.obj
 0001:0013c48c       ?AdjustAllocationIncrease@SchedulerProxy@details@Concurrency@@QEBAII@Z 000000014013d48c f   libconcrt:SchedulerProxy.obj
 0001:0013c518       ?BindContext@SchedulerProxy@details@Concurrency@@UEAAXPEAUIExecutionContext@3@@Z 000000014013d518 f   libconcrt:SchedulerProxy.obj
 0001:0013c598       ?Cleanup@SchedulerProxy@details@Concurrency@@IEAAXXZ 000000014013d598 f   libconcrt:SchedulerProxy.obj
 0001:0013c66c       ?CreateExternalThreadResource@SchedulerProxy@details@Concurrency@@QEAAPEAVExecutionResource@23@PEAUSchedulerNode@23@I@Z 000000014013d66c f   libconcrt:SchedulerProxy.obj
 0001:0013c6dc       ?CreateOversubscriber@SchedulerProxy@details@Concurrency@@UEAAPEAUIVirtualProcessorRoot@3@PEAUIExecutionResource@3@@Z 000000014013d6dc f   libconcrt:SchedulerProxy.obj
 0001:0013c804       ?CreateVirtualProcessorRoot@SchedulerProxy@details@Concurrency@@UEAAPEAVVirtualProcessorRoot@23@PEAUSchedulerNode@23@I@Z 000000014013d804 f   libconcrt:SchedulerProxy.obj
 0001:0013c860       ?DecrementCoreSubscription@SchedulerProxy@details@Concurrency@@QEAAXPEAVExecutionResource@23@@Z 000000014013d860 f   libconcrt:SchedulerProxy.obj
 0001:0013c8b8       ?DecrementFixedCoreCount@SchedulerProxy@details@Concurrency@@QEAAXII_N@Z 000000014013d8b8 f   libconcrt:SchedulerProxy.obj
 0001:0013c964       ?DeleteThis@SchedulerProxy@details@Concurrency@@MEAAXXZ 000000014013d964 f i libconcrt:SchedulerProxy.obj
 0001:0013c98c       ?DestroyExecutionResource@SchedulerProxy@details@Concurrency@@QEAAXPEAVExecutionResource@23@@Z 000000014013d98c f   libconcrt:SchedulerProxy.obj
 0001:0013ca88       ?DestroyVirtualProcessorRoot@SchedulerProxy@details@Concurrency@@QEAAXPEAVVirtualProcessorRoot@23@@Z 000000014013da88 f   libconcrt:SchedulerProxy.obj
 0001:0013cb64       ?FinalShutdown@SchedulerProxy@details@Concurrency@@UEAAXXZ 000000014013db64 f   libconcrt:SchedulerProxy.obj
 0001:0013cb98       ?GetCurrentThreadExecutionResource@SchedulerProxy@details@Concurrency@@QEAAPEAVExecutionResource@23@XZ 000000014013db98 f   libconcrt:SchedulerProxy.obj
 0001:0013cbc4       ?GetNewThreadProxy@SchedulerProxy@details@Concurrency@@UEAAPEAUIThreadProxy@3@PEAUIExecutionContext@3@@Z 000000014013dbc4 f   libconcrt:SchedulerProxy.obj
 0001:0013cc54       ?GetResourceForNewSubscription@SchedulerProxy@details@Concurrency@@QEAAPEAVExecutionResource@23@PEAV423@@Z 000000014013dc54 f   libconcrt:SchedulerProxy.obj
 0001:0013ccc0       ?GrantAllocation@SchedulerProxy@details@Concurrency@@QEAAPEAVExecutionResource@23@I_N0@Z 000000014013dcc0 f   libconcrt:SchedulerProxy.obj
 0001:0013d09c       ?IncrementCoreSubscription@SchedulerProxy@details@Concurrency@@QEAAXPEAVExecutionResource@23@@Z 000000014013e09c f   libconcrt:SchedulerProxy.obj
 0001:0013d0f8       ?IncrementFixedCoreCount@SchedulerProxy@details@Concurrency@@QEAAXII_N@Z 000000014013e0f8 f   libconcrt:SchedulerProxy.obj
 0001:0013d1a4       ?ReferenceCurrentThreadExecutionResource@SchedulerProxy@details@Concurrency@@QEAAPEAVExecutionResource@23@XZ 000000014013e1a4 f   libconcrt:SchedulerProxy.obj
 0001:0013d284       ?RemoveCore@SchedulerProxy@details@Concurrency@@QEAAXPEAUSchedulerNode@23@I@Z 000000014013e284 f   libconcrt:SchedulerProxy.obj
 0001:0013d398       ?RemoveThreadSubscription@SchedulerProxy@details@Concurrency@@QEAAXPEAVExecutionResource@23@@Z 000000014013e398 f   libconcrt:SchedulerProxy.obj
 0001:0013d3f4       ?RequestInitialVirtualProcessors@SchedulerProxy@details@Concurrency@@UEAAPEAUIExecutionResource@3@_N@Z 000000014013e3f4 f   libconcrt:SchedulerProxy.obj
 0001:0013d404       ?SendCoreNotification@SchedulerProxy@details@Concurrency@@QEAAXPEAUSchedulerCore@23@_N@Z 000000014013e404 f   libconcrt:SchedulerProxy.obj
 0001:0013d520       ?Shutdown@SchedulerProxy@details@Concurrency@@UEAAXXZ 000000014013e520 f   libconcrt:SchedulerProxy.obj
 0001:0013d52c       ?SubscribeCurrentThread@SchedulerProxy@details@Concurrency@@UEAAPEAUIExecutionResource@3@XZ 000000014013e52c f   libconcrt:SchedulerProxy.obj
 0001:0013d538       ?ToggleBorrowedState@SchedulerProxy@details@Concurrency@@QEAAXPEAUSchedulerNode@23@I@Z 000000014013e538 f   libconcrt:SchedulerProxy.obj
 0001:0013d574       ?UnbindContext@SchedulerProxy@details@Concurrency@@UEAAXPEAUIExecutionContext@3@@Z 000000014013e574 f   libconcrt:SchedulerProxy.obj
 0001:0013d5d0       ?Initialize@UMS@details@Concurrency@@SAXXZ 000000014013e5d0 f   libconcrt:UMSWrapper.obj
 0001:0013dc84       ?Initialize@WinRT@details@Concurrency@@SAXXZ 000000014013ec84 f   libconcrt:WinRTWrapper.obj
 0001:0013ddbc       ?RoInitialize@WinRT@details@Concurrency@@SAJW4RO_INIT_TYPE@@@Z 000000014013edbc f   libconcrt:WinRTWrapper.obj
 0001:0013ddf4       ?RoUninitialize@WinRT@details@Concurrency@@SAXXZ 000000014013edf4 f   libconcrt:WinRTWrapper.obj
 0001:0013de1c       ??0ThreadProxyFactoryManager@details@Concurrency@@QEAA@XZ 000000014013ee1c f   libconcrt:ThreadProxyFactoryManager.obj
 0001:0013de58       ??1ThreadProxyFactoryManager@details@Concurrency@@QEAA@XZ 000000014013ee58 f   libconcrt:ThreadProxyFactoryManager.obj
 0001:0013ded4       ??_G?$ThreadProxyFactory@VFreeThreadProxy@details@Concurrency@@@details@Concurrency@@UEAAPEAXI@Z 000000014013eed4 f i libconcrt:ThreadProxyFactoryManager.obj
 0001:0013ded4       ??_E?$ThreadProxyFactory@VFreeThreadProxy@details@Concurrency@@@details@Concurrency@@UEAAPEAXI@Z 000000014013eed4 f i libconcrt:ThreadProxyFactoryManager.obj
 0001:0013df00       ??_EFreeThreadProxy@details@Concurrency@@UEAAPEAXI@Z 000000014013ef00 f i libconcrt:ThreadProxyFactoryManager.obj
 0001:0013df00       ??_GFreeThreadProxy@details@Concurrency@@UEAAPEAXI@Z 000000014013ef00 f i libconcrt:ThreadProxyFactoryManager.obj
 0001:0013df40       ??_EFreeThreadProxyFactory@details@Concurrency@@UEAAPEAXI@Z 000000014013ef40 f i libconcrt:ThreadProxyFactoryManager.obj
 0001:0013df40       ??_GFreeThreadProxyFactory@details@Concurrency@@UEAAPEAXI@Z 000000014013ef40 f i libconcrt:ThreadProxyFactoryManager.obj
 0001:0013df6c       ??_GIThreadProxyFactory@details@Concurrency@@UEAAPEAXI@Z 000000014013ef6c f i libconcrt:ThreadProxyFactoryManager.obj
 0001:0013df6c       ??_EIThreadProxyFactory@details@Concurrency@@UEAAPEAXI@Z 000000014013ef6c f i libconcrt:ThreadProxyFactoryManager.obj
 0001:0013df98       ?Create@FreeThreadProxyFactory@details@Concurrency@@EEAAPEAVFreeThreadProxy@23@I@Z 000000014013ef98 f i libconcrt:ThreadProxyFactoryManager.obj
 0001:0013e018       ?CreateFactory@FreeThreadProxyFactory@details@Concurrency@@SAPEAV123@PEAVThreadProxyFactoryManager@23@@Z 000000014013f018 f i libconcrt:ThreadProxyFactoryManager.obj
 0001:0013e0b0       ?GetExecutionResourceTls@?$ThreadProxyFactory@VFreeThreadProxy@details@Concurrency@@@details@Concurrency@@UEAAKXZ 000000014013f0b0 f i libconcrt:ThreadProxyFactoryManager.obj
 0001:0013e0b4       ?GetFreeThreadProxyFactory@ThreadProxyFactoryManager@details@Concurrency@@QEAAPEAVFreeThreadProxyFactory@23@XZ 000000014013f0b4 f   libconcrt:ThreadProxyFactoryManager.obj
 0001:0013e10c       ?Prepare@?$ThreadProxyFactory@VFreeThreadProxy@details@Concurrency@@@details@Concurrency@@MEAAXPEAVFreeThreadProxy@23@H@Z 000000014013f10c f i libconcrt:ThreadProxyFactoryManager.obj
 0001:0013e12c       ?ReclaimProxy@?$ThreadProxyFactory@VFreeThreadProxy@details@Concurrency@@@details@Concurrency@@UEAAXPEAUIThreadProxy@3@@Z 000000014013f12c f i libconcrt:ThreadProxyFactoryManager.obj
 0001:0013e1c4       ?ReclaimProxy@FreeThreadProxyFactory@details@Concurrency@@UEAAXPEAUIThreadProxy@3@@Z 000000014013f1c4 f i libconcrt:ThreadProxyFactoryManager.obj
 0001:0013e2b8       ?Reference@FreeThreadProxyFactory@details@Concurrency@@UEAAJXZ 000000014013f2b8 f i libconcrt:ThreadProxyFactoryManager.obj
 0001:0013e2c8       ?Release@FreeThreadProxyFactory@details@Concurrency@@UEAAJXZ 000000014013f2c8 f i libconcrt:ThreadProxyFactoryManager.obj
 0001:0013e318       ?RequestProxy@?$ThreadProxyFactory@VFreeThreadProxy@details@Concurrency@@@details@Concurrency@@UEAAPEAUIThreadProxy@3@IH@Z 000000014013f318 f i libconcrt:ThreadProxyFactoryManager.obj
 0001:0013e3d4       ?Retire@FreeThreadProxyFactory@details@Concurrency@@EEAAXPEAVFreeThreadProxy@23@@Z 000000014013f3d4 f i libconcrt:ThreadProxyFactoryManager.obj
 0001:0013e3dc       ?RetireThreadProxies@?$ThreadProxyFactory@VFreeThreadProxy@details@Concurrency@@@details@Concurrency@@QEAAXXZ 000000014013f3dc f i libconcrt:ThreadProxyFactoryManager.obj
 0001:0013e468       ?ShutdownFactory@FreeThreadProxyFactory@details@Concurrency@@UEAAXXZ 000000014013f468 f i libconcrt:ThreadProxyFactoryManager.obj
 0001:0013e4a0       ?YieldToSystem@FreeThreadProxy@details@Concurrency@@UEAAXXZ 000000014013f4a0 f i libconcrt:ThreadProxyFactoryManager.obj
 0001:0013e4a8       ??0Etw@details@Concurrency@@AEAA@XZ 000000014013f4a8 f   libconcrt:Trace.obj
 0001:0013e5b0       ?ControlCallback@details@Concurrency@@YAKW4WMIDPREQUESTCODE@@PEAXPEAK1@Z 000000014013f5b0 f   libconcrt:Trace.obj
 0001:0013e678       ?GetEnableFlags@Etw@details@Concurrency@@QEAAK_K@Z 000000014013f678 f   libconcrt:Trace.obj
 0001:0013e6c8       ?GetEnableLevel@Etw@details@Concurrency@@QEAAE_K@Z 000000014013f6c8 f   libconcrt:Trace.obj
 0001:0013e718       ?GetLoggerHandle@Etw@details@Concurrency@@QEAA_KPEAX@Z 000000014013f718 f   libconcrt:Trace.obj
 0001:0013e76c       ?RegisterGuids@Etw@details@Concurrency@@QEAAKP6AKW4WMIDPREQUESTCODE@@PEAXPEAK1@ZPEBU_GUID@@KPEAU_TRACE_GUID_REGISTRATION@@PEA_K@Z 000000014013f76c f   libconcrt:Trace.obj
 0001:0013e7f8       ?Trace@Etw@details@Concurrency@@QEAAK_KPEAU_EVENT_TRACE_HEADER@@@Z 000000014013f7f8 f   libconcrt:Trace.obj
 0001:0013e850       ?UnregisterGuids@Etw@details@Concurrency@@QEAAK_K@Z 000000014013f850 f   libconcrt:Trace.obj
 0001:0013e898       ?_RegisterConcRTEventTracing@details@Concurrency@@YAXXZ 000000014013f898 f   libconcrt:Trace.obj
 0001:0013e958       ?_UnregisterConcRTEventTracing@details@Concurrency@@YAXXZ 000000014013f958 f   libconcrt:Trace.obj
 0001:0013e9a4       ??0VirtualProcessor@details@Concurrency@@QEAA@XZ 000000014013f9a4 f   libconcrt:VirtualProcessor.obj
 0001:0013ea18       ??1VirtualProcessor@details@Concurrency@@UEAA@XZ 000000014013fa18 f   libconcrt:VirtualProcessor.obj
 0001:0013ea74       ??_GVirtualProcessor@details@Concurrency@@UEAAPEAXI@Z 000000014013fa74 f i libconcrt:VirtualProcessor.obj
 0001:0013ea74       ??_EVirtualProcessor@details@Concurrency@@UEAAPEAXI@Z 000000014013fa74 f i libconcrt:VirtualProcessor.obj
 0001:0013eaa8       ?Affinitize@VirtualProcessor@details@Concurrency@@MEAAXPEAVInternalContextBase@23@@Z 000000014013faa8 f   libconcrt:VirtualProcessor.obj
 0001:0013eb14       ?CheckAffinityNotification@VirtualProcessor@details@Concurrency@@QEAA_NXZ 000000014013fb14 f   libconcrt:VirtualProcessor.obj
 0001:0013eb6c       ?CheckForDeletion@?$ListArray@VVirtualProcessor@details@Concurrency@@@details@Concurrency@@AEAAXXZ 000000014013fb6c f i libconcrt:VirtualProcessor.obj
 0001:0013ebec       ?CheckForDeletionBridge@?$ListArray@VVirtualProcessor@details@Concurrency@@@details@Concurrency@@CAXPEAV123@@Z 000000014013fbec f i libconcrt:VirtualProcessor.obj
 0001:0013ebf4       ?ClaimExclusiveOwnership@VirtualProcessor@details@Concurrency@@QEAA_NAEAVClaimTicket@123@K_N@Z 000000014013fbf4 f   libconcrt:VirtualProcessor.obj
 0001:0013ec8c       ?Deactivate@VirtualProcessor@details@Concurrency@@QEAA_NPEAUIExecutionContext@3@@Z 000000014013fc8c f   libconcrt:VirtualProcessor.obj
 0001:0013ecd0       ?EnsureAllTasksVisible@VirtualProcessor@details@Concurrency@@QEAAXPEAUIExecutionContext@3@@Z 000000014013fcd0 f   libconcrt:VirtualProcessor.obj
 0001:0013ed14       ?ExerciseClaim@VirtualProcessor@details@Concurrency@@AEAA_NW4AvailabilityType@123@PEAVScheduleGroupSegmentBase@23@PEAVInternalContextBase@23@@Z 000000014013fd14 f   libconcrt:VirtualProcessor.obj
 0001:0013edf0       ?ExerciseWith@ClaimTicket@VirtualProcessor@details@Concurrency@@QEAA_NPEAVInternalContextBase@34@@Z 000000014013fdf0 f   libconcrt:VirtualProcessor.obj
 0001:0013ee24       ?GetCurrentSubAllocator@VirtualProcessor@details@Concurrency@@QEAAPEAVSubAllocator@23@XZ 000000014013fe24 f   libconcrt:VirtualProcessor.obj
 0001:0013ee54       ?Initialize@VirtualProcessor@details@Concurrency@@MEAAXPEAVSchedulingNode@23@PEAUIVirtualProcessorRoot@3@@Z 000000014013fe54 f   libconcrt:VirtualProcessor.obj
 0001:0013f0bc       ?InterlockedClear@ReferenceCountedQuickBitSet@details@Concurrency@@QEAAII@Z 00000001401400bc f i libconcrt:VirtualProcessor.obj
 0001:0013f158       ?InterlockedSet@ReferenceCountedQuickBitSet@details@Concurrency@@QEAAII@Z 0000000140140158 f i libconcrt:VirtualProcessor.obj
 0001:0013f1f4       ?MakeAvailable@VirtualProcessor@details@Concurrency@@IEAAXW4AvailabilityType@123@_N@Z 00000001401401f4 f   libconcrt:VirtualProcessor.obj
 0001:0013f274       ?MarkForRetirement@VirtualProcessor@details@Concurrency@@AEAAXXZ 0000000140140274 f   libconcrt:VirtualProcessor.obj
 0001:0013f2ec       ?Oversubscribe@VirtualProcessor@details@Concurrency@@EEAAPEAV123@XZ 00000001401402ec f   libconcrt:VirtualProcessor.obj
 0001:0013f348       ?Pop@?$StructuredWorkStealingQueue@VInternalContextBase@details@Concurrency@@V_HyperNonReentrantLock@23@@details@Concurrency@@QEAAPEAVInternalContextBase@23@XZ 0000000140140348 f i libconcrt:VirtualProcessor.obj
 0001:0013f3f4       ?Remove@?$ListArray@VVirtualProcessor@details@Concurrency@@@details@Concurrency@@QEAA_NPEAVVirtualProcessor@23@H_N@Z 00000001401403f4 f i libconcrt:VirtualProcessor.obj
 0001:0013f538       ?Retire@VirtualProcessor@details@Concurrency@@MEAAXXZ 0000000140140538 f   libconcrt:VirtualProcessor.obj
 0001:0013f76c       ?SafePoint@VirtualProcessor@details@Concurrency@@QEAA_NXZ 000000014014076c f   libconcrt:VirtualProcessor.obj
 0001:0013f780       ?StartupWorkerContext@VirtualProcessor@details@Concurrency@@EEAA_NPEAVScheduleGroupSegmentBase@23@PEAVInternalContextBase@23@@Z 0000000140140780 f   libconcrt:VirtualProcessor.obj
 0001:0013f878       ?ThrowVirtualProcessorEvent@VirtualProcessor@details@Concurrency@@CAXW4ConcRT_EventType@3@EKK@Z 0000000140140878 f   libconcrt:VirtualProcessor.obj
 0001:0013f914       ?ToInternalContext@VirtualProcessor@details@Concurrency@@MEAAPEAVInternalContextBase@23@PEAUIExecutionContext@3@@Z 0000000140140914 f   libconcrt:VirtualProcessor.obj
 0001:0013f918       ?UpdateWorkState@VirtualProcessor@details@Concurrency@@QEAAX_N0@Z 0000000140140918 f   libconcrt:VirtualProcessor.obj
 0001:0013f9cc       ?Wipe@QuickBitSet@details@Concurrency@@QEAAXXZ 00000001401409cc f i libconcrt:VirtualProcessor.obj
 0001:0013fa60       ??0?$ListArray@U?$ListArrayInlineLink@VWorkQueue@details@Concurrency@@@details@Concurrency@@@details@Concurrency@@QEAA@PEAVSchedulerBase@12@HH@Z 0000000140140a60 f i libconcrt:ScheduleGroupBase.obj
 0001:0013fa60       ??0?$ListArray@VWorkQueue@details@Concurrency@@@details@Concurrency@@QEAA@PEAVSchedulerBase@12@HH@Z 0000000140140a60 f i libconcrt:ScheduleGroupBase.obj
 0001:0013fa60       ??0?$ListArray@VExternalStatistics@details@Concurrency@@@details@Concurrency@@QEAA@PEAVSchedulerBase@12@HH@Z 0000000140140a60 f i libconcrt:SchedulerBase.obj
 0001:0013fa60       ??0?$ListArray@VScheduleGroupBase@details@Concurrency@@@details@Concurrency@@QEAA@PEAVSchedulerBase@12@HH@Z 0000000140140a60 f i libconcrt:SchedulerBase.obj
 0001:0013fa60       ??0?$ListArray@VVirtualProcessor@details@Concurrency@@@details@Concurrency@@QEAA@PEAVSchedulerBase@12@HH@Z 0000000140140a60 f i libconcrt:SchedulingNode.obj
 0001:0013fa60       ??0?$ListArray@VScheduleGroupSegmentBase@details@Concurrency@@@details@Concurrency@@QEAA@PEAVSchedulerBase@12@HH@Z 0000000140140a60 f i libconcrt:SchedulingRing.obj
 0001:0013fb90       ??0SchedulingNode@details@Concurrency@@QEAA@AEBVQuickBitSet@12@KPEAVSchedulingRing@12@@Z 0000000140140b90 f   libconcrt:SchedulingNode.obj
 0001:0013fc68       ??1?$ListArray@VVirtualProcessor@details@Concurrency@@@details@Concurrency@@QEAA@XZ 0000000140140c68 f i libconcrt:SchedulingNode.obj
 0001:0013fdb4       ??1SchedulingNode@details@Concurrency@@QEAA@XZ 0000000140140db4 f   libconcrt:SchedulingNode.obj
 0001:0013fdf0       ?Add@?$ListArray@VVirtualProcessor@details@Concurrency@@@details@Concurrency@@QEAAHPEAVVirtualProcessor@23@@Z 0000000140140df0 f i libconcrt:SchedulingNode.obj
 0001:0013ff70       ?AddVirtualProcessor@SchedulingNode@details@Concurrency@@QEAAPEAVVirtualProcessor@23@PEAUIVirtualProcessorRoot@3@_N@Z 0000000140140f70 f   libconcrt:SchedulingNode.obj
 0001:001400e0       ?FindMatchingVirtualProcessor@SchedulingNode@details@Concurrency@@QEAAPEAVVirtualProcessor@23@PEAUIVirtualProcessorRoot@3@@Z 00000001401410e0 f   libconcrt:SchedulingNode.obj
 0001:00140198       ?FindVirtualProcessorByLocation@SchedulingNode@details@Concurrency@@QEAAPEAVVirtualProcessor@23@PEBVlocation@3@@Z 0000000140141198 f   libconcrt:SchedulingNode.obj
 0001:00140278       ?FoundAvailableVirtualProcessor@SchedulingNode@details@Concurrency@@AEAA_NAEAVClaimTicket@VirtualProcessor@23@Vlocation@3@K@Z 0000000140141278 f   libconcrt:SchedulingNode.obj
 0001:00140388       ?GetLocation@SchedulingNode@details@Concurrency@@QEAA?AVlocation@3@XZ 0000000140141388 f   libconcrt:SchedulingNode.obj
 0001:001403ec       ?UnlockedSteal@?$StructuredWorkStealingQueue@VInternalContextBase@details@Concurrency@@V_HyperNonReentrantLock@23@@details@Concurrency@@QEAAPEAVInternalContextBase@23@_N@Z 00000001401413ec f i libconcrt:SchedulingNode.obj
 0001:001404f8       ??0AllocatorBucket@details@Concurrency@@QEAA@XZ 00000001401414f8 f   libconcrt:SubAllocator.obj
 0001:00140518       ??1AllocatorBucket@details@Concurrency@@QEAA@XZ 0000000140141518 f   libconcrt:SubAllocator.obj
 0001:00140554       ?Alloc@AllocatorBucket@details@Concurrency@@QEAAPEATAllocationEntry@23@XZ 0000000140141554 f   libconcrt:SubAllocator.obj
 0001:0014057c       ?Alloc@SubAllocator@details@Concurrency@@QEAAPEAX_K@Z 000000014014157c f   libconcrt:SubAllocator.obj
 0001:001405fc       ?Free@AllocatorBucket@details@Concurrency@@QEAA_NPEATAllocationEntry@23@@Z 00000001401415fc f   libconcrt:SubAllocator.obj
 0001:0014062c       ?Free@SubAllocator@details@Concurrency@@QEAAXPEAX@Z 000000014014162c f   libconcrt:SubAllocator.obj
 0001:00140678       ?GetBucketIndex@SubAllocator@details@Concurrency@@SAH_K@Z 0000000140141678 f   libconcrt:SubAllocator.obj
 0001:001406d0       ?StaticAlloc@SubAllocator@details@Concurrency@@SAPEAX_K@Z 00000001401416d0 f   libconcrt:SubAllocator.obj
 0001:00140720       ??0InternalContextBase@details@Concurrency@@QEAA@PEAVSchedulerBase@12@@Z 0000000140141720 f   libconcrt:InternalContextBase.obj
 0001:001407b0       ??0context_self_unblock@Concurrency@@QEAA@AEBV01@@Z 00000001401417b0 f i libconcrt:InternalContextBase.obj
 0001:001407f0       ??0context_unblock_unbalanced@Concurrency@@QEAA@AEBV01@@Z 00000001401417f0 f i libconcrt:InternalContextBase.obj
 0001:00140830       ??0invalid_oversubscribe_operation@Concurrency@@QEAA@AEBV01@@Z 0000000140141830 f i libconcrt:InternalContextBase.obj
 0001:00140870       ??0nested_scheduler_missing_detach@Concurrency@@QEAA@AEBV01@@Z 0000000140141870 f i libconcrt:InternalContextBase.obj
 0001:001408b0       ??1InternalContextBase@details@Concurrency@@UEAA@XZ 00000001401418b0 f   libconcrt:InternalContextBase.obj
 0001:001408ec       ??1ScopedCriticalRegion@ContextBase@details@Concurrency@@QEAA@XZ 00000001401418ec f i libconcrt:InternalContextBase.obj
 0001:00140908       ??_EInternalContextBase@details@Concurrency@@WBA@EAAPEAXI@Z 0000000140141908 f i libconcrt:InternalContextBase.obj
 0001:00140914       ??_GInternalContextBase@details@Concurrency@@UEAAPEAXI@Z 0000000140141914 f i libconcrt:InternalContextBase.obj
 0001:00140914       ??_EInternalContextBase@details@Concurrency@@UEAAPEAXI@Z 0000000140141914 f i libconcrt:InternalContextBase.obj
 0001:00140948       ?AddToRunnables@InternalContextBase@details@Concurrency@@MEAAXVlocation@3@@Z 0000000140141948 f   libconcrt:InternalContextBase.obj
 0001:00140bf0       ?Alloc@InternalContextBase@details@Concurrency@@UEAAPEAX_K@Z 0000000140141bf0 f   libconcrt:InternalContextBase.obj
 0001:00140c60       ?Block@InternalContextBase@details@Concurrency@@UEAAXXZ 0000000140141c60 f   libconcrt:InternalContextBase.obj
 0001:00140e38       ?Cancel@InternalContextBase@details@Concurrency@@MEAAXXZ 0000000140141e38 f   libconcrt:InternalContextBase.obj
 0001:00140ecc       ?Cleanup@InternalContextBase@details@Concurrency@@IEAAXXZ 0000000140141ecc f   libconcrt:InternalContextBase.obj
 0001:00140ef0       ?CleanupDispatchedContextOnCancel@InternalContextBase@details@Concurrency@@IEAAXXZ 0000000140141ef0 f   libconcrt:InternalContextBase.obj
 0001:00140f18       ?Dispatch@InternalContextBase@details@Concurrency@@UEAAXPEAUDispatchState@3@@Z 0000000140141f18 f   libconcrt:InternalContextBase.obj
 0001:001410e8       ?ExecuteChoreInline@InternalContextBase@details@Concurrency@@IEAAXPEAVWorkItem@23@@Z 00000001401420e8 f   libconcrt:InternalContextBase.obj
 0001:00141140       ?ExecutedAssociatedChore@InternalContextBase@details@Concurrency@@IEAA_NXZ 0000000140142140 f   libconcrt:InternalContextBase.obj
 0001:001411e0       ?FindWorkForBlockingOrNesting@InternalContextBase@details@Concurrency@@AEAAPEAV123@AEA_N0@Z 00000001401421e0 f   libconcrt:InternalContextBase.obj
 0001:00141384       ?Free@InternalContextBase@details@Concurrency@@UEAAXPEAX@Z 0000000140142384 f   libconcrt:InternalContextBase.obj
 0001:001413c4       ?GetAndResetOversubscribedVProc@InternalContextBase@details@Concurrency@@QEAAPEAVVirtualProcessor@23@PEAV423@@Z 00000001401423c4 f   libconcrt:InternalContextBase.obj
 0001:001413ec       ?Id@ScheduleGroupBase@details@Concurrency@@UEBAIXZ 00000001401423ec f   libconcrt:SchedulerBase.obj
 0001:001413ec       ?GetId@InternalContextBase@details@Concurrency@@UEBAIXZ 00000001401423ec f   libconcrt:InternalContextBase.obj
 0001:001413f0       ?GetId@InternalContextBase@details@Concurrency@@WBA@EBAIXZ 00000001401423f0 f i libconcrt:InternalContextBase.obj
 0001:001413fc       ?GetProxy@InternalContextBase@details@Concurrency@@UEAAPEAUIThreadProxy@3@XZ 00000001401423fc f   libconcrt:InternalContextBase.obj
 0001:00141404       ?GetScheduler@InternalContextBase@details@Concurrency@@UEAAPEAUIScheduler@3@XZ 0000000140142404 f   libconcrt:InternalContextBase.obj
 0001:00141434       ?GetVirtualProcessorId@InternalContextBase@details@Concurrency@@UEBAIXZ 0000000140142434 f   libconcrt:InternalContextBase.obj
 0001:0014147c       ?GrowAndPush@?$StructuredWorkStealingQueue@VInternalContextBase@details@Concurrency@@V_HyperNonReentrantLock@23@@details@Concurrency@@AEAAXPEAVInternalContextBase@23@VSlot@?$Mailbox@VInternalContextBase@details@Concurrency@@@23@@Z 000000014014247c f i libconcrt:InternalContextBase.obj
 0001:0014163c       ?IsSynchronouslyBlocked@InternalContextBase@details@Concurrency@@UEBA_NXZ 000000014014263c f i libconcrt:InternalContextBase.obj
 0001:00141648       ?IsVirtualProcessorRetired@InternalContextBase@details@Concurrency@@IEAA_NXZ 0000000140142648 f   libconcrt:InternalContextBase.obj
 0001:001416b8       ?LeaveScheduler@InternalContextBase@details@Concurrency@@AEAAXXZ 00000001401426b8 f   libconcrt:InternalContextBase.obj
 0001:001417fc       ?Oversubscribe@InternalContextBase@details@Concurrency@@UEAAX_N@Z 00000001401427fc f   libconcrt:InternalContextBase.obj
 0001:001418b0       ?PrepareForUse@InternalContextBase@details@Concurrency@@QEAAXPEAVScheduleGroupSegmentBase@23@PEAU_Chore@23@_N@Z 00000001401428b0 f   libconcrt:InternalContextBase.obj
 0001:00141900       ?PrepareToRun@InternalContextBase@details@Concurrency@@MEAAXPEAVVirtualProcessor@23@@Z 0000000140142900 f i libconcrt:InternalContextBase.obj
 0001:00141910       _guard_check_icall_nop     0000000140142910 f i MSVCRT:guard_support.obj
 0001:00141910       ?Destroy@WaitAnyBlock@details@Concurrency@@UEAAXXZ 0000000140142910 f i libconcrt:event.obj
 0001:00141910       ?VirtualProcessorActiveNotification@SchedulerBase@details@Concurrency@@MEAAX_NJ@Z 0000000140142910 f i libconcrt:SchedulerBase.obj
 0001:00141910       ?CreateNodeTopology@ResourceManager@details@Concurrency@@UEAAXIPEAIPEAPEAI0@Z 0000000140142910 f i libconcrt:ResourceManager.obj
 0001:00141910       ?destroy@stl_condition_variable_vista@details@Concurrency@@UEAAXXZ 0000000140142910 f i libcpmt:cond.obj
 0001:00141910       ?NotifyResourcesExternallyBusy@ThreadScheduler@details@Concurrency@@UEAAXPEAPEAUIVirtualProcessorRoot@3@I@Z 0000000140142910 f i libconcrt:ThreadScheduler.obj
 0001:00141910       ?destroy@stl_condition_variable_win7@details@Concurrency@@UEAAXXZ 0000000140142910 f i libcpmt:cond.obj
 0001:00141910       _initialize_invalid_parameter_handler 0000000140142910 f i MSVCRT:invalid_parameter_handler.obj
 0001:00141910       ?NotifyResourcesExternallyIdle@ThreadScheduler@details@Concurrency@@UEAAXPEAPEAUIVirtualProcessorRoot@3@I@Z 0000000140142910 f i libconcrt:ThreadScheduler.obj
 0001:00141910       ??1critical_section@Concurrency@@QEAA@XZ 0000000140142910 f i libconcrt:rtlocks.obj
 0001:00141910       ?destroy@stl_critical_section_win7@details@Concurrency@@UEAAXXZ 0000000140142910 f i libcpmt:mutex.obj
 0001:00141910       ?RMAwaken@InternalContextBase@details@Concurrency@@EEAAXXZ 0000000140142910 f i libconcrt:InternalContextBase.obj
 0001:00141910       ?NotifyAffinitizedWork@FairScheduleGroupSegment@details@Concurrency@@UEAAXXZ 0000000140142910 f i libconcrt:SchedulerBase.obj
 0001:00141910       _initialize_denormal_control 0000000140142910 f i MSVCRT:denormal_control.obj
 0001:00141914       ?ReclaimVirtualProcessor@InternalContextBase@details@Concurrency@@IEAAXXZ 0000000140142914 f   libconcrt:InternalContextBase.obj
 0001:00141988       ?RejoinScheduler@InternalContextBase@details@Concurrency@@AEAAXXZ 0000000140142988 f   libconcrt:InternalContextBase.obj
 0001:001419c0       ?RemoveFromUse@InternalContextBase@details@Concurrency@@QEAAXXZ 00000001401429c0 f   libconcrt:InternalContextBase.obj
 0001:001419f4       ?SetProxy@InternalContextBase@details@Concurrency@@UEAAXPEAUIThreadProxy@3@@Z 00000001401429f4 f   libconcrt:InternalContextBase.obj
 0001:00141a2c       ?SpinUntilBlocked@InternalContextBase@details@Concurrency@@IEAAXXZ 0000000140142a2c f   libconcrt:InternalContextBase.obj
 0001:00141a64       ?SpinYield@InternalContextBase@details@Concurrency@@UEAAXXZ 0000000140142a64 f   libconcrt:InternalContextBase.obj
 0001:00141b88       ?SwapScheduleGroupSegment@InternalContextBase@details@Concurrency@@QEAAXPEAVScheduleGroupSegmentBase@23@_N@Z 0000000140142b88 f   libconcrt:InternalContextBase.obj
 0001:00141c48       ?SwitchOut@InternalContextBase@details@Concurrency@@IEAA_NW4ReasonForSwitch@123@@Z 0000000140142c48 f   libconcrt:InternalContextBase.obj
 0001:00141dd8       ?SwitchTo@InternalContextBase@details@Concurrency@@IEAAXPEAV123@W4ReasonForSwitch@123@@Z 0000000140142dd8 f   libconcrt:InternalContextBase.obj
 0001:00141fc0       ?Unblock@InternalContextBase@details@Concurrency@@UEAAXXZ 0000000140142fc0 f   libconcrt:InternalContextBase.obj
 0001:0014210c       ?WaitForWork@InternalContextBase@details@Concurrency@@IEAAXXZ 000000014014310c f   libconcrt:InternalContextBase.obj
 0001:0014226c       ?WorkWasFound@InternalContextBase@details@Concurrency@@IEAA_NPEAVWorkItem@23@@Z 000000014014326c f   libconcrt:InternalContextBase.obj
 0001:00142318       ?Yield@InternalContextBase@details@Concurrency@@UEAAXXZ 0000000140143318 f   libconcrt:InternalContextBase.obj
 0001:00142534       ??0SchedulingRing@details@Concurrency@@QEAA@PEAVSchedulerBase@12@H@Z 0000000140143534 f   libconcrt:SchedulingRing.obj
 0001:001425f4       ??1?$ListArray@VScheduleGroupSegmentBase@details@Concurrency@@@details@Concurrency@@QEAA@XZ 00000001401435f4 f i libconcrt:SchedulingRing.obj
 0001:00142740       ??1SchedulingRing@details@Concurrency@@QEAA@XZ 0000000140143740 f   libconcrt:SchedulingRing.obj
 0001:00142768       ?Activate@SchedulingRing@details@Concurrency@@QEAAXXZ 0000000140143768 f   libconcrt:SchedulingRing.obj
 0001:00142774       ?CheckForDeletion@?$ListArray@VScheduleGroupSegmentBase@details@Concurrency@@@details@Concurrency@@AEAAXXZ 0000000140143774 f i libconcrt:SchedulingRing.obj
 0001:001427f4       ?CheckForDeletionBridge@?$ListArray@VScheduleGroupSegmentBase@details@Concurrency@@@details@Concurrency@@CAXPEAV123@@Z 00000001401437f4 f i libconcrt:SchedulingRing.obj
 0001:001427fc       ?Remove@?$ListArray@VScheduleGroupSegmentBase@details@Concurrency@@@details@Concurrency@@QEAA_NPEAVScheduleGroupSegmentBase@23@H_N@Z 00000001401437fc f i libconcrt:SchedulingRing.obj
 0001:00142940       ?RemoveScheduleGroupSegment@SchedulingRing@details@Concurrency@@AEAAXPEAVScheduleGroupSegmentBase@23@@Z 0000000140143940 f   libconcrt:SchedulingRing.obj
 0001:00142968       ??0?$Mailbox@V_UnrealizedChore@details@Concurrency@@@details@Concurrency@@QEAA@PEAVSchedulerBase@12@AEBVQuickBitSet@12@_NI@Z 0000000140143968 f i libconcrt:ScheduleGroupBase.obj
 0001:00142a2c       ??0ScheduleGroupBase@details@Concurrency@@QEAA@PEAVSchedulerBase@12@PEAVlocation@2@@Z 0000000140143a2c f   libconcrt:ScheduleGroupBase.obj
 0001:00142ac0       ??0ScheduleGroupSegmentBase@details@Concurrency@@IEAA@PEAVScheduleGroupBase@12@PEAVSchedulingRing@12@PEAVlocation@2@@Z 0000000140143ac0 f   libconcrt:ScheduleGroupBase.obj
 0001:00142bcc       ??0Segment@?$Mailbox@V_UnrealizedChore@details@Concurrency@@@details@Concurrency@@QEAA@PEAVSchedulerBase@23@AEBVQuickBitSet@23@II@Z 0000000140143bcc f i libconcrt:ScheduleGroupBase.obj
 0001:00142c54       ??1?$ListArray@U?$ListArrayInlineLink@VWorkQueue@details@Concurrency@@@details@Concurrency@@@details@Concurrency@@QEAA@XZ 0000000140143c54 f i libconcrt:ScheduleGroupBase.obj
 0001:00142d48       ??1?$ListArray@VWorkQueue@details@Concurrency@@@details@Concurrency@@QEAA@XZ 0000000140143d48 f i libconcrt:ScheduleGroupBase.obj
 0001:00142f04       ??1?$Mailbox@V_UnrealizedChore@details@Concurrency@@@details@Concurrency@@QEAA@XZ 0000000140143f04 f i libconcrt:ScheduleGroupBase.obj
 0001:00142f78       ??1ScheduleGroupSegmentBase@details@Concurrency@@UEAA@XZ 0000000140143f78 f   libconcrt:ScheduleGroupBase.obj
 0001:00142ffc       ??_EScheduleGroupSegmentBase@details@Concurrency@@UEAAPEAXI@Z 0000000140143ffc f i libconcrt:ScheduleGroupBase.obj
 0001:00142ffc       ??_GScheduleGroupSegmentBase@details@Concurrency@@UEAAPEAXI@Z 0000000140143ffc f i libconcrt:ScheduleGroupBase.obj
 0001:00143030       ?Add@?$ListArray@U?$ListArrayInlineLink@VWorkQueue@details@Concurrency@@@details@Concurrency@@@details@Concurrency@@QEAAHPEAU?$ListArrayInlineLink@VWorkQueue@details@Concurrency@@@23@@Z 0000000140144030 f i libconcrt:ScheduleGroupBase.obj
 0001:001431ac       ?Add@?$ListArray@VExternalStatistics@details@Concurrency@@@details@Concurrency@@QEAAHPEAVExternalStatistics@23@@Z 00000001401441ac f i libconcrt:ScheduleGroupBase.obj
 0001:00143328       ?Add@?$ListArray@VScheduleGroupSegmentBase@details@Concurrency@@@details@Concurrency@@QEAAHPEAVScheduleGroupSegmentBase@23@@Z 0000000140144328 f i libconcrt:ScheduleGroupBase.obj
 0001:001434a8       ?AddRunnableContext@ScheduleGroupSegmentBase@details@Concurrency@@IEAAXPEAVInternalContextBase@23@Vlocation@3@@Z 00000001401444a8 f   libconcrt:ScheduleGroupBase.obj
 0001:0014363c       ?CheckForDeletionBridge@?$ListArray@U?$ListArrayInlineLink@VWorkQueue@details@Concurrency@@@details@Concurrency@@@details@Concurrency@@CAXPEAV123@@Z 000000014014463c f i libconcrt:ScheduleGroupBase.obj
 0001:00143690       ?CreateSegment@ScheduleGroupBase@details@Concurrency@@IEAAPEAVScheduleGroupSegmentBase@23@PEAVlocation@3@PEAVSchedulingRing@23@@Z 0000000140144690 f   libconcrt:ScheduleGroupBase.obj
 0001:0014377c       ?DemandInitialize@?$Mailbox@V_UnrealizedChore@details@Concurrency@@@details@Concurrency@@AEAAXXZ 000000014014477c f i libconcrt:ScheduleGroupBase.obj
 0001:0014380c       ?Dequeue@?$Mailbox@V_UnrealizedChore@details@Concurrency@@@details@Concurrency@@QEAA_NPEAPEAV_UnrealizedChore@23@@Z 000000014014480c f i libconcrt:ScheduleGroupBase.obj
 0001:001438fc       ?DetachActiveWorkQueue@ScheduleGroupSegmentBase@details@Concurrency@@IEAAXPEAVWorkQueue@23@@Z 00000001401448fc f   libconcrt:ScheduleGroupBase.obj
 0001:0014398c       ?FindSegment@ScheduleGroupBase@details@Concurrency@@MEAAPEAVScheduleGroupSegmentBase@23@PEAVlocation@3@PEAVSchedulingRing@23@@Z 000000014014498c f   libconcrt:ScheduleGroupBase.obj
 0001:00143a04       ?GetDetachedWorkQueue@ScheduleGroupSegmentBase@details@Concurrency@@IEAAPEAVWorkQueue@23@XZ 0000000140144a04 f   libconcrt:ScheduleGroupBase.obj
 0001:00143b18       ?GetInternalContext@ScheduleGroupSegmentBase@details@Concurrency@@IEAAPEAVInternalContextBase@23@PEAU_Chore@23@_N@Z 0000000140144b18 f   libconcrt:ScheduleGroupBase.obj
 0001:00143b78       ?GetRealizedChore@ScheduleGroupSegmentBase@details@Concurrency@@IEAAPEAVRealizedChore@23@XZ 0000000140144b78 f   libconcrt:ScheduleGroupBase.obj
 0001:00143be4       ?HasRealizedChores@ScheduleGroupSegmentBase@details@Concurrency@@IEBA_NXZ 0000000140144be4 f   libconcrt:ScheduleGroupBase.obj
 0001:00143bf0       ?HasUnrealizedChores@ScheduleGroupSegmentBase@details@Concurrency@@IEAA_NXZ 0000000140144bf0 f   libconcrt:ScheduleGroupBase.obj
 0001:00143c04       ?Initialize@ScheduleGroupBase@details@Concurrency@@QEAAXPEAVlocation@3@@Z 0000000140144c04 f   libconcrt:ScheduleGroupBase.obj
 0001:00143c40       ?Initialize@ScheduleGroupSegmentBase@details@Concurrency@@IEAAXPEAVScheduleGroupBase@23@PEAVSchedulingRing@23@PEAVlocation@3@@Z 0000000140144c40 f   libconcrt:ScheduleGroupBase.obj
 0001:00143d60       ?LocateMailboxSegment@?$Mailbox@V_UnrealizedChore@details@Concurrency@@@details@Concurrency@@AEAAPEAUSegment@123@I_N@Z 0000000140144d60 f i libconcrt:ScheduleGroupBase.obj
 0001:00143e18       ?LocateSegment@ScheduleGroupBase@details@Concurrency@@UEAAPEAVScheduleGroupSegmentBase@23@PEAVlocation@3@_N@Z 0000000140144e18 f   libconcrt:ScheduleGroupBase.obj
 0001:00143f9c       ?LocateUnrealizedChores@ScheduleGroupSegmentBase@details@Concurrency@@IEAAPEAVWorkQueue@23@XZ 0000000140144f9c f   libconcrt:ScheduleGroupBase.obj
 0001:0014409c       ?RedetachQueue@ScheduleGroupSegmentBase@details@Concurrency@@QEAAXPEAVWorkQueue@23@@Z 000000014014509c f   libconcrt:ScheduleGroupBase.obj
 0001:001440ac       ?ReleaseInternalContext@ScheduleGroupSegmentBase@details@Concurrency@@IEAAXPEAVInternalContextBase@23@@Z 00000001401450ac f   libconcrt:ScheduleGroupBase.obj
 0001:001440e4       ?Remove@?$ListArray@U?$ListArrayInlineLink@VWorkQueue@details@Concurrency@@@details@Concurrency@@@details@Concurrency@@QEAA_NPEAU?$ListArrayInlineLink@VWorkQueue@details@Concurrency@@@23@H_N@Z 00000001401450e4 f i libconcrt:ScheduleGroupBase.obj
 0001:00144228       ?Remove@ScheduleGroupSegmentBase@details@Concurrency@@IEAAXXZ 0000000140145228 f   libconcrt:ScheduleGroupBase.obj
 0001:0014425c       ?RemoveSegments@ScheduleGroupBase@details@Concurrency@@MEAAXXZ 000000014014525c f   libconcrt:ScheduleGroupBase.obj
 0001:001442b8       ?RetireDetachedQueue@ScheduleGroupSegmentBase@details@Concurrency@@QEAAXPEAVWorkQueue@23@@Z 00000001401452b8 f   libconcrt:ScheduleGroupBase.obj
 0001:00144320       ?SafelyDeleteDetachedWorkQueue@ScheduleGroupSegmentBase@details@Concurrency@@IEAA_NPEAVWorkQueue@23@@Z 0000000140145320 f   libconcrt:ScheduleGroupBase.obj
 0001:00144380       ?ScheduleTask@ScheduleGroupBase@details@Concurrency@@QEAAXP6AXPEAX@Z0AEAVlocation@3@@Z 0000000140145380 f   libconcrt:ScheduleGroupBase.obj
 0001:001443e8       ?ScheduleTask@ScheduleGroupBase@details@Concurrency@@UEAAXP6AXPEAX@Z0@Z 00000001401453e8 f   libconcrt:ScheduleGroupBase.obj
 0001:00144450       ?ScheduleTask@ScheduleGroupSegmentBase@details@Concurrency@@QEAAXP6AXPEAX@Z0@Z 0000000140145450 f   libconcrt:ScheduleGroupBase.obj
 0001:00144610       ?StealUnrealizedChore@ScheduleGroupSegmentBase@details@Concurrency@@IEAAPEAV_UnrealizedChore@23@_N@Z 0000000140145610 f   libconcrt:ScheduleGroupBase.obj
 0001:001449a8       ??IQuickBitSet@details@Concurrency@@QEBA?AV012@AEBV012@@Z 00000001401459a8 f i libconcrt:CacheLocalScheduleGroup.obj
 0001:00144a50       ?AddToRunnablesCollection@CacheLocalScheduleGroupSegment@details@Concurrency@@EEAAXPEAVInternalContextBase@23@@Z 0000000140145a50 f   libconcrt:CacheLocalScheduleGroup.obj
 0001:00144ab4       ?Enqueue@?$Mailbox@V_UnrealizedChore@details@Concurrency@@@details@Concurrency@@QEAA?AVSlot@123@PEAV_UnrealizedChore@23@@Z 0000000140145ab4 f i libconcrt:CacheLocalScheduleGroup.obj
 0001:00144b44       ?MailChore@CacheLocalScheduleGroup@details@Concurrency@@UEAA?AVSlot@?$Mailbox@V_UnrealizedChore@details@Concurrency@@@23@PEAV_UnrealizedChore@23@PEAVlocation@3@PEAPEAVScheduleGroupSegmentBase@23@@Z 0000000140145b44 f   libconcrt:CacheLocalScheduleGroup.obj
 0001:00144bb8       ?NotifyAffinitizedWork@CacheLocalScheduleGroupSegment@details@Concurrency@@UEAAXXZ 0000000140145bb8 f   libconcrt:CacheLocalScheduleGroup.obj
 0001:00144c1c       ?PostAffinityMessage@SchedulerBase@details@Concurrency@@QEAAXAEBVQuickBitSet@23@@Z 0000000140145c1c f i libconcrt:CacheLocalScheduleGroup.obj
 0001:00144cc4       ?AddToRunnablesCollection@FairScheduleGroupSegment@details@Concurrency@@EEAAXPEAVInternalContextBase@23@@Z 0000000140145cc4 f   libconcrt:FairScheduleGroup.obj
 0001:00144d28       ?FindSegment@FairScheduleGroup@details@Concurrency@@MEAAPEAVScheduleGroupSegmentBase@23@PEAVlocation@3@PEAVSchedulingRing@23@@Z 0000000140145d28 f   libconcrt:FairScheduleGroup.obj
 0001:00144d5c       ?LocateSegment@FairScheduleGroup@details@Concurrency@@UEAAPEAVScheduleGroupSegmentBase@23@PEAVlocation@3@_N@Z 0000000140145d5c f   libconcrt:FairScheduleGroup.obj
 0001:00144dfc       ??0ExternalContextBase@details@Concurrency@@QEAA@PEAVSchedulerBase@12@_N@Z 0000000140145dfc f   libconcrt:ExternalContextBase.obj
 0001:00144eb8       ??1ExternalContextBase@details@Concurrency@@UEAA@XZ 0000000140145eb8 f   libconcrt:ExternalContextBase.obj
 0001:00144ee8       ??_GExternalContextBase@details@Concurrency@@UEAAPEAXI@Z 0000000140145ee8 f i libconcrt:ExternalContextBase.obj
 0001:00144ee8       ??_EExternalContextBase@details@Concurrency@@UEAAPEAXI@Z 0000000140145ee8 f i libconcrt:ExternalContextBase.obj
 0001:00144f1c       ?Alloc@ExternalContextBase@details@Concurrency@@UEAAPEAX_K@Z 0000000140145f1c f   libconcrt:ExternalContextBase.obj
 0001:00144f70       ?Block@ExternalContextBase@details@Concurrency@@UEAAXXZ 0000000140145f70 f   libconcrt:ExternalContextBase.obj
 0001:00145004       ?Cleanup@ExternalContextBase@details@Concurrency@@AEAAXXZ 0000000140146004 f   libconcrt:ExternalContextBase.obj
 0001:0014506c       ?Free@ExternalContextBase@details@Concurrency@@UEAAXPEAX@Z 000000014014606c f   libconcrt:ExternalContextBase.obj
 0001:001450c0       ?GetVirtualProcessorId@ExternalContextBase@details@Concurrency@@UEBAIXZ 00000001401460c0 f i libconcrt:ExternalContextBase.obj
 0001:001450c4       ?ImplicitDetachHandler@ExternalContextBase@details@Concurrency@@CAXPEAU_TP_CALLBACK_INSTANCE@@PEAXPEAU_TP_WAIT@@K@Z 00000001401460c4 f   libconcrt:ExternalContextBase.obj
 0001:001450f8       ?ImplicitDetachHandlerXP@ExternalContextBase@details@Concurrency@@CAXPEAXE@Z 00000001401460f8 f   libconcrt:ExternalContextBase.obj
 0001:00145124       ?IsSynchronouslyBlocked@ExternalContextBase@details@Concurrency@@UEBA_NXZ 0000000140146124 f i libconcrt:ExternalContextBase.obj
 0001:00145130       ?Oversubscribe@ExternalContextBase@details@Concurrency@@UEAAX_N@Z 0000000140146130 f   libconcrt:ExternalContextBase.obj
 0001:0014516c       ?PrepareForUse@ExternalContextBase@details@Concurrency@@QEAAX_N@Z 000000014014616c f   libconcrt:ExternalContextBase.obj
 0001:0014529c       ?RemoveFromUse@ExternalContextBase@details@Concurrency@@QEAAXXZ 000000014014629c f   libconcrt:ExternalContextBase.obj
 0001:001452cc       ?SpinYield@ExternalContextBase@details@Concurrency@@UEAAXXZ 00000001401462cc f i libconcrt:ExternalContextBase.obj
 0001:001452fc       ?Unblock@ExternalContextBase@details@Concurrency@@UEAAXXZ 00000001401462fc f   libconcrt:ExternalContextBase.obj
 0001:001453d4       ?Yield@ExternalContextBase@details@Concurrency@@UEAAXXZ 00000001401463d4 f   libconcrt:ExternalContextBase.obj
 0001:0014543c       ??0ThreadScheduler@details@Concurrency@@QEAA@AEBVSchedulerPolicy@2@@Z 000000014014643c f   libconcrt:ThreadScheduler.obj
 0001:00145480       ??_EThreadInternalContext@details@Concurrency@@WBA@EAAPEAXI@Z 0000000140146480 f i libconcrt:ThreadScheduler.obj
 0001:0014548c       ??_EThreadScheduler@details@Concurrency@@WBA@EAAPEAXI@Z 000000014014648c f i libconcrt:ThreadScheduler.obj
 0001:00145498       ??_GThreadInternalContext@details@Concurrency@@UEAAPEAXI@Z 0000000140146498 f i libconcrt:ThreadScheduler.obj
 0001:00145498       ??_EThreadInternalContext@details@Concurrency@@UEAAPEAXI@Z 0000000140146498 f i libconcrt:ThreadScheduler.obj
 0001:001454e4       ??_EThreadScheduler@details@Concurrency@@UEAAPEAXI@Z 00000001401464e4 f i libconcrt:ThreadScheduler.obj
 0001:001454e4       ??_GThreadScheduler@details@Concurrency@@UEAAPEAXI@Z 00000001401464e4 f i libconcrt:ThreadScheduler.obj
 0001:00145530       ?AddVirtualProcessors@ThreadScheduler@details@Concurrency@@UEAAXPEAPEAUIVirtualProcessorRoot@3@I@Z 0000000140146530 f i libconcrt:ThreadScheduler.obj
 0001:0014553c       ?Create@ThreadScheduler@details@Concurrency@@SAPEAV123@AEBVSchedulerPolicy@3@@Z 000000014014653c f   libconcrt:ThreadScheduler.obj
 0001:00145578       ?CreateInternalContext@ThreadScheduler@details@Concurrency@@MEAAPEAVInternalContextBase@23@XZ 0000000140146578 f   libconcrt:ThreadScheduler.obj
 0001:001455e4       ?CreateVirtualProcessor@ThreadScheduler@details@Concurrency@@UEAAPEAVVirtualProcessor@23@PEAVSchedulingNode@23@PEAUIVirtualProcessorRoot@3@@Z 00000001401465e4 f   libconcrt:ThreadScheduler.obj
 0001:00145630       _get_startup_argv_mode     0000000140146630 f i MSVCRT:argv_mode.obj
 0001:00145630       ?GetContextKind@ThreadInternalContext@details@Concurrency@@UEBA?AW4ContextKind@ContextBase@23@XZ 0000000140146630 f i libconcrt:ThreadScheduler.obj
 0001:00145638       ?GetIScheduler@ThreadScheduler@details@Concurrency@@UEAAPEAUIScheduler@3@XZ 0000000140146638 f i libconcrt:ThreadScheduler.obj
 0001:00145640       ?GetId@ThreadScheduler@details@Concurrency@@UEBAIXZ 0000000140146640 f i libconcrt:ThreadScheduler.obj
 0001:00145670       ?GetPolicy@ThreadScheduler@details@Concurrency@@UEBA?AVSchedulerPolicy@3@XZ 0000000140146670 f i libconcrt:ThreadScheduler.obj
 0001:00145690       ?GetPolicy@ThreadScheduler@details@Concurrency@@WBA@EBA?AVSchedulerPolicy@3@XZ 0000000140146690 f i libconcrt:ThreadScheduler.obj
 0001:0014569c       ?RemoveVirtualProcessors@ThreadScheduler@details@Concurrency@@UEAAXPEAPEAUIVirtualProcessorRoot@3@I@Z 000000014014669c f i libconcrt:ThreadScheduler.obj
 0001:001456a8       ?Statistics@ThreadScheduler@details@Concurrency@@UEAAXPEAI00@Z 00000001401466a8 f i libconcrt:ThreadScheduler.obj
 0001:001456b4       ?OneShotStaticConstruction@UMSThreadScheduler@details@Concurrency@@SAXXZ 00000001401466b4 f   libconcrt:UMSThreadScheduler.obj
 0001:00145700       ?OneShotStaticDestruction@UMSThreadScheduler@details@Concurrency@@SAXXZ 0000000140146700 f   libconcrt:UMSThreadScheduler.obj
 0001:0014571c       ??0exception_ptr@std@@QEAA@AEBV01@@Z 000000014014671c f i libconcrt:TaskCollectionBase.obj
 0001:00145734       ?_Current_exception@exception_ptr@std@@SA?AV12@XZ 0000000140146734 f i libconcrt:TaskCollectionBase.obj
 0001:00145754       ?_FinishCancelState@_TaskCollectionBase@details@Concurrency@@IEAAX_K@Z 0000000140146754 f   libconcrt:TaskCollectionBase.obj
 0001:0014578c       ?_GetTokenState@_TaskCollectionBase@details@Concurrency@@QEAAPEAV_CancellationTokenState@23@PEAPEAV_CancellationTokenRegistration@23@@Z 000000014014678c f   libconcrt:TaskCollectionBase.obj
 0001:001457b8       ?_MarkCancellation@_TaskCollectionBase@details@Concurrency@@IEAA_NXZ 00000001401467b8 f   libconcrt:TaskCollectionBase.obj
 0001:001457d8       ?_RaisedException@_TaskCollectionBase@details@Concurrency@@IEAAXXZ 00000001401467d8 f   libconcrt:TaskCollectionBase.obj
 0001:00145858       ?_RethrowException@_TaskCollectionBase@details@Concurrency@@IEAAXXZ 0000000140146858 f   libconcrt:TaskCollectionBase.obj
 0001:001458e0       ?_RethrowException@exception_ptr@std@@QEBAXXZ 00000001401468e0 f i libconcrt:TaskCollectionBase.obj
 0001:001458ec       ?current_exception@std@@YA?AVexception_ptr@1@XZ 00000001401468ec f i libconcrt:TaskCollectionBase.obj
 0001:00145904       ?rethrow_exception@std@@YAXVexception_ptr@1@@Z 0000000140146904 f i libconcrt:TaskCollectionBase.obj
 0001:0014591c       ??0?$StructuredWorkStealingQueue@VInternalContextBase@details@Concurrency@@V_HyperNonReentrantLock@23@@details@Concurrency@@QEAA@PEAV_HyperNonReentrantLock@12@@Z 000000014014691c f i libconcrt:VirtualProcessor.obj
 0001:0014591c       ??0?$StructuredWorkStealingQueue@V_UnrealizedChore@details@Concurrency@@V_CriticalNonReentrantLock@23@@details@Concurrency@@QEAA@PEAV_CriticalNonReentrantLock@12@@Z 000000014014691c f i libconcrt:WorkQueue.obj
 0001:00145998       ??0?$WorkStealingQueue@V_UnrealizedChore@details@Concurrency@@V_CriticalNonReentrantLock@23@@details@Concurrency@@QEAA@PEAV_CriticalNonReentrantLock@12@@Z 0000000140146998 f i libconcrt:WorkQueue.obj
 0001:00145a10       ??0WorkQueue@details@Concurrency@@QEAA@XZ 0000000140146a10 f   libconcrt:WorkQueue.obj
 0001:00145a88       ?DeferToAffineSearchers@Slot@?$Mailbox@V_UnrealizedChore@details@Concurrency@@@details@Concurrency@@QEBA_NXZ 0000000140146a88 f i libconcrt:WorkQueue.obj
 0001:00145a88       ?DeferToAffineSearchers@Slot@?$Mailbox@VInternalContextBase@details@Concurrency@@@details@Concurrency@@QEBA_NXZ 0000000140146a88 f i libconcrt:SchedulingNode.obj
 0001:00145b28       ?RedetachFromScheduleGroupAtSafePoint@WorkQueue@details@Concurrency@@QEAAXPEAVScheduleGroupSegmentBase@23@@Z 0000000140146b28 f   libconcrt:WorkQueue.obj
 0001:00145b50       ?Reinitialize@WorkQueue@details@Concurrency@@AEAAXXZ 0000000140146b50 f   libconcrt:WorkQueue.obj
 0001:00145bbc       ?RetireAtSafePoint@WorkQueue@details@Concurrency@@QEAAXPEAVScheduleGroupSegmentBase@23@@Z 0000000140146bbc f   libconcrt:WorkQueue.obj
 0001:00145be4       ?StaticRedetachFromScheduleGroup@WorkQueue@details@Concurrency@@CAXPEAV123@@Z 0000000140146be4 f   libconcrt:WorkQueue.obj
 0001:00145bf4       ?StaticRetire@WorkQueue@details@Concurrency@@CAXPEAV123@@Z 0000000140146bf4 f   libconcrt:WorkQueue.obj
 0001:00145c04       ?Steal@WorkQueue@details@Concurrency@@QEAAPEAV_UnrealizedChore@23@_N@Z 0000000140146c04 f   libconcrt:WorkQueue.obj
 0001:00145c60       ?Sweep@?$WorkStealingQueue@V_UnrealizedChore@details@Concurrency@@V_CriticalNonReentrantLock@23@@details@Concurrency@@QEAAXP6A_NPEAV_UnrealizedChore@23@PEAX@Z12@Z 0000000140146c60 f i libconcrt:WorkQueue.obj
 0001:00145d38       ?SweepUnstructured@WorkQueue@details@Concurrency@@QEAAXP6A_NPEAV_UnrealizedChore@23@PEAX@Z12@Z 0000000140146d38 f   libconcrt:WorkQueue.obj
 0001:00145d44       ?TryToSteal@WorkQueue@details@Concurrency@@QEAAPEAV_UnrealizedChore@23@_NAEA_N@Z 0000000140146d44 f   libconcrt:WorkQueue.obj
 0001:00145db0       ?UnlockedSteal@?$StructuredWorkStealingQueue@V_UnrealizedChore@details@Concurrency@@V_CriticalNonReentrantLock@23@@details@Concurrency@@QEAAPEAV_UnrealizedChore@23@_N@Z 0000000140146db0 f i libconcrt:WorkQueue.obj
 0001:00145ebc       ?UnlockedSteal@?$WorkStealingQueue@V_UnrealizedChore@details@Concurrency@@V_CriticalNonReentrantLock@23@@details@Concurrency@@QEAAPEAV_UnrealizedChore@23@_N0@Z 0000000140146ebc f i libconcrt:WorkQueue.obj
 0001:00145fe0       ?UnlockedSteal@WorkQueue@details@Concurrency@@AEAAPEAV_UnrealizedChore@23@_N@Z 0000000140146fe0 f   libconcrt:WorkQueue.obj
 0001:00146108       ?_CancelViaToken@_UnrealizedChore@details@Concurrency@@CAXPEAVContextBase@23@@Z 0000000140147108 f   libconcrt:Chores.obj
 0001:00146138       ?_InternalFree@_UnrealizedChore@details@Concurrency@@CAXPEAV123@@Z 0000000140147138 f   libconcrt:Chores.obj
 0001:0014616c       ?_PrepareSteal@_UnrealizedChore@details@Concurrency@@QEAAXPEAVContextBase@23@@Z 000000014014716c f   libconcrt:Chores.obj
 0001:00146184       ?_PrepareStealStructured@_UnrealizedChore@details@Concurrency@@AEAAXPEAVContextBase@23@@Z 0000000140147184 f   libconcrt:Chores.obj
 0001:001461c8       ?_PrepareStealUnstructured@_UnrealizedChore@details@Concurrency@@AEAAXPEAVContextBase@23@@Z 00000001401471c8 f   libconcrt:Chores.obj
 0001:0014625c       ?_SetDetached@_UnrealizedChore@details@Concurrency@@QEAAX_N@Z 000000014014725c f   libconcrt:Chores.obj
 0001:00146260       ?_StructuredChoreWrapper@_UnrealizedChore@details@Concurrency@@CAXPEAV123@@Z 0000000140147260 f   libconcrt:Chores.obj
 0001:00146404       ??0VirtualProcessorRoot@details@Concurrency@@QEAA@PEAVSchedulerProxy@12@PEAUSchedulerNode@12@I@Z 0000000140147404 f   libconcrt:VirtualProcessorRoot.obj
 0001:0014645c       ??_GVirtualProcessorRoot@details@Concurrency@@UEAAPEAXI@Z 000000014014745c f i libconcrt:VirtualProcessorRoot.obj
 0001:0014645c       ??_EVirtualProcessorRoot@details@Concurrency@@UEAAPEAXI@Z 000000014014745c f i libconcrt:VirtualProcessorRoot.obj
 0001:00146494       ?CurrentSubscriptionLevel@VirtualProcessorRoot@details@Concurrency@@UEBAIXZ 0000000140147494 f i libconcrt:VirtualProcessorRoot.obj
 0001:001464a0       ?GetExecutionResourceId@VirtualProcessorRoot@details@Concurrency@@UEBAIXZ 00000001401474a0 f i libconcrt:VirtualProcessorRoot.obj
 0001:001464a4       ?GetId@VirtualProcessorRoot@details@Concurrency@@UEBAIXZ 00000001401474a4 f i libconcrt:VirtualProcessorRoot.obj
 0001:001464a8       ?GetNodeId@VirtualProcessorRoot@details@Concurrency@@UEBAIXZ 00000001401474a8 f i libconcrt:VirtualProcessorRoot.obj
 0001:001464ac       ?Remove@VirtualProcessorRoot@details@Concurrency@@UEAAXPEAUIScheduler@3@@Z 00000001401474ac f   libconcrt:VirtualProcessorRoot.obj
 0001:0014651c       ?ResetSubscriptionLevel@VirtualProcessorRoot@details@Concurrency@@QEAAXXZ 000000014014751c f   libconcrt:VirtualProcessorRoot.obj
 0001:00146540       ?Subscribe@VirtualProcessorRoot@details@Concurrency@@QEAAXXZ 0000000140147540 f   libconcrt:VirtualProcessorRoot.obj
 0001:00146550       ?Unsubscribe@VirtualProcessorRoot@details@Concurrency@@QEAAXXZ 0000000140147550 f   libconcrt:VirtualProcessorRoot.obj
 0001:00146560       ??0FreeVirtualProcessorRoot@details@Concurrency@@QEAA@PEAVSchedulerProxy@12@PEAUSchedulerNode@12@I@Z 0000000140147560 f   libconcrt:FreeVirtualProcessorRoot.obj
 0001:00146598       ??_GFreeVirtualProcessorRoot@details@Concurrency@@UEAAPEAXI@Z 0000000140147598 f i libconcrt:FreeVirtualProcessorRoot.obj
 0001:00146598       ??_EFreeVirtualProcessorRoot@details@Concurrency@@UEAAPEAXI@Z 0000000140147598 f i libconcrt:FreeVirtualProcessorRoot.obj
 0001:001465d0       ?Activate@FreeVirtualProcessorRoot@details@Concurrency@@UEAAXPEAUIExecutionContext@3@@Z 00000001401475d0 f   libconcrt:FreeVirtualProcessorRoot.obj
 0001:00146710       ?Affinitize@FreeVirtualProcessorRoot@details@Concurrency@@QEAAXPEAVFreeThreadProxy@23@@Z 0000000140147710 f   libconcrt:FreeVirtualProcessorRoot.obj
 0001:001467c4       ?Deactivate@FreeVirtualProcessorRoot@details@Concurrency@@UEAA_NPEAUIExecutionContext@3@@Z 00000001401477c4 f   libconcrt:FreeVirtualProcessorRoot.obj
 0001:001468f0       ?DeleteThis@FreeVirtualProcessorRoot@details@Concurrency@@UEAAXXZ 00000001401478f0 f   libconcrt:FreeVirtualProcessorRoot.obj
 0001:00146998       ?EnsureAllTasksVisible@FreeVirtualProcessorRoot@details@Concurrency@@UEAAXPEAUIExecutionContext@3@@Z 0000000140147998 f   libconcrt:FreeVirtualProcessorRoot.obj
 0001:00146a58       ?ResetOnIdle@FreeVirtualProcessorRoot@details@Concurrency@@QEAAXW4SwitchingProxyState@3@@Z 0000000140147a58 f   libconcrt:FreeVirtualProcessorRoot.obj
 0001:00146b28       ?AssociateExecutionContext@FreeThreadProxy@details@Concurrency@@QEAAXPEAUIExecutionContext@3@@Z 0000000140147b28 f   libconcrt:FreeThreadProxy.obj
 0001:00146b6c       ?Dispatch@FreeThreadProxy@details@Concurrency@@EEAAXXZ 0000000140147b6c f   libconcrt:FreeThreadProxy.obj
 0001:00146c4c       ?ReturnIdleProxy@FreeThreadProxy@details@Concurrency@@QEAAXXZ 0000000140147c4c f   libconcrt:FreeThreadProxy.obj
 0001:00146c94       ?SwitchOut@FreeThreadProxy@details@Concurrency@@UEAAXW4SwitchingProxyState@3@@Z 0000000140147c94 f   libconcrt:FreeThreadProxy.obj
 0001:00146cf4       ?SwitchTo@FreeThreadProxy@details@Concurrency@@UEAAXPEAUIExecutionContext@3@W4SwitchingProxyState@3@@Z 0000000140147cf4 f   libconcrt:FreeThreadProxy.obj
 0001:00146de4       ??0ThreadProxy@details@Concurrency@@QEAA@PEAUIThreadProxyFactory@12@I@Z 0000000140147de4 f   libconcrt:ThreadProxy.obj
 0001:00146eec       ??0scheduler_worker_creation_error@Concurrency@@QEAA@AEBV01@@Z 0000000140147eec f i libconcrt:ThreadProxy.obj
 0001:00146f44       ??1ThreadProxy@details@Concurrency@@UEAA@XZ 0000000140147f44 f   libconcrt:ThreadProxy.obj
 0001:00146fa0       ??_EThreadProxy@details@Concurrency@@UEAAPEAXI@Z 0000000140147fa0 f i libconcrt:ThreadProxy.obj
 0001:00146fa0       ??_GThreadProxy@details@Concurrency@@UEAAPEAXI@Z 0000000140147fa0 f i libconcrt:ThreadProxy.obj
 0001:00146fd4       ?Cancel@ThreadProxy@details@Concurrency@@QEAAXXZ 0000000140147fd4 f   libconcrt:ThreadProxy.obj
 0001:00146fe8       ?GetId@ThreadProxy@details@Concurrency@@UEBAIXZ 0000000140147fe8 f   libconcrt:ThreadProxy.obj
 0001:00146fec       ?ResumeExecution@ThreadProxy@details@Concurrency@@QEAAXXZ 0000000140147fec f   libconcrt:ThreadProxy.obj
 0001:00146ff8       ?SetPriority@ThreadProxy@details@Concurrency@@QEAAXH@Z 0000000140147ff8 f   libconcrt:ThreadProxy.obj
 0001:00147004       ?SpinUntilBlocked@ThreadProxy@details@Concurrency@@QEAAXXZ 0000000140148004 f   libconcrt:ThreadProxy.obj
 0001:0014703c       ?SuspendExecution@ThreadProxy@details@Concurrency@@QEAAXXZ 000000014014803c f   libconcrt:ThreadProxy.obj
 0001:00147068       ?ThreadProxyMain@ThreadProxy@details@Concurrency@@CAKPEAX@Z 0000000140148068 f   libconcrt:ThreadProxy.obj
 0001:001470cc       ??0location@Concurrency@@QEAA@W4_Type@01@IIPEAX@Z 00000001401480cc f   libconcrt:location.obj
 0001:001470f0       ?Exists@?$Hash@II@details@Concurrency@@QEAA_NAEBI@Z 00000001401480f0 f i libconcrt:location.obj
 0001:00147164       ?_FastNodeIntersects@location@Concurrency@@QEBA_NAEBV12@@Z 0000000140148164 f   libconcrt:location.obj
 0001:001471c0       ?_FastVPIntersects@location@Concurrency@@QEBA_NAEBV12@@Z 00000001401481c0 f   libconcrt:location.obj
 0001:00147208       ??0WorkItem@details@Concurrency@@QEAA@PEAVInternalContextBase@12@@Z 0000000140148208 f   libconcrt:SearchAlgorithms.obj
 0001:00147240       ?Bind@WorkItem@details@Concurrency@@QEAAPEAVInternalContextBase@23@XZ 0000000140148240 f   libconcrt:SearchAlgorithms.obj
 0001:0014729c       ?BindTo@WorkItem@details@Concurrency@@QEAAXPEAVInternalContextBase@23@@Z 000000014014829c f   libconcrt:SearchAlgorithms.obj
 0001:001472e4       ?GetLocalRunnable@WorkSearchContext@details@Concurrency@@AEAA_NPEAVWorkItem@23@PEAVVirtualProcessor@23@_N@Z 00000001401482e4 f   libconcrt:SearchAlgorithms.obj
 0001:001473a0       ?GetPseudoRRAffineScheduleGroupSegment@SchedulingRing@details@Concurrency@@QEAAPEAVScheduleGroupSegmentBase@23@PEAH@Z 00000001401483a0 f i libconcrt:SearchAlgorithms.obj
 0001:0014740c       ?GetPseudoRRNonAffineScheduleGroupSegment@SchedulingRing@details@Concurrency@@QEAAPEAVScheduleGroupSegmentBase@23@PEAH@Z 000000014014840c f i libconcrt:SearchAlgorithms.obj
 0001:0014747c       ?GetRealizedChore@WorkSearchContext@details@Concurrency@@AEAA_NPEAVWorkItem@23@PEAVScheduleGroupSegmentBase@23@_N@Z 000000014014847c f   libconcrt:SearchAlgorithms.obj
 0001:001474e8       ?GetRealizedChoreWithinGroup@WorkSearchContext@details@Concurrency@@AEAA_NPEAVWorkItem@23@PEAVScheduleGroupSegmentBase@23@_NW4SearchAffinity@123@2@Z 00000001401484e8 f   libconcrt:SearchAlgorithms.obj
 0001:001475b8       ?GetRunnableContext@WorkSearchContext@details@Concurrency@@AEAA_NPEAVWorkItem@23@PEAVScheduleGroupSegmentBase@23@@Z 00000001401485b8 f   libconcrt:SearchAlgorithms.obj
 0001:00147618       ?GetRunnableContextWithinGroup@WorkSearchContext@details@Concurrency@@AEAA_NPEAVWorkItem@23@PEAVScheduleGroupSegmentBase@23@W4SearchAffinity@123@_N@Z 0000000140148618 f   libconcrt:SearchAlgorithms.obj
 0001:001476d4       ?GetUnrealizedChore@WorkSearchContext@details@Concurrency@@AEAA_NPEAVWorkItem@23@PEAVScheduleGroupSegmentBase@23@_N2@Z 00000001401486d4 f   libconcrt:SearchAlgorithms.obj
 0001:0014774c       ?GetUnrealizedChoreWithinGroup@WorkSearchContext@details@Concurrency@@AEAA_NPEAVWorkItem@23@PEAVScheduleGroupSegmentBase@23@_NW4SearchAffinity@123@2@Z 000000014014874c f   libconcrt:SearchAlgorithms.obj
 0001:00147824       ?Invoke@WorkItem@details@Concurrency@@QEAAXXZ 0000000140148824 f   libconcrt:SearchAlgorithms.obj
 0001:00147880       ?PreSearch@WorkSearchContext@details@Concurrency@@AEAA_NPEAVWorkItem@23@@Z 0000000140148880 f   libconcrt:SearchAlgorithms.obj
 0001:001478e0       ?QuickSearch@WorkSearchContext@details@Concurrency@@AEAA_NPEAVScheduleGroupSegmentBase@23@PEAVWorkItem@23@_NK@Z 00000001401488e0 f   libconcrt:SearchAlgorithms.obj
 0001:00147984       ?QuickSearchYield@WorkSearchContext@details@Concurrency@@AEAA_NPEAVScheduleGroupSegmentBase@23@PEAVWorkItem@23@_NK@Z 0000000140148984 f   libconcrt:SearchAlgorithms.obj
 0001:00147a14       ?Reset@WorkSearchContext@details@Concurrency@@QEAAXPEAVVirtualProcessor@23@W4Algorithm@123@@Z 0000000140148a14 f   libconcrt:SearchAlgorithms.obj
 0001:00147a88       ?ResolveToken@WorkItem@details@Concurrency@@QEAA_NXZ 0000000140148a88 f   libconcrt:SearchAlgorithms.obj
 0001:00147b24       ?SearchCacheLocal@WorkSearchContext@details@Concurrency@@AEAA_NPEAVWorkItem@23@PEAVScheduleGroupSegmentBase@23@_NK@Z 0000000140148b24 f   libconcrt:SearchAlgorithms.obj
 0001:00147f44       ?SearchCacheLocalYield@WorkSearchContext@details@Concurrency@@AEAA_NPEAVWorkItem@23@PEAVScheduleGroupSegmentBase@23@_NK@Z 0000000140148f44 f   libconcrt:SearchAlgorithms.obj
 0001:0014828c       ?SearchCacheLocal_Realized@WorkSearchContext@details@Concurrency@@AEAA_NPEAVWorkItem@23@PEAVSchedulingRing@23@PEAVScheduleGroupSegmentBase@23@_NW4SearchAffinity@123@K3@Z 000000014014928c f   libconcrt:SearchAlgorithms.obj
 0001:00148450       ?SearchCacheLocal_Runnables@WorkSearchContext@details@Concurrency@@AEAA_NPEAVWorkItem@23@PEAVSchedulingRing@23@PEAVScheduleGroupSegmentBase@23@_NW4SearchAffinity@123@K3@Z 0000000140149450 f   libconcrt:SearchAlgorithms.obj
 0001:0014862c       ?SearchCacheLocal_Unrealized@WorkSearchContext@details@Concurrency@@AEAA_NPEAVWorkItem@23@PEAVSchedulingRing@23@PEAVScheduleGroupSegmentBase@23@_NW4SearchAffinity@123@K3@Z 000000014014962c f   libconcrt:SearchAlgorithms.obj
 0001:001487f4       ?SearchFair@WorkSearchContext@details@Concurrency@@AEAA_NPEAVWorkItem@23@PEAVScheduleGroupSegmentBase@23@_NK@Z 00000001401497f4 f   libconcrt:SearchAlgorithms.obj
 0001:0014894c       ?SearchFairYield@WorkSearchContext@details@Concurrency@@AEAA_NPEAVWorkItem@23@PEAVScheduleGroupSegmentBase@23@_NK@Z 000000014014994c f   libconcrt:SearchAlgorithms.obj
 0001:00148aac       ?SearchFair_Realized@WorkSearchContext@details@Concurrency@@AEAA_NPEAVWorkItem@23@PEAVSchedulingRing@23@_N@Z 0000000140149aac f   libconcrt:SearchAlgorithms.obj
 0001:00148b7c       ?SearchFair_Runnables@WorkSearchContext@details@Concurrency@@AEAA_NPEAVWorkItem@23@PEAVSchedulingRing@23@@Z 0000000140149b7c f   libconcrt:SearchAlgorithms.obj
 0001:00148c30       ?SearchFair_Unrealized@WorkSearchContext@details@Concurrency@@AEAA_NPEAVWorkItem@23@PEAVSchedulingRing@23@_N@Z 0000000140149c30 f   libconcrt:SearchAlgorithms.obj
 0001:00148d04       ?SkipSegmentSearch@WorkSearchContext@details@Concurrency@@AEAA_NPEAVScheduleGroupSegmentBase@23@0W4SearchAffinity@123@_N@Z 0000000140149d04 f   libconcrt:SearchAlgorithms.obj
 0001:00148ddc       ?StealForeignLocalRunnable@WorkSearchContext@details@Concurrency@@AEAA_NPEAVWorkItem@23@PEAVSchedulingNode@23@@Z 0000000140149ddc f   libconcrt:SearchAlgorithms.obj
 0001:00148eb4       ?StealLocalRunnable@WorkSearchContext@details@Concurrency@@AEAA_NPEAVWorkItem@23@PEAVSchedulingNode@23@PEAVVirtualProcessor@23@@Z 0000000140149eb4 f   libconcrt:SearchAlgorithms.obj
 0001:00148f78       ?StealLocalRunnableContext@VirtualProcessor@details@Concurrency@@AEAAPEAVInternalContextBase@23@XZ 0000000140149f78 f i libconcrt:SearchAlgorithms.obj
 0001:00148fdc       ?TransferReferences@WorkItem@details@Concurrency@@QEAAXPEAVInternalContextBase@23@@Z 0000000140149fdc f   libconcrt:SearchAlgorithms.obj
 0001:0014907c       ?Invoke@RealizedChore@details@Concurrency@@QEAAXXZ 000000014014a07c f   libconcrt:RealizedChore.obj
 0001:001490ac       ??0ThreadVirtualProcessor@details@Concurrency@@QEAA@PEAVSchedulingNode@12@PEAUIVirtualProcessorRoot@2@@Z 000000014014a0ac f   libconcrt:ThreadVirtualProcessor.obj
 0001:00149104       ??_EThreadVirtualProcessor@details@Concurrency@@UEAAPEAXI@Z 000000014014a104 f i libconcrt:ThreadVirtualProcessor.obj
 0001:00149104       ??_GThreadVirtualProcessor@details@Concurrency@@UEAAPEAXI@Z 000000014014a104 f i libconcrt:ThreadVirtualProcessor.obj
 0001:00149142       _purecall                  000000014014a142 f   vcruntime:VCRUNTIME140.dll
 0001:00149148       memchr                     000000014014a148 f   vcruntime:VCRUNTIME140.dll
 0001:0014914e       memmove                    000000014014a14e f   vcruntime:VCRUNTIME140.dll
 0001:00149154       __std_exception_copy       000000014014a154 f   vcruntime:VCRUNTIME140.dll
 0001:0014915a       __std_exception_destroy    000000014014a15a f   vcruntime:VCRUNTIME140.dll
 0001:00149160       _CxxThrowException         000000014014a160 f   vcruntime:VCRUNTIME140.dll
 0001:00149166       __CxxFrameHandler3         000000014014a166 f   vcruntime:VCRUNTIME140.dll
 0001:0014916c       memcmp                     000000014014a16c f   vcruntime:VCRUNTIME140.dll
 0001:00149172       strstr                     000000014014a172 f   vcruntime:VCRUNTIME140.dll
 0001:00149178       memset                     000000014014a178 f   vcruntime:VCRUNTIME140.dll
 0001:0014917e       memcpy                     000000014014a17e f   vcruntime:VCRUNTIME140.dll
 0001:00149184       strrchr                    000000014014a184 f   vcruntime:VCRUNTIME140.dll
 0001:0014918a       longjmp                    000000014014a18a f   vcruntime:VCRUNTIME140.dll
 0001:00149190       __uncaught_exception       000000014014a190 f   vcruntime:VCRUNTIME140.dll
 0001:00149196       __std_terminate            000000014014a196 f   vcruntime:VCRUNTIME140.dll
 0001:0014919c       __C_specific_handler       000000014014a19c f   vcruntime:VCRUNTIME140.dll
 0001:001491a2       __vcrt_InitializeCriticalSectionEx 000000014014a1a2 f   vcruntime:VCRUNTIME140.dll
 0001:001491a8       __intrinsic_setjmp         000000014014a1a8 f   vcruntime:VCRUNTIME140.dll
 0001:001491a8       _setjmp                    000000014014a1a8 f   vcruntime:VCRUNTIME140.dll
 0001:001491ae       __vcrt_GetModuleFileNameW  000000014014a1ae f   vcruntime:VCRUNTIME140.dll
 0001:001491b4       __vcrt_LoadLibraryExW      000000014014a1b4 f   vcruntime:VCRUNTIME140.dll
 0001:001491ba       __RTDynamicCast            000000014014a1ba f   vcruntime:VCRUNTIME140.dll
 0001:001491c0       _invalid_parameter_noinfo  000000014014a1c0 f   ucrt:api-ms-win-crt-runtime-l1-1-0.dll
 0001:001491c6       _invalid_parameter_noinfo_noreturn 000000014014a1c6 f   ucrt:api-ms-win-crt-runtime-l1-1-0.dll
 0001:001491cc       _errno                     000000014014a1cc f   ucrt:api-ms-win-crt-runtime-l1-1-0.dll
 0001:001491d2       strncmp                    000000014014a1d2 f   ucrt:api-ms-win-crt-string-l1-1-0.dll
 0001:001491d8       _wassert                   000000014014a1d8 f   ucrt:api-ms-win-crt-runtime-l1-1-0.dll
 0001:001491de       free                       000000014014a1de f   ucrt:api-ms-win-crt-heap-l1-1-0.dll
 0001:001491e4       malloc                     000000014014a1e4 f   ucrt:api-ms-win-crt-heap-l1-1-0.dll
 0001:001491ea       realloc                    000000014014a1ea f   ucrt:api-ms-win-crt-heap-l1-1-0.dll
 0001:001491f0       exit                       000000014014a1f0 f   ucrt:api-ms-win-crt-runtime-l1-1-0.dll
 0001:001491f6       srand                      000000014014a1f6 f   ucrt:api-ms-win-crt-utility-l1-1-0.dll
 0001:001491fc       rand                       000000014014a1fc f   ucrt:api-ms-win-crt-utility-l1-1-0.dll
 0001:00149202       strtol                     000000014014a202 f   ucrt:api-ms-win-crt-convert-l1-1-0.dll
 0001:00149208       ldexp                      000000014014a208 f   ucrt:api-ms-win-crt-math-l1-1-0.dll
 0001:0014920e       __acrt_iob_func            000000014014a20e f   ucrt:api-ms-win-crt-stdio-l1-1-0.dll
 0001:00149214       _stat64i32                 000000014014a214 f   ucrt:api-ms-win-crt-filesystem-l1-1-0.dll
 0001:0014921a       _get_stream_buffer_pointers 000000014014a21a f   ucrt:api-ms-win-crt-stdio-l1-1-0.dll
 0001:00149220       fopen_s                    000000014014a220 f   ucrt:api-ms-win-crt-stdio-l1-1-0.dll
 0001:00149226       fclose                     000000014014a226 f   ucrt:api-ms-win-crt-stdio-l1-1-0.dll
 0001:0014922c       feof                       000000014014a22c f   ucrt:api-ms-win-crt-stdio-l1-1-0.dll
 0001:00149232       fflush                     000000014014a232 f   ucrt:api-ms-win-crt-stdio-l1-1-0.dll
 0001:00149238       fgetc                      000000014014a238 f   ucrt:api-ms-win-crt-stdio-l1-1-0.dll
 0001:0014923e       fgetpos                    000000014014a23e f   ucrt:api-ms-win-crt-stdio-l1-1-0.dll
 0001:00149244       fopen                      000000014014a244 f   ucrt:api-ms-win-crt-stdio-l1-1-0.dll
 0001:0014924a       fputc                      000000014014a24a f   ucrt:api-ms-win-crt-stdio-l1-1-0.dll
 0001:00149250       fread                      000000014014a250 f   ucrt:api-ms-win-crt-stdio-l1-1-0.dll
 0001:00149256       fsetpos                    000000014014a256 f   ucrt:api-ms-win-crt-stdio-l1-1-0.dll
 0001:0014925c       fseek                      000000014014a25c f   ucrt:api-ms-win-crt-stdio-l1-1-0.dll
 0001:00149262       _fseeki64                  000000014014a262 f   ucrt:api-ms-win-crt-stdio-l1-1-0.dll
 0001:00149268       ftell                      000000014014a268 f   ucrt:api-ms-win-crt-stdio-l1-1-0.dll
 0001:0014926e       fwrite                     000000014014a26e f   ucrt:api-ms-win-crt-stdio-l1-1-0.dll
 0001:00149274       setvbuf                    000000014014a274 f   ucrt:api-ms-win-crt-stdio-l1-1-0.dll
 0001:0014927a       ungetc                     000000014014a27a f   ucrt:api-ms-win-crt-stdio-l1-1-0.dll
 0001:00149280       _lock_file                 000000014014a280 f   ucrt:api-ms-win-crt-filesystem-l1-1-0.dll
 0001:00149286       _unlock_file               000000014014a286 f   ucrt:api-ms-win-crt-filesystem-l1-1-0.dll
 0001:0014928c       __stdio_common_vfprintf    000000014014a28c f   ucrt:api-ms-win-crt-stdio-l1-1-0.dll
 0001:00149292       terminate                  000000014014a292 f   ucrt:api-ms-win-crt-runtime-l1-1-0.dll
 0001:00149298       _time64                    000000014014a298 f   ucrt:api-ms-win-crt-time-l1-1-0.dll
 0001:0014929e       cosf                       000000014014a29e f   ucrt:api-ms-win-crt-math-l1-1-0.dll
 0001:001492a4       floorf                     000000014014a2a4 f   ucrt:api-ms-win-crt-math-l1-1-0.dll
 0001:001492aa       powf                       000000014014a2aa f   ucrt:api-ms-win-crt-math-l1-1-0.dll
 0001:001492b0       sinf                       000000014014a2b0 f   ucrt:api-ms-win-crt-math-l1-1-0.dll
 0001:001492b6       sqrtf                      000000014014a2b6 f   ucrt:api-ms-win-crt-math-l1-1-0.dll
 0001:001492bc       __stdio_common_vsscanf     000000014014a2bc f   ucrt:api-ms-win-crt-stdio-l1-1-0.dll
 0001:001492c2       strcmp                     000000014014a2c2 f   ucrt:api-ms-win-crt-string-l1-1-0.dll
 0001:001492c8       strlen                     000000014014a2c8 f   ucrt:api-ms-win-crt-string-l1-1-0.dll
 0001:001492ce       __stdio_common_vsprintf    000000014014a2ce f   ucrt:api-ms-win-crt-stdio-l1-1-0.dll
 0001:001492d4       qsort                      000000014014a2d4 f   ucrt:api-ms-win-crt-utility-l1-1-0.dll
 0001:001492da       sqrt                       000000014014a2da f   ucrt:api-ms-win-crt-math-l1-1-0.dll
 0001:001492e0       getenv                     000000014014a2e0 f   ucrt:api-ms-win-crt-environment-l1-1-0.dll
 0001:001492e6       strcat                     000000014014a2e6 f   ucrt:api-ms-win-crt-string-l1-1-0.dll
 0001:001492ec       strncpy                    000000014014a2ec f   ucrt:api-ms-win-crt-string-l1-1-0.dll
 0001:001492f2       strcpy                     000000014014a2f2 f   ucrt:api-ms-win-crt-string-l1-1-0.dll
 0001:001492f8       _lock_locales              000000014014a2f8 f   ucrt:api-ms-win-crt-locale-l1-1-0.dll
 0001:001492fe       _unlock_locales            000000014014a2fe f   ucrt:api-ms-win-crt-locale-l1-1-0.dll
 0001:00149304       _calloc_base               000000014014a304 f   ucrt:api-ms-win-crt-heap-l1-1-0.dll
 0001:0014930a       __pctype_func              000000014014a30a f   ucrt:api-ms-win-crt-locale-l1-1-0.dll
 0001:00149310       isupper                    000000014014a310 f   ucrt:api-ms-win-crt-string-l1-1-0.dll
 0001:00149316       _wcsdup                    000000014014a316 f   ucrt:api-ms-win-crt-string-l1-1-0.dll
 0001:0014931c       ___lc_locale_name_func     000000014014a31c f   ucrt:api-ms-win-crt-locale-l1-1-0.dll
 0001:00149322       ___lc_codepage_func        000000014014a322 f   ucrt:api-ms-win-crt-locale-l1-1-0.dll
 0001:00149328       islower                    000000014014a328 f   ucrt:api-ms-win-crt-string-l1-1-0.dll
 0001:0014932e       setlocale                  000000014014a32e f   ucrt:api-ms-win-crt-locale-l1-1-0.dll
 0001:00149334       _fsopen                    000000014014a334 f   ucrt:api-ms-win-crt-stdio-l1-1-0.dll
 0001:0014933a       abort                      000000014014a33a f   ucrt:api-ms-win-crt-runtime-l1-1-0.dll
 0001:00149340       _beginthreadex             000000014014a340 f   ucrt:api-ms-win-crt-runtime-l1-1-0.dll
 0001:00149346       _free_base                 000000014014a346 f   ucrt:api-ms-win-crt-heap-l1-1-0.dll
 0001:0014934c       __strncnt                  000000014014a34c f   ucrt:api-ms-win-crt-string-l1-1-0.dll
 0001:00149352       _malloc_base               000000014014a352 f   ucrt:api-ms-win-crt-heap-l1-1-0.dll
 0001:00149358       _callnewh                  000000014014a358 f   ucrt:api-ms-win-crt-heap-l1-1-0.dll
 0001:0014935e       _configure_narrow_argv     000000014014a35e f   ucrt:api-ms-win-crt-runtime-l1-1-0.dll
 0001:00149364       _initialize_narrow_environment 000000014014a364 f   ucrt:api-ms-win-crt-runtime-l1-1-0.dll
 0001:0014936a       _initialize_onexit_table   000000014014a36a f   ucrt:api-ms-win-crt-runtime-l1-1-0.dll
 0001:00149370       _register_onexit_function  000000014014a370 f   ucrt:api-ms-win-crt-runtime-l1-1-0.dll
 0001:00149376       _crt_atexit                000000014014a376 f   ucrt:api-ms-win-crt-runtime-l1-1-0.dll
 0001:0014937c       _cexit                     000000014014a37c f   ucrt:api-ms-win-crt-runtime-l1-1-0.dll
 0001:00149382       _seh_filter_exe            000000014014a382 f   ucrt:api-ms-win-crt-runtime-l1-1-0.dll
 0001:00149388       _set_app_type              000000014014a388 f   ucrt:api-ms-win-crt-runtime-l1-1-0.dll
 0001:0014938e       __setusermatherr           000000014014a38e f   ucrt:api-ms-win-crt-math-l1-1-0.dll
 0001:00149394       _get_initial_narrow_environment 000000014014a394 f   ucrt:api-ms-win-crt-runtime-l1-1-0.dll
 0001:0014939a       _initterm                  000000014014a39a f   ucrt:api-ms-win-crt-runtime-l1-1-0.dll
 0001:001493a0       _initterm_e                000000014014a3a0 f   ucrt:api-ms-win-crt-runtime-l1-1-0.dll
 0001:001493a6       _exit                      000000014014a3a6 f   ucrt:api-ms-win-crt-runtime-l1-1-0.dll
 0001:001493ac       _set_fmode                 000000014014a3ac f   ucrt:api-ms-win-crt-stdio-l1-1-0.dll
 0001:001493b2       __p___argc                 000000014014a3b2 f   ucrt:api-ms-win-crt-runtime-l1-1-0.dll
 0001:001493b8       __p___argv                 000000014014a3b8 f   ucrt:api-ms-win-crt-runtime-l1-1-0.dll
 0001:001493be       _c_exit                    000000014014a3be f   ucrt:api-ms-win-crt-runtime-l1-1-0.dll
 0001:001493c4       _register_thread_local_exe_atexit_callback 000000014014a3c4 f   ucrt:api-ms-win-crt-runtime-l1-1-0.dll
 0001:001493ca       _configthreadlocale        000000014014a3ca f   ucrt:api-ms-win-crt-locale-l1-1-0.dll
 0001:001493d0       _set_new_mode              000000014014a3d0 f   ucrt:api-ms-win-crt-heap-l1-1-0.dll
 0001:001493d6       __p__commode               000000014014a3d6 f   ucrt:api-ms-win-crt-stdio-l1-1-0.dll
 0001:001493dc       exp                        000000014014a3dc f   ucrt:api-ms-win-crt-math-l1-1-0.dll
 0001:001493e2       IsProcessorFeaturePresent  000000014014a3e2 f   kernel32:KERNEL32.dll
 0001:001493e8       ?GetCurrentThreadId@platform@details@Concurrency@@YAJXZ 000000014014a3e8 f   libcpmt:ppltasks.obj
 0001:001493f0       ??$?0AEAPEAUEHExceptionRecord@@_N@?$_Ref_count_obj_alloc@V__ExceptionPtr@@U?$_StaticAllocator@H@@@std@@QEAA@AEBU?$_StaticAllocator@H@@AEAPEAUEHExceptionRecord@@$$QEA_N@Z 000000014014a3f0 f i libcpmt:excptptr.obj
 0001:00149470       ??$allocate_shared@V__ExceptionPtr@@U?$_StaticAllocator@H@@AEAPEAUEHExceptionRecord@@_N@std@@YA?AV?$shared_ptr@V__ExceptionPtr@@@0@AEBU?$_StaticAllocator@H@@AEAPEAUEHExceptionRecord@@$$QEA_N@Z 000000014014a470 f i libcpmt:excptptr.obj
 0001:001494fc       ??$make_shared@V__ExceptionPtr@@AEAPEAUEHExceptionRecord@@_N@std@@YA?AV?$shared_ptr@V__ExceptionPtr@@@0@AEAPEAUEHExceptionRecord@@$$QEA_N@Z 000000014014a4fc f i libcpmt:excptptr.obj
 0001:00149598       ??0__ExceptionPtr@@QEAA@PEBUEHExceptionRecord@@_N@Z 000000014014a598 f   libcpmt:excptptr.obj
 0001:0014971c       ??0bad_exception@std@@QEAA@AEBV01@@Z 000000014014a71c f i libcpmt:excptptr.obj
 0001:0014975c       ??0bad_exception@std@@QEAA@XZ 000000014014a75c f i libcpmt:excptptr.obj
 0001:0014977c       ??1_Ref_count_base@std@@UEAA@XZ 000000014014a77c f i libcpmt:excptptr.obj
 0001:00149788       ??1__ExceptionPtr@@QEAA@XZ 000000014014a788 f   libcpmt:excptptr.obj
 0001:00149864       ??C?$shared_ptr@V__ExceptionPtr@@@std@@QEBAPEAV__ExceptionPtr@@XZ 000000014014a864 f i libcpmt:excptptr.obj
 0001:00149868       ??_G?$_Ref_count_obj@V__ExceptionPtr@@@std@@UEAAPEAXI@Z 000000014014a868 f i libcpmt:excptptr.obj
 0001:00149868       ??_G?$_Ref_count_obj_alloc@V__ExceptionPtr@@U?$_StaticAllocator@H@@@std@@UEAAPEAXI@Z 000000014014a868 f i libcpmt:excptptr.obj
 0001:00149868       ??_E?$_Ref_count_obj_alloc@V__ExceptionPtr@@U?$_StaticAllocator@H@@@std@@UEAAPEAXI@Z 000000014014a868 f i libcpmt:excptptr.obj
 0001:00149868       ??_E?$_Ref_count_obj@V__ExceptionPtr@@@std@@UEAAPEAXI@Z 000000014014a868 f i libcpmt:excptptr.obj
 0001:00149894       ??_G?$shared_ptr@V__ExceptionPtr@@@std@@QEAAPEAXI@Z 000000014014a894 f i libcpmt:excptptr.obj
 0001:00149924       ??_E_Ref_count_base@std@@UEAAPEAXI@Z 000000014014a924 f i libcpmt:excptptr.obj
 0001:00149924       ??_G_Ref_count_base@std@@UEAAPEAXI@Z 000000014014a924 f i libcpmt:excptptr.obj
 0001:00149950       ?_CallCopyCtor@__ExceptionPtr@@AEBAXPEAX0_KQEBU_s_CatchableType@@@Z 000000014014a950 f   libcpmt:excptptr.obj
 0001:00149a3c       ?_CallMemberFunction0@@YAXPEAXP6AX0@Z@Z 000000014014aa3c f i libcpmt:excptptr.obj
 0001:00149a40       ?_CallMemberFunction1@@YAXPEAXP6AX0@Z0@Z 000000014014aa40 f i libcpmt:excptptr.obj
 0001:00149a4c       ?_CallMemberFunction2@@YAXPEAXP6AX0@Z0H@Z 000000014014aa4c f i libcpmt:excptptr.obj
 0001:00149a5c       ?_CopyException@__ExceptionPtr@@SA?AV?$shared_ptr@V__ExceptionPtr@@@std@@PEBXPEBU_s_ThrowInfo@@_N@Z 000000014014aa5c f   libcpmt:excptptr.obj
 0001:00149b74       ?_CurrentException@__ExceptionPtr@@SA?AV?$shared_ptr@V__ExceptionPtr@@@std@@XZ 000000014014ab74 f   libcpmt:excptptr.obj
 0001:00149c00       ?_Delete_this@?$_Ref_count_obj@V__ExceptionPtr@@@std@@EEAAXXZ 000000014014ac00 f i libcpmt:excptptr.obj
 0001:00149c38       ?_Delete_this@?$_Ref_count_obj_alloc@V__ExceptionPtr@@U?$_StaticAllocator@H@@@std@@EEAAXXZ 000000014014ac38 f i libcpmt:excptptr.obj
 0001:00149c6c       ?_Destroy@?$_Ref_count_obj_alloc@V__ExceptionPtr@@U?$_StaticAllocator@H@@@std@@EEAAXXZ 000000014014ac6c f i libcpmt:excptptr.obj
 0001:00149c6c       ?_Destroy@?$_Ref_count_obj@V__ExceptionPtr@@@std@@EEAAXXZ 000000014014ac6c f i libcpmt:excptptr.obj
 0001:00149c78       ?_InitBadAllocException@__ExceptionPtr@@CA?AV?$shared_ptr@V__ExceptionPtr@@@std@@XZ 000000014014ac78 f   libcpmt:excptptr.obj
 0001:00149ce0       ?_Reset0@?$_Ptr_base@V__ExceptionPtr@@@std@@QEAAXPEAV__ExceptionPtr@@PEAV_Ref_count_base@2@@Z 000000014014ace0 f i libcpmt:excptptr.obj
 0001:00149d70       ?_RethrowException@__ExceptionPtr@@QEBAXXZ 000000014014ad70 f   libcpmt:excptptr.obj
 0001:00149fa4       ?__ExceptionPtrCopy@@YAXPEAXPEBX@Z 000000014014afa4 f   libcpmt:excptptr.obj
 0001:00149fd4       ?__ExceptionPtrCreate@@YAXPEAX@Z 000000014014afd4 f   libcpmt:excptptr.obj
 0001:00149fe4       ?__ExceptionPtrCurrentException@@YAXPEAX@Z 000000014014afe4 f   libcpmt:excptptr.obj
 0001:0014a068       ?__ExceptionPtrDestroy@@YAXPEAX@Z 000000014014b068 f   libcpmt:excptptr.obj
 0001:0014a070       ?__ExceptionPtrRethrow@@YAXPEBX@Z 000000014014b070 f   libcpmt:excptptr.obj
 0001:0014a084       ??_U@YAPEAX_K@Z            000000014014b084 f   MSVCRT:new_array.obj
 0001:0014a08c       ??_L@YAXPEAX_K1P6AX0@Z2@Z  000000014014b08c f   MSVCRT:ehvecctr.obj
 0001:0014a0fa       __current_exception        000000014014b0fa f   vcruntime:VCRUNTIME140.dll
 0001:0014a100       __processing_throw         000000014014b100 f   vcruntime:VCRUNTIME140.dll
 0001:0014a106       __AdjustPointer            000000014014b106 f   vcruntime:VCRUNTIME140.dll
 0001:0014a120       _guard_dispatch_icall_nop  000000014014b120 f   MSVCRT:_guard_dispatch_.obj
 0001:0014be40       ??__F_Static@?1???$_Immortalize@V_Iostream_error_category@std@@@std@@YAAEAV_Iostream_error_category@0@XZ@YAXXZ 000000014014ce40 f i main.obj
 0001:0014bef0       ??__F_Static@?1???$_Immortalize@V_Generic_error_category@std@@@std@@YAAEAV_Generic_error_category@0@XZ@YAXXZ 000000014014cef0 f i libcpmt:thread0.obj
 0002:00000000       __imp_SwapBuffers          000000014014e000     gdi32:GDI32.dll
 0002:00000008       __imp_DeleteDC             000000014014e008     gdi32:GDI32.dll
 0002:00000010       __imp_GetDeviceCaps        000000014014e010     gdi32:GDI32.dll
 0002:00000018       __imp_SetDeviceGammaRamp   000000014014e018     gdi32:GDI32.dll
 0002:00000020       __imp_ChoosePixelFormat    000000014014e020     gdi32:GDI32.dll
 0002:00000028       __imp_DescribePixelFormat  000000014014e028     gdi32:GDI32.dll
 0002:00000030       __imp_CreateDCW            000000014014e030     gdi32:GDI32.dll
 0002:00000038       __imp_SetPixelFormat       000000014014e038     gdi32:GDI32.dll
 0002:00000040       \177GDI32_NULL_THUNK_DATA  000000014014e040     gdi32:GDI32.dll
 0002:00000048       __imp_LoadLibraryW         000000014014e048     kernel32:KERNEL32.dll
 0002:00000050       __imp_CopyFileA            000000014014e050     kernel32:KERNEL32.dll
 0002:00000058       __imp_LoadLibraryA         000000014014e058     kernel32:KERNEL32.dll
 0002:00000060       __imp_GetProcAddress       000000014014e060     kernel32:KERNEL32.dll
 0002:00000068       __imp_FreeLibrary          000000014014e068     kernel32:KERNEL32.dll
 0002:00000070       __imp_FindFirstFileA       000000014014e070     kernel32:KERNEL32.dll
 0002:00000078       __imp_FindClose            000000014014e078     kernel32:KERNEL32.dll
 0002:00000080       __imp_CompareFileTime      000000014014e080     kernel32:KERNEL32.dll
 0002:00000088       __imp_UnregisterWaitEx     000000014014e088     kernel32:KERNEL32.dll
 0002:00000090       __imp_QueryDepthSList      000000014014e090     kernel32:KERNEL32.dll
 0002:00000098       __imp_InterlockedFlushSList 000000014014e098     kernel32:KERNEL32.dll
 0002:000000a0       __imp_InterlockedPushEntrySList 000000014014e0a0     kernel32:KERNEL32.dll
 0002:000000a8       __imp_InterlockedPopEntrySList 000000014014e0a8     kernel32:KERNEL32.dll
 0002:000000b0       __imp_ReleaseSemaphore     000000014014e0b0     kernel32:KERNEL32.dll
 0002:000000b8       __imp_VirtualProtect       000000014014e0b8     kernel32:KERNEL32.dll
 0002:000000c0       __imp_VirtualFree          000000014014e0c0     kernel32:KERNEL32.dll
 0002:000000c8       __imp_VirtualAlloc         000000014014e0c8     kernel32:KERNEL32.dll
 0002:000000d0       __imp_GetVersionExW        000000014014e0d0     kernel32:KERNEL32.dll
 0002:000000d8       __imp_LoadLibraryExW       000000014014e0d8     kernel32:KERNEL32.dll
 0002:000000e0       __imp_GetModuleHandleA     000000014014e0e0     kernel32:KERNEL32.dll
 0002:000000e8       __imp_GetModuleFileNameW   000000014014e0e8     kernel32:KERNEL32.dll
 0002:000000f0       __imp_FreeLibraryAndExitThread 000000014014e0f0     kernel32:KERNEL32.dll
 0002:000000f8       __imp_GetThreadTimes       000000014014e0f8     kernel32:KERNEL32.dll
 0002:00000100       __imp_UnregisterWait       000000014014e100     kernel32:KERNEL32.dll
 0002:00000108       __imp_RegisterWaitForSingleObject 000000014014e108     kernel32:KERNEL32.dll
 0002:00000110       __imp_SetThreadAffinityMask 000000014014e110     kernel32:KERNEL32.dll
 0002:00000118       __imp_GetProcessAffinityMask 000000014014e118     kernel32:KERNEL32.dll
 0002:00000120       __imp_GetNumaHighestNodeNumber 000000014014e120     kernel32:KERNEL32.dll
 0002:00000128       __imp_DeleteTimerQueueTimer 000000014014e128     kernel32:KERNEL32.dll
 0002:00000130       __imp_ChangeTimerQueueTimer 000000014014e130     kernel32:KERNEL32.dll
 0002:00000138       __imp_CreateTimerQueueTimer 000000014014e138     kernel32:KERNEL32.dll
 0002:00000140       __imp_GetLogicalProcessorInformation 000000014014e140     kernel32:KERNEL32.dll
 0002:00000148       __imp_GetThreadPriority    000000014014e148     kernel32:KERNEL32.dll
 0002:00000150       __imp_SetThreadPriority    000000014014e150     kernel32:KERNEL32.dll
 0002:00000158       __imp_CreateThread         000000014014e158     kernel32:KERNEL32.dll
 0002:00000160       __imp_SwitchToThread       000000014014e160     kernel32:KERNEL32.dll
 0002:00000168       __imp_SignalObjectAndWait  000000014014e168     kernel32:KERNEL32.dll
 0002:00000170       __imp_CreateTimerQueue     000000014014e170     kernel32:KERNEL32.dll
 0002:00000178       __imp_VirtualQuery         000000014014e178     kernel32:KERNEL32.dll
 0002:00000180       __imp_GetProcessHeap       000000014014e180     kernel32:KERNEL32.dll
 0002:00000188       __imp_HeapFree             000000014014e188     kernel32:KERNEL32.dll
 0002:00000190       __imp_HeapAlloc            000000014014e190     kernel32:KERNEL32.dll
 0002:00000198       __imp_RaiseException       000000014014e198     kernel32:KERNEL32.dll
 0002:000001a0       __imp_InitializeSListHead  000000014014e1a0     kernel32:KERNEL32.dll
 0002:000001a8       __imp_GetCurrentProcessId  000000014014e1a8     kernel32:KERNEL32.dll
 0002:000001b0       __imp_IsDebuggerPresent    000000014014e1b0     kernel32:KERNEL32.dll
 0002:000001b8       __imp_IsProcessorFeaturePresent 000000014014e1b8     kernel32:KERNEL32.dll
 0002:000001c0       __imp_TerminateProcess     000000014014e1c0     kernel32:KERNEL32.dll
 0002:000001c8       __imp_SetUnhandledExceptionFilter 000000014014e1c8     kernel32:KERNEL32.dll
 0002:000001d0       __imp_UnhandledExceptionFilter 000000014014e1d0     kernel32:KERNEL32.dll
 0002:000001d8       __imp_RtlVirtualUnwind     000000014014e1d8     kernel32:KERNEL32.dll
 0002:000001e0       __imp_RtlLookupFunctionEntry 000000014014e1e0     kernel32:KERNEL32.dll
 0002:000001e8       __imp_RtlCaptureContext    000000014014e1e8     kernel32:KERNEL32.dll
 0002:000001f0       __imp_ResetEvent           000000014014e1f0     kernel32:KERNEL32.dll
 0002:000001f8       __imp_SetEvent             000000014014e1f8     kernel32:KERNEL32.dll
 0002:00000200       __imp_LCMapStringW         000000014014e200     kernel32:KERNEL32.dll
 0002:00000208       __imp_GetTickCount         000000014014e208     kernel32:KERNEL32.dll
 0002:00000210       __imp_GetSystemTimeAsFileTime 000000014014e210     kernel32:KERNEL32.dll
 0002:00000218       __imp_CreateEventW         000000014014e218     kernel32:KERNEL32.dll
 0002:00000220       __imp_InitializeCriticalSectionAndSpinCount 000000014014e220     kernel32:KERNEL32.dll
 0002:00000228       __imp_SetLastError         000000014014e228     kernel32:KERNEL32.dll
 0002:00000230       __imp_DecodePointer        000000014014e230     kernel32:KERNEL32.dll
 0002:00000238       __imp_EncodePointer        000000014014e238     kernel32:KERNEL32.dll
 0002:00000240       __imp_DeleteCriticalSection 000000014014e240     kernel32:KERNEL32.dll
 0002:00000248       __imp_TryEnterCriticalSection 000000014014e248     kernel32:KERNEL32.dll
 0002:00000250       __imp_LeaveCriticalSection 000000014014e250     kernel32:KERNEL32.dll
 0002:00000258       __imp_EnterCriticalSection 000000014014e258     kernel32:KERNEL32.dll
 0002:00000260       __imp_GetCurrentThreadId   000000014014e260     kernel32:KERNEL32.dll
 0002:00000268       __imp_GetCurrentThread     000000014014e268     kernel32:KERNEL32.dll
 0002:00000270       __imp_GetCurrentProcess    000000014014e270     kernel32:KERNEL32.dll
 0002:00000278       __imp_Sleep                000000014014e278     kernel32:KERNEL32.dll
 0002:00000280       __imp_WaitForSingleObjectEx 000000014014e280     kernel32:KERNEL32.dll
 0002:00000288       __imp_DuplicateHandle      000000014014e288     kernel32:KERNEL32.dll
 0002:00000290       __imp_CloseHandle          000000014014e290     kernel32:KERNEL32.dll
 0002:00000298       __imp_OutputDebugStringA   000000014014e298     kernel32:KERNEL32.dll
 0002:000002a0       __imp_GetLastError         000000014014e2a0     kernel32:KERNEL32.dll
 0002:000002a8       __imp_TlsFree              000000014014e2a8     kernel32:KERNEL32.dll
 0002:000002b0       __imp_TlsSetValue          000000014014e2b0     kernel32:KERNEL32.dll
 0002:000002b8       __imp_TlsGetValue          000000014014e2b8     kernel32:KERNEL32.dll
 0002:000002c0       __imp_TlsAlloc             000000014014e2c0     kernel32:KERNEL32.dll
 0002:000002c8       __imp_QueryPerformanceFrequency 000000014014e2c8     kernel32:KERNEL32.dll
 0002:000002d0       __imp_QueryPerformanceCounter 000000014014e2d0     kernel32:KERNEL32.dll
 0002:000002d8       __imp_WideCharToMultiByte  000000014014e2d8     kernel32:KERNEL32.dll
 0002:000002e0       __imp_MultiByteToWideChar  000000014014e2e0     kernel32:KERNEL32.dll
 0002:000002e8       __imp_GetModuleHandleW     000000014014e2e8     kernel32:KERNEL32.dll
 0002:000002f0       __imp_RtlPcToFileHeader    000000014014e2f0     kernel32:KERNEL32.dll
 0002:000002f8       \177KERNEL32_NULL_THUNK_DATA 000000014014e2f8     kernel32:KERNEL32.dll
 0002:00000300       __imp_alcCloseDevice       000000014014e300     OpenAL32:OpenAL32.dll
 0002:00000308       __imp_alcOpenDevice        000000014014e308     OpenAL32:OpenAL32.dll
 0002:00000310       __imp_alListenerfv         000000014014e310     OpenAL32:OpenAL32.dll
 0002:00000318       __imp_alcGetContextsDevice 000000014014e318     OpenAL32:OpenAL32.dll
 0002:00000320       __imp_alcDestroyContext    000000014014e320     OpenAL32:OpenAL32.dll
 0002:00000328       __imp_alcMakeContextCurrent 000000014014e328     OpenAL32:OpenAL32.dll
 0002:00000330       __imp_alcCreateContext     000000014014e330     OpenAL32:OpenAL32.dll
 0002:00000338       __imp_alBufferData         000000014014e338     OpenAL32:OpenAL32.dll
 0002:00000340       __imp_alcIsExtensionPresent 000000014014e340     OpenAL32:OpenAL32.dll
 0002:00000348       __imp_alDeleteBuffers      000000014014e348     OpenAL32:OpenAL32.dll
 0002:00000350       __imp_alGenBuffers         000000014014e350     OpenAL32:OpenAL32.dll
 0002:00000358       __imp_alSourcei            000000014014e358     OpenAL32:OpenAL32.dll
 0002:00000360       __imp_alDeleteSources      000000014014e360     OpenAL32:OpenAL32.dll
 0002:00000368       __imp_alGenSources         000000014014e368     OpenAL32:OpenAL32.dll
 0002:00000370       \177OpenAL32_NULL_THUNK_DATA 000000014014e370     OpenAL32:OpenAL32.dll
 0002:00000378       __imp_DragAcceptFiles      000000014014e378     shell32:SHELL32.dll
 0002:00000380       __imp_DragFinish           000000014014e380     shell32:SHELL32.dll
 0002:00000388       __imp_DragQueryPoint       000000014014e388     shell32:SHELL32.dll
 0002:00000390       __imp_DragQueryFileW       000000014014e390     shell32:SHELL32.dll
 0002:00000398       \177SHELL32_NULL_THUNK_DATA 000000014014e398     shell32:SHELL32.dll
 0002:000003a0       __imp_RemovePropW          000000014014e3a0     user32:USER32.dll
 0002:000003a8       __imp_GetClientRect        000000014014e3a8     user32:USER32.dll
 0002:000003b0       __imp_GetWindowRect        000000014014e3b0     user32:USER32.dll
 0002:000003b8       __imp_AdjustWindowRectEx   000000014014e3b8     user32:USER32.dll
 0002:000003c0       __imp_SetCursorPos         000000014014e3c0     user32:USER32.dll
 0002:000003c8       __imp_GetPropW             000000014014e3c8     user32:USER32.dll
 0002:000003d0       __imp_SetPropW             000000014014e3d0     user32:USER32.dll
 0002:000003d8       __imp_GetDC                000000014014e3d8     user32:USER32.dll
 0002:000003e0       __imp_SetForegroundWindow  000000014014e3e0     user32:USER32.dll
 0002:000003e8       __imp_ReleaseCapture       000000014014e3e8     user32:USER32.dll
 0002:000003f0       __imp_SetCapture           000000014014e3f0     user32:USER32.dll
 0002:000003f8       __imp_GetAsyncKeyState     000000014014e3f8     user32:USER32.dll
 0002:00000400       __imp_GetKeyState          000000014014e400     user32:USER32.dll
 0002:00000408       __imp_GetActiveWindow      000000014014e408     user32:USER32.dll
 0002:00000410       __imp_SetFocus             000000014014e410     user32:USER32.dll
 0002:00000418       __imp_SetCursor            000000014014e418     user32:USER32.dll
 0002:00000420       __imp_BringWindowToTop     000000014014e420     user32:USER32.dll
 0002:00000428       __imp_SetWindowPos         000000014014e428     user32:USER32.dll
 0002:00000430       __imp_MoveWindow           000000014014e430     user32:USER32.dll
 0002:00000438       __imp_RegisterClassExW     000000014014e438     user32:USER32.dll
 0002:00000440       __imp_UnregisterClassW     000000014014e440     user32:USER32.dll
 0002:00000448       __imp_DefWindowProcW       000000014014e448     user32:USER32.dll
 0002:00000450       __imp_GetCursorPos         000000014014e450     user32:USER32.dll
 0002:00000458       __imp_ClipCursor           000000014014e458     user32:USER32.dll
 0002:00000460       __imp_ClientToScreen       000000014014e460     user32:USER32.dll
 0002:00000468       __imp_GetMessageTime       000000014014e468     user32:USER32.dll
 0002:00000470       __imp_PeekMessageW         000000014014e470     user32:USER32.dll
 0002:00000478       __imp_DispatchMessageW     000000014014e478     user32:USER32.dll
 0002:00000480       __imp_TranslateMessage     000000014014e480     user32:USER32.dll
 0002:00000488       __imp_ScreenToClient       000000014014e488     user32:USER32.dll
 0002:00000490       __imp_TrackMouseEvent      000000014014e490     user32:USER32.dll
 0002:00000498       __imp_EnumDisplayDevicesW  000000014014e498     user32:USER32.dll
 0002:000004a0       __imp_EnumDisplaySettingsExW 000000014014e4a0     user32:USER32.dll
 0002:000004a8       __imp_EnumDisplaySettingsW 000000014014e4a8     user32:USER32.dll
 0002:000004b0       __imp_ChangeDisplaySettingsExW 000000014014e4b0     user32:USER32.dll
 0002:000004b8       __imp_SystemParametersInfoW 000000014014e4b8     user32:USER32.dll
 0002:000004c0       __imp_ShowWindow           000000014014e4c0     user32:USER32.dll
 0002:000004c8       __imp_WindowFromPoint      000000014014e4c8     user32:USER32.dll
 0002:000004d0       __imp_DestroyWindow        000000014014e4d0     user32:USER32.dll
 0002:000004d8       __imp_CreateWindowExW      000000014014e4d8     user32:USER32.dll
 0002:000004e0       __imp_PtInRect             000000014014e4e0     user32:USER32.dll
 0002:000004e8       __imp_RegisterDeviceNotificationW 000000014014e4e8     user32:USER32.dll
 0002:000004f0       __imp_GetWindowLongW       000000014014e4f0     user32:USER32.dll
 0002:000004f8       __imp_LoadCursorW          000000014014e4f8     user32:USER32.dll
 0002:00000500       __imp_GetRawInputDeviceList 000000014014e500     user32:USER32.dll
 0002:00000508       __imp_SetWindowLongW       000000014014e508     user32:USER32.dll
 0002:00000510       __imp_DestroyIcon          000000014014e510     user32:USER32.dll
 0002:00000518       __imp_LoadImageW           000000014014e518     user32:USER32.dll
 0002:00000520       __imp_GetRawInputDeviceInfoA 000000014014e520     user32:USER32.dll
 0002:00000528       \177USER32_NULL_THUNK_DATA 000000014014e528     user32:USER32.dll
 0002:00000530       __imp___std_exception_copy 000000014014e530     vcruntime:VCRUNTIME140.dll
 0002:00000538       __imp___AdjustPointer      000000014014e538     vcruntime:VCRUNTIME140.dll
 0002:00000540       __imp___processing_throw   000000014014e540     vcruntime:VCRUNTIME140.dll
 0002:00000548       __imp___current_exception  000000014014e548     vcruntime:VCRUNTIME140.dll
 0002:00000550       __imp__purecall            000000014014e550     vcruntime:VCRUNTIME140.dll
 0002:00000558       __imp_memchr               000000014014e558     vcruntime:VCRUNTIME140.dll
 0002:00000560       __imp_memmove              000000014014e560     vcruntime:VCRUNTIME140.dll
 0002:00000568       __imp___std_exception_destroy 000000014014e568     vcruntime:VCRUNTIME140.dll
 0002:00000570       __imp__CxxThrowException   000000014014e570     vcruntime:VCRUNTIME140.dll
 0002:00000578       __imp___CxxFrameHandler3   000000014014e578     vcruntime:VCRUNTIME140.dll
 0002:00000580       __imp_memcmp               000000014014e580     vcruntime:VCRUNTIME140.dll
 0002:00000588       __imp_strstr               000000014014e588     vcruntime:VCRUNTIME140.dll
 0002:00000590       __imp_memset               000000014014e590     vcruntime:VCRUNTIME140.dll
 0002:00000598       __imp_memcpy               000000014014e598     vcruntime:VCRUNTIME140.dll
 0002:000005a0       __imp_strrchr              000000014014e5a0     vcruntime:VCRUNTIME140.dll
 0002:000005a8       __imp_longjmp              000000014014e5a8     vcruntime:VCRUNTIME140.dll
 0002:000005b0       __imp___uncaught_exception 000000014014e5b0     vcruntime:VCRUNTIME140.dll
 0002:000005b8       __imp___std_terminate      000000014014e5b8     vcruntime:VCRUNTIME140.dll
 0002:000005c0       __imp___C_specific_handler 000000014014e5c0     vcruntime:VCRUNTIME140.dll
 0002:000005c8       __imp___vcrt_InitializeCriticalSectionEx 000000014014e5c8     vcruntime:VCRUNTIME140.dll
 0002:000005d0       __imp___intrinsic_setjmp   000000014014e5d0     vcruntime:VCRUNTIME140.dll
 0002:000005d8       __imp___vcrt_GetModuleFileNameW 000000014014e5d8     vcruntime:VCRUNTIME140.dll
 0002:000005e0       __imp___vcrt_LoadLibraryExW 000000014014e5e0     vcruntime:VCRUNTIME140.dll
 0002:000005e8       __imp___RTDynamicCast      000000014014e5e8     vcruntime:VCRUNTIME140.dll
 0002:000005f0       \177VCRUNTIME140_NULL_THUNK_DATA 000000014014e5f0     vcruntime:VCRUNTIME140.dll
 0002:000005f8       __imp_strtol               000000014014e5f8     ucrt:api-ms-win-crt-convert-l1-1-0.dll
 0002:00000600       \177api-ms-win-crt-convert-l1-1-0_NULL_THUNK_DATA 000000014014e600     ucrt:api-ms-win-crt-convert-l1-1-0.dll
 0002:00000608       __imp_getenv               000000014014e608     ucrt:api-ms-win-crt-environment-l1-1-0.dll
 0002:00000610       \177api-ms-win-crt-environment-l1-1-0_NULL_THUNK_DATA 000000014014e610     ucrt:api-ms-win-crt-environment-l1-1-0.dll
 0002:00000618       __imp__lock_file           000000014014e618     ucrt:api-ms-win-crt-filesystem-l1-1-0.dll
 0002:00000620       __imp__stat64i32           000000014014e620     ucrt:api-ms-win-crt-filesystem-l1-1-0.dll
 0002:00000628       __imp__unlock_file         000000014014e628     ucrt:api-ms-win-crt-filesystem-l1-1-0.dll
 0002:00000630       \177api-ms-win-crt-filesystem-l1-1-0_NULL_THUNK_DATA 000000014014e630     ucrt:api-ms-win-crt-filesystem-l1-1-0.dll
 0002:00000638       __imp__free_base           000000014014e638     ucrt:api-ms-win-crt-heap-l1-1-0.dll
 0002:00000640       __imp_realloc              000000014014e640     ucrt:api-ms-win-crt-heap-l1-1-0.dll
 0002:00000648       __imp__malloc_base         000000014014e648     ucrt:api-ms-win-crt-heap-l1-1-0.dll
 0002:00000650       __imp_free                 000000014014e650     ucrt:api-ms-win-crt-heap-l1-1-0.dll
 0002:00000658       __imp__calloc_base         000000014014e658     ucrt:api-ms-win-crt-heap-l1-1-0.dll
 0002:00000660       __imp__callnewh            000000014014e660     ucrt:api-ms-win-crt-heap-l1-1-0.dll
 0002:00000668       __imp_malloc               000000014014e668     ucrt:api-ms-win-crt-heap-l1-1-0.dll
 0002:00000670       __imp__set_new_mode        000000014014e670     ucrt:api-ms-win-crt-heap-l1-1-0.dll
 0002:00000678       __imp_calloc               000000014014e678     ucrt:api-ms-win-crt-heap-l1-1-0.dll
 0002:00000680       \177api-ms-win-crt-heap-l1-1-0_NULL_THUNK_DATA 000000014014e680     ucrt:api-ms-win-crt-heap-l1-1-0.dll
 0002:00000688       __imp____lc_locale_name_func 000000014014e688     ucrt:api-ms-win-crt-locale-l1-1-0.dll
 0002:00000690       __imp____lc_codepage_func  000000014014e690     ucrt:api-ms-win-crt-locale-l1-1-0.dll
 0002:00000698       __imp__lock_locales        000000014014e698     ucrt:api-ms-win-crt-locale-l1-1-0.dll
 0002:000006a0       __imp___pctype_func        000000014014e6a0     ucrt:api-ms-win-crt-locale-l1-1-0.dll
 0002:000006a8       __imp__configthreadlocale  000000014014e6a8     ucrt:api-ms-win-crt-locale-l1-1-0.dll
 0002:000006b0       __imp__unlock_locales      000000014014e6b0     ucrt:api-ms-win-crt-locale-l1-1-0.dll
 0002:000006b8       __imp_setlocale            000000014014e6b8     ucrt:api-ms-win-crt-locale-l1-1-0.dll
 0002:000006c0       \177api-ms-win-crt-locale-l1-1-0_NULL_THUNK_DATA 000000014014e6c0     ucrt:api-ms-win-crt-locale-l1-1-0.dll
 0002:000006c8       __imp_exp                  000000014014e6c8     ucrt:api-ms-win-crt-math-l1-1-0.dll
 0002:000006d0       __imp___setusermatherr     000000014014e6d0     ucrt:api-ms-win-crt-math-l1-1-0.dll
 0002:000006d8       __imp_sqrt                 000000014014e6d8     ucrt:api-ms-win-crt-math-l1-1-0.dll
 0002:000006e0       __imp_cosf                 000000014014e6e0     ucrt:api-ms-win-crt-math-l1-1-0.dll
 0002:000006e8       __imp_floorf               000000014014e6e8     ucrt:api-ms-win-crt-math-l1-1-0.dll
 0002:000006f0       __imp_ldexp                000000014014e6f0     ucrt:api-ms-win-crt-math-l1-1-0.dll
 0002:000006f8       __imp_powf                 000000014014e6f8     ucrt:api-ms-win-crt-math-l1-1-0.dll
 0002:00000700       __imp_sinf                 000000014014e700     ucrt:api-ms-win-crt-math-l1-1-0.dll
 0002:00000708       __imp_sqrtf                000000014014e708     ucrt:api-ms-win-crt-math-l1-1-0.dll
 0002:00000710       \177api-ms-win-crt-math-l1-1-0_NULL_THUNK_DATA 000000014014e710     ucrt:api-ms-win-crt-math-l1-1-0.dll
 0002:00000718       __imp__configure_narrow_argv 000000014014e718     ucrt:api-ms-win-crt-runtime-l1-1-0.dll
 0002:00000720       __imp__crt_atexit          000000014014e720     ucrt:api-ms-win-crt-runtime-l1-1-0.dll
 0002:00000728       __imp_abort                000000014014e728     ucrt:api-ms-win-crt-runtime-l1-1-0.dll
 0002:00000730       __imp__initialize_narrow_environment 000000014014e730     ucrt:api-ms-win-crt-runtime-l1-1-0.dll
 0002:00000738       __imp__initialize_onexit_table 000000014014e738     ucrt:api-ms-win-crt-runtime-l1-1-0.dll
 0002:00000740       __imp__beginthreadex       000000014014e740     ucrt:api-ms-win-crt-runtime-l1-1-0.dll
 0002:00000748       __imp__register_onexit_function 000000014014e748     ucrt:api-ms-win-crt-runtime-l1-1-0.dll
 0002:00000750       __imp__invalid_parameter_noinfo 000000014014e750     ucrt:api-ms-win-crt-runtime-l1-1-0.dll
 0002:00000758       __imp__invalid_parameter_noinfo_noreturn 000000014014e758     ucrt:api-ms-win-crt-runtime-l1-1-0.dll
 0002:00000760       __imp__errno               000000014014e760     ucrt:api-ms-win-crt-runtime-l1-1-0.dll
 0002:00000768       __imp__wassert             000000014014e768     ucrt:api-ms-win-crt-runtime-l1-1-0.dll
 0002:00000770       __imp__cexit               000000014014e770     ucrt:api-ms-win-crt-runtime-l1-1-0.dll
 0002:00000778       __imp__seh_filter_exe      000000014014e778     ucrt:api-ms-win-crt-runtime-l1-1-0.dll
 0002:00000780       __imp__set_app_type        000000014014e780     ucrt:api-ms-win-crt-runtime-l1-1-0.dll
 0002:00000788       __imp_exit                 000000014014e788     ucrt:api-ms-win-crt-runtime-l1-1-0.dll
 0002:00000790       __imp__register_thread_local_exe_atexit_callback 000000014014e790     ucrt:api-ms-win-crt-runtime-l1-1-0.dll
 0002:00000798       __imp__c_exit              000000014014e798     ucrt:api-ms-win-crt-runtime-l1-1-0.dll
 0002:000007a0       __imp___p___argv           000000014014e7a0     ucrt:api-ms-win-crt-runtime-l1-1-0.dll
 0002:000007a8       __imp___p___argc           000000014014e7a8     ucrt:api-ms-win-crt-runtime-l1-1-0.dll
 0002:000007b0       __imp_terminate            000000014014e7b0     ucrt:api-ms-win-crt-runtime-l1-1-0.dll
 0002:000007b8       __imp__exit                000000014014e7b8     ucrt:api-ms-win-crt-runtime-l1-1-0.dll
 0002:000007c0       __imp__initterm_e          000000014014e7c0     ucrt:api-ms-win-crt-runtime-l1-1-0.dll
 0002:000007c8       __imp__initterm            000000014014e7c8     ucrt:api-ms-win-crt-runtime-l1-1-0.dll
 0002:000007d0       __imp__get_initial_narrow_environment 000000014014e7d0     ucrt:api-ms-win-crt-runtime-l1-1-0.dll
 0002:000007d8       \177api-ms-win-crt-runtime-l1-1-0_NULL_THUNK_DATA 000000014014e7d8     ucrt:api-ms-win-crt-runtime-l1-1-0.dll
 0002:000007e0       __imp__set_fmode           000000014014e7e0     ucrt:api-ms-win-crt-stdio-l1-1-0.dll
 0002:000007e8       __imp___p__commode         000000014014e7e8     ucrt:api-ms-win-crt-stdio-l1-1-0.dll
 0002:000007f0       __imp__fsopen              000000014014e7f0     ucrt:api-ms-win-crt-stdio-l1-1-0.dll
 0002:000007f8       __imp___stdio_common_vsprintf 000000014014e7f8     ucrt:api-ms-win-crt-stdio-l1-1-0.dll
 0002:00000800       __imp___stdio_common_vfprintf 000000014014e800     ucrt:api-ms-win-crt-stdio-l1-1-0.dll
 0002:00000808       __imp_ungetc               000000014014e808     ucrt:api-ms-win-crt-stdio-l1-1-0.dll
 0002:00000810       __imp_setvbuf              000000014014e810     ucrt:api-ms-win-crt-stdio-l1-1-0.dll
 0002:00000818       __imp_fwrite               000000014014e818     ucrt:api-ms-win-crt-stdio-l1-1-0.dll
 0002:00000820       __imp_ftell                000000014014e820     ucrt:api-ms-win-crt-stdio-l1-1-0.dll
 0002:00000828       __imp__fseeki64            000000014014e828     ucrt:api-ms-win-crt-stdio-l1-1-0.dll
 0002:00000830       __imp_fseek                000000014014e830     ucrt:api-ms-win-crt-stdio-l1-1-0.dll
 0002:00000838       __imp_fread                000000014014e838     ucrt:api-ms-win-crt-stdio-l1-1-0.dll
 0002:00000840       __imp___stdio_common_vsscanf 000000014014e840     ucrt:api-ms-win-crt-stdio-l1-1-0.dll
 0002:00000848       __imp_fputc                000000014014e848     ucrt:api-ms-win-crt-stdio-l1-1-0.dll
 0002:00000850       __imp_fopen                000000014014e850     ucrt:api-ms-win-crt-stdio-l1-1-0.dll
 0002:00000858       __imp_fgetpos              000000014014e858     ucrt:api-ms-win-crt-stdio-l1-1-0.dll
 0002:00000860       __imp_fgetc                000000014014e860     ucrt:api-ms-win-crt-stdio-l1-1-0.dll
 0002:00000868       __imp_fflush               000000014014e868     ucrt:api-ms-win-crt-stdio-l1-1-0.dll
 0002:00000870       __imp___acrt_iob_func      000000014014e870     ucrt:api-ms-win-crt-stdio-l1-1-0.dll
 0002:00000878       __imp__get_stream_buffer_pointers 000000014014e878     ucrt:api-ms-win-crt-stdio-l1-1-0.dll
 0002:00000880       __imp_fopen_s              000000014014e880     ucrt:api-ms-win-crt-stdio-l1-1-0.dll
 0002:00000888       __imp_fclose               000000014014e888     ucrt:api-ms-win-crt-stdio-l1-1-0.dll
 0002:00000890       __imp_feof                 000000014014e890     ucrt:api-ms-win-crt-stdio-l1-1-0.dll
 0002:00000898       __imp_fsetpos              000000014014e898     ucrt:api-ms-win-crt-stdio-l1-1-0.dll
 0002:000008a0       \177api-ms-win-crt-stdio-l1-1-0_NULL_THUNK_DATA 000000014014e8a0     ucrt:api-ms-win-crt-stdio-l1-1-0.dll
 0002:000008a8       __imp_strncmp              000000014014e8a8     ucrt:api-ms-win-crt-string-l1-1-0.dll
 0002:000008b0       __imp___strncnt            000000014014e8b0     ucrt:api-ms-win-crt-string-l1-1-0.dll
 0002:000008b8       __imp_strcmp               000000014014e8b8     ucrt:api-ms-win-crt-string-l1-1-0.dll
 0002:000008c0       __imp_strlen               000000014014e8c0     ucrt:api-ms-win-crt-string-l1-1-0.dll
 0002:000008c8       __imp__strdup              000000014014e8c8     ucrt:api-ms-win-crt-string-l1-1-0.dll
 0002:000008d0       __imp_strcat               000000014014e8d0     ucrt:api-ms-win-crt-string-l1-1-0.dll
 0002:000008d8       __imp_strncpy              000000014014e8d8     ucrt:api-ms-win-crt-string-l1-1-0.dll
 0002:000008e0       __imp_strcpy               000000014014e8e0     ucrt:api-ms-win-crt-string-l1-1-0.dll
 0002:000008e8       __imp_isupper              000000014014e8e8     ucrt:api-ms-win-crt-string-l1-1-0.dll
 0002:000008f0       __imp__wcsdup              000000014014e8f0     ucrt:api-ms-win-crt-string-l1-1-0.dll
 0002:000008f8       __imp_islower              000000014014e8f8     ucrt:api-ms-win-crt-string-l1-1-0.dll
 0002:00000900       \177api-ms-win-crt-string-l1-1-0_NULL_THUNK_DATA 000000014014e900     ucrt:api-ms-win-crt-string-l1-1-0.dll
 0002:00000908       __imp__time64              000000014014e908     ucrt:api-ms-win-crt-time-l1-1-0.dll
 0002:00000910       \177api-ms-win-crt-time-l1-1-0_NULL_THUNK_DATA 000000014014e910     ucrt:api-ms-win-crt-time-l1-1-0.dll
 0002:00000918       __imp_qsort                000000014014e918     ucrt:api-ms-win-crt-utility-l1-1-0.dll
 0002:00000920       __imp_rand                 000000014014e920     ucrt:api-ms-win-crt-utility-l1-1-0.dll
 0002:00000928       __imp_srand                000000014014e928     ucrt:api-ms-win-crt-utility-l1-1-0.dll
 0002:00000930       \177api-ms-win-crt-utility-l1-1-0_NULL_THUNK_DATA 000000014014e930     ucrt:api-ms-win-crt-utility-l1-1-0.dll
 0002:00000938       __guard_check_icall_fptr   000000014014e938     MSVCRT:guard_support.obj
 0002:00000940       __guard_dispatch_icall_fptr 000000014014e940     MSVCRT:guard_support.obj
 0002:00000948       __xc_a                     000000014014e948     MSVCRT:initializers.obj
 0002:000009f0       __xc_z                     000000014014e9f0     MSVCRT:initializers.obj
 0002:000009f8       __xi_a                     000000014014e9f8     MSVCRT:initializers.obj
 0002:00000a20       __xi_z                     000000014014ea20     MSVCRT:initializers.obj
 0002:00000a28       __xl_a                     000000014014ea28     MSVCRT:tlssup.obj
 0002:00000a30       __xl_z                     000000014014ea30     MSVCRT:tlssup.obj
 0002:00000a38       __xp_a                     000000014014ea38     MSVCRT:initializers.obj
 0002:00000a48       __xp_z                     000000014014ea48     MSVCRT:initializers.obj
 0002:00000a50       __xt_a                     000000014014ea50     MSVCRT:initializers.obj
 0002:00000a58       __xt_z                     000000014014ea58     MSVCRT:initializers.obj
 0002:000041e0       ??_7exception@std@@6B@     00000001401521e0     main.obj
 0002:000041f0       ??_C@_0BC@EOODALEL@Unknown?5exception?$AA@ 00000001401521f0     main.obj
 0002:00004208       ?npos@?$basic_string@DU?$char_traits@D@std@@V?$allocator@D@2@@std@@2_KB 0000000140152208     main.obj
 0002:00004218       ??_7runtime_error@std@@6B@ 0000000140152218     main.obj
 0002:00004230       ??_7bad_cast@std@@6B@      0000000140152230     main.obj
 0002:00004240       ??_C@_08EPJLHIJG@bad?5cast?$AA@ 0000000140152240     main.obj
 0002:00004250       ??_C@_0BA@ELKIONDK@bad?5locale?5name?$AA@ 0000000140152250     main.obj
 0002:00004268       ??_7_Facet_base@std@@6B@   0000000140152268     main.obj
 0002:00004288       ??_7facet@locale@std@@6B@  0000000140152288     main.obj
 0002:000042a0       ??_C@_00CNPNBAHC@?$AA@     00000001401522a0     main.obj
 0002:000042b0       ??_7codecvt_base@std@@6B@  00000001401522b0     main.obj
 0002:000042e8       ??_7ctype_base@std@@6B@    00000001401522e8     main.obj
 0002:00004308       ??_7?$ctype@D@std@@6B@     0000000140152308     main.obj
 0002:00004368       ??_7error_category@std@@6B@ 0000000140152368     main.obj
 0002:000043a0       ??_7_System_error@std@@6B@ 00000001401523a0     main.obj
 0002:000043b0       ??_C@_02LMMGGCAJ@?3?5?$AA@ 00000001401523b0     main.obj
 0002:000043c0       ??_7system_error@std@@6B@  00000001401523c0     main.obj
 0002:000043d8       ??_7_Generic_error_category@std@@6B@ 00000001401523d8     main.obj
 0002:00004408       ??_C@_07DCLBNMLN@generic?$AA@ 0000000140152408     main.obj
 0002:00004418       ??_7_Iostream_error_category@std@@6B@ 0000000140152418     main.obj
 0002:00004448       ??_C@_08LLGCOLLL@iostream?$AA@ 0000000140152448     main.obj
 0002:00004458       ??_C@_0BG@PADBLCHM@iostream?5stream?5error?$AA@ 0000000140152458     main.obj
 0002:00004478       ??_7failure@ios_base@std@@6B@ 0000000140152478     main.obj
 0002:00004490       ??_7ios_base@std@@6B@      0000000140152490     main.obj
 0002:00004498       ??_C@_0BF@PHHKMMFD@ios_base?3?3badbit?5set?$AA@ 0000000140152498     main.obj
 0002:000044b0       ??_C@_0BG@FMKFHCIL@ios_base?3?3failbit?5set?$AA@ 00000001401524b0     main.obj
 0002:000044c8       ??_C@_0BF@OOHOMBOF@ios_base?3?3eofbit?5set?$AA@ 00000001401524c8     main.obj
 0002:000044e8       ??_7_Pad@std@@6B@          00000001401524e8     main.obj
 0002:000044f8       ??_7?$basic_ios@DU?$char_traits@D@std@@@std@@6B@ 00000001401524f8     main.obj
 0002:00004508       ??_7?$basic_istream@DU?$char_traits@D@std@@@std@@6B@ 0000000140152508     main.obj
 0002:00004510       ??_8?$basic_istream@DU?$char_traits@D@std@@@std@@7B@ 0000000140152510     main.obj
 0002:00004520       ??_7?$basic_streambuf@DU?$char_traits@D@std@@@std@@6B@ 0000000140152520     main.obj
 0002:000045a0       ??_7?$basic_filebuf@DU?$char_traits@D@std@@@std@@6B@ 00000001401525a0     main.obj
 0002:00004620       ??_7?$basic_ifstream@DU?$char_traits@D@std@@@std@@6B@ 0000000140152620     main.obj
 0002:00004628       ??_8?$basic_ifstream@DU?$char_traits@D@std@@@std@@7B@ 0000000140152628     main.obj
 0002:00004630       ??_C@_08MNNNPDAL@game?4dll?$AA@ 0000000140152630     main.obj
 0002:00004640       ??_C@_0O@FNGHNBGP@game_temp?4dll?$AA@ 0000000140152640     main.obj
 0002:00004650       ??_C@_0BN@LIGLBNBO@?8?4?1assets?1textures?1tiles?4png?$AA@ 0000000140152650     main.obj
 0002:00004678       ??_7?$codecvt@DDU_Mbstatet@@@std@@6B@ 0000000140152678     main.obj
 0002:000046c8       ??_C@_0BD@OLBABOEK@vector?$DMT?$DO?5too?5long?$AA@ 00000001401526c8     main.obj
 0002:000046e0       ??_C@_0BA@JFNIOLAK@string?5too?5long?$AA@ 00000001401526e0     main.obj
 0002:000046f0       ??_C@_0BI@CFPLBAOH@invalid?5string?5position?$AA@ 00000001401526f0     main.obj
 0002:00004710       ??_C@_1II@IOOBCCHD@?$AAc?$AA?3?$AA?2?$AAu?$AAs?$AAe?$AAr?$AAs?$AA?2?$AAn?$AAi?$AAe?$AAl?$AAs?$AA?2?$AAd?$AAo?$AAc?$AAu?$AAm?$AAe?$AAn?$AAt?$AAs?$AA?2?$AAp?$AAo?$AAw?$AAd?$AAe?$AAr?$AAe@ 0000000140152710     main.obj
 0002:00004798       ??_C@_1DK@BGNCJAPL@?$AAi?$AA?5?$AA?$DO?$AA?$DN?$AA?5?$AA0?$AA?5?$AA?$CG?$AA?$CG?$AA?5?$AAi?$AA?5?$AA?$DM?$AA?5?$AAt?$AAh?$AAi?$AAs?$AA?9?$AA?$DO?$AAl?$AAe?$AAn?$AAg?$AAt?$AAh?$AA?$CI?$AA?$CJ?$AA?$AA@ 0000000140152798     main.obj
 0002:000047e0       ??_C@_1IM@EPMDHJMO@?$AAc?$AA?3?$AA?2?$AAu?$AAs?$AAe?$AAr?$AAs?$AA?2?$AAn?$AAi?$AAe?$AAl?$AAs?$AA?2?$AAd?$AAo?$AAc?$AAu?$AAm?$AAe?$AAn?$AAt?$AAs?$AA?2?$AAp?$AAo?$AAw?$AAd?$AAe?$AAr?$AAe@ 00000001401527e0     main.obj
 0002:00004870       ??_C@_1CG@KOFHLCJL@?$AAi?$AA?5?$AA?$DM?$AA?5?$AAt?$AAh?$AAi?$AAs?$AA?9?$AA?$DO?$AAl?$AAe?$AAn?$AAg?$AAt?$AAh?$AA?$CI?$AA?$CJ?$AA?$AA@ 0000000140152870     main.obj
 0002:000048a0       ??_C@_1II@PKHJMLPM@?$AAc?$AA?3?$AA?2?$AAu?$AAs?$AAe?$AAr?$AAs?$AA?2?$AAn?$AAi?$AAe?$AAl?$AAs?$AA?2?$AAd?$AAo?$AAc?$AAu?$AAm?$AAe?$AAn?$AAt?$AAs?$AA?2?$AAp?$AAo?$AAw?$AAd?$AAe?$AAr?$AAe@ 00000001401528a0     main.obj
 0002:00004930       ??_7?$_LaunchPad@V?$unique_ptr@V?$tuple@P6AXPEAUasset_manager@@@ZPEAU1@@std@@U?$default_delete@V?$tuple@P6AXPEAUasset_manager@@@ZPEAU1@@std@@@2@@std@@@std@@6B@ 0000000140152930     main.obj
 0002:00004938       ??_C@_0BE@JONHPENG@map?1set?$DMT?$DO?5too?5long?$AA@ 0000000140152938     main.obj
 0002:0000494c       __real@00000000            000000014015294c     main.obj
 0002:00004950       __real@3d800000            0000000140152950     main.obj
 0002:00004954       __real@3e99999a            0000000140152954     main.obj
 0002:00004958       __real@3ec6c6c7            0000000140152958     main.obj
 0002:0000495c       __real@3ecccccd            000000014015295c     main.obj
 0002:00004960       __real@3f000000            0000000140152960     main.obj
 0002:00004964       __real@3f1b9b9c            0000000140152964     main.obj
 0002:00004968       __real@3f4ccccd            0000000140152968     main.obj
 0002:0000496c       __real@3f5a8e5c            000000014015296c     main.obj
 0002:00004970       __real@3f700000            0000000140152970     main.obj
 0002:00004974       __real@3f800000            0000000140152974     main.obj
 0002:00004978       __real@3f828f5c            0000000140152978     main.obj
 0002:00004980       __real@3fb999999999999a    0000000140152980     main.obj
 0002:00004988       __real@3fc7ae14            0000000140152988     main.obj
 0002:00004990       __real@3fcc28f5c28f5c29    0000000140152990     main.obj
 0002:00004998       __real@3fd3333333333333    0000000140152998     main.obj
 0002:000049a0       __real@3fd999999999999a    00000001401529a0     main.obj
 0002:000049a8       __real@3fe0000000000000    00000001401529a8     main.obj
 0002:000049b0       __real@3fe57be0            00000001401529b0     main.obj
 0002:000049b8       __real@3ff0000000000000    00000001401529b8     main.obj
 0002:000049c0       __real@40000000            00000001401529c0     main.obj
 0002:000049c4       __real@40133333            00000001401529c4     main.obj
 0002:000049c8       __real@40400000            00000001401529c8     main.obj
 0002:000049cc       __real@40c00000            00000001401529cc     main.obj
 0002:000049d0       __real@41000000            00000001401529d0     main.obj
 0002:000049d4       __real@41200000            00000001401529d4     main.obj
 0002:000049d8       __real@41700000            00000001401529d8     main.obj
 0002:000049dc       __real@42080000            00000001401529dc     main.obj
 0002:000049e0       __real@42240000            00000001401529e0     main.obj
 0002:000049e4       __real@42480000            00000001401529e4     main.obj
 0002:000049e8       __real@42c80000            00000001401529e8     main.obj
 0002:000049ec       __real@437f0000            00000001401529ec     main.obj
 0002:000049f0       __real@43908000            00000001401529f0     main.obj
 0002:000049f4       __real@477fff00            00000001401529f4     main.obj
 0002:000049f8       __real@bf7ae148            00000001401529f8     main.obj
 0002:000049fc       __real@bf800000            00000001401529fc     main.obj
 0002:00004a00       __xmm@00000200000002000000020000000200 0000000140152a00     main.obj
 0002:00004a10       __xmm@00080008000800080008000800080008 0000000140152a10     main.obj
 0002:00004a20       __xmm@00ff00ff00ff00ff00ff00ff00ff00ff 0000000140152a20     main.obj
 0002:00004a30       __xmm@01010000010100000101000001010000 0000000140152a30     main.obj
 0002:00004a40       __xmm@08a914e808a914e808a914e808a914e8 0000000140152a40     main.obj
 0002:00004a50       __xmm@11c8e09e11c8e09e11c8e09e11c8e09e 0000000140152a50     main.obj
 0002:00004a60       __xmm@11c8f9c311c8f9c311c8f9c311c8f9c3 0000000140152a60     main.obj
 0002:00004a70       __xmm@12d0046b12d0046b12d0046b12d0046b 0000000140152a70     main.obj
 0002:00004a80       __xmm@166f166f166f166f166f166f166f166f 0000000140152a80     main.obj
 0002:00004a90       __xmm@1c5a1c5a1c5a1c5a1c5a1c5a1c5a1c5a 0000000140152a90     main.obj
 0002:00004aa0       __xmm@7fffffffffffffff7fffffffffffffff 0000000140152aa0     main.obj
 0002:00004ab0       __xmm@80000000800000008000000080000000 0000000140152ab0     main.obj
 0002:00004ac0       __xmm@80808080808080808080808080808080 0000000140152ac0     main.obj
 0002:00004ad0       __xmm@e09ee565e09ee565e09ee565e09ee565 0000000140152ad0     main.obj
 0002:00004ae0       __xmm@e9cf12d0e9cf12d0e9cf12d0e9cf12d0 0000000140152ae0     main.obj
 0002:00004af0       __xmm@eb1a08a9eb1a08a9eb1a08a9eb1a08a9 0000000140152af0     main.obj
 0002:00004b00       __xmm@f493f493f493f493f493f493f493f493 0000000140152b00     main.obj
 0002:00004b10       __xmm@f9c31a9df9c31a9df9c31a9df9c31a9d 0000000140152b10     main.obj
 0002:00004b20       __xmm@fa7efa7efa7efa7efa7efa7efa7efa7e 0000000140152b20     main.obj
 0002:00004b30       ??_C@_0CE@BEELAIPG@The?5GLFW?5library?5is?5not?5initiali@ 0000000140152b30     glfw3:init.c.obj
 0002:00004b58       ??_C@_0BM@PKHPFLOM@There?5is?5no?5current?5context?$AA@ 0000000140152b58     glfw3:init.c.obj
 0002:00004b78       ??_C@_0CE@KDBKFLEE@Invalid?5argument?5for?5enum?5parame@ 0000000140152b78     glfw3:init.c.obj
 0002:00004ba0       ??_C@_0BM@BADCNPOM@Invalid?5value?5for?5parameter?$AA@ 0000000140152ba0     glfw3:init.c.obj
 0002:00004bc0       ??_C@_0O@NALGGDJF@Out?5of?5memory?$AA@ 0000000140152bc0     glfw3:init.c.obj
 0002:00004bd0       ??_C@_0CB@HAFFDHLH@The?5requested?5API?5is?5unavailable@ 0000000140152bd0     glfw3:init.c.obj
 0002:00004bf8       ??_C@_0CJ@KOFEFGNB@The?5requested?5API?5version?5is?5una@ 0000000140152bf8     glfw3:init.c.obj
 0002:00004c28       ??_C@_0CD@HJEBEGLD@A?5platform?9specific?5error?5occurr@ 0000000140152c28     glfw3:init.c.obj
 0002:00004c50       ??_C@_0CE@PCLEMLLO@The?5requested?5format?5is?5unavaila@ 0000000140152c50     glfw3:init.c.obj
 0002:00004c78       ??_C@_0CE@OJFJMLEI@The?5specified?5window?5has?5no?5cont@ 0000000140152c78     glfw3:init.c.obj
 0002:00004ca0       ??_C@_0BK@PMMAHJAK@ERROR?3?5UNKNOWN?5GLFW?5ERROR?$AA@ 0000000140152ca0     glfw3:init.c.obj
